
========================================================================

** ELF Header Information

    File Name: .\Objects\c011.axf

    Machine class: ELFCLASS32 (32-bit)
    Data encoding: ELFDATA2LSB (Little endian)
    Header version: EV_CURRENT (Current version)
    Operating System ABI: none
    ABI Version: 0
    File Type: ET_EXEC (Executable) (2)
    Machine: EM_ARM (ARM)

    Image Entry point: 0x080000c1
    Flags: EF_ARM_HASENTRY + EF_ARM_ABI_FLOAT_SOFT (0x05000202)

    ARM ELF revision: 5 (ABI version 2)

    Conforms to Soft float procedure-call standard

    Built with
    Component: Arm Compiler for Embedded 6.24 Tool: armasm [5f371400]
    Component: Arm Compiler for Embedded 6.24 Tool: armlink [5f371500]

    Header size: 52 bytes (0x34)
    Program header entry size: 32 bytes (0x20)
    Section header entry size: 40 bytes (0x28)

    Program header entries: 1
    Section header entries: 16

    Program header offset: 128132 (0x0001f484)
    Section header offset: 128164 (0x0001f4a4)

    Section header string table index: 15

========================================================================

** Program header #0 (PT_LOAD) [PF_X + PF_W + PF_R + PF_ARM_ENTRY]
    Size : 28640 bytes (23920 bytes in file)
    Virtual address: 0x08000000 (Alignment 8)


========================================================================

** Section #1 'ER_IROM1' (SHT_PROGBITS) [SHF_ALLOC + SHF_EXECINSTR]
    Size   : 23908 bytes (alignment 4)
    Address: 0x08000000

    $d.realdata
    RESET
    __Vectors
        0x08000000:    20001278    x..     DCD    536875640
        0x08000004:    080001b9    ....    DCD    134218169
        0x08000008:    080004cf    ....    DCD    134218959
        0x0800000c:    080004cd    ....    DCD    134218957
        0x08000010:    00000000    ....    DCD    0
        0x08000014:    00000000    ....    DCD    0
        0x08000018:    00000000    ....    DCD    0
        0x0800001c:    00000000    ....    DCD    0
        0x08000020:    00000000    ....    DCD    0
        0x08000024:    00000000    ....    DCD    0
        0x08000028:    00000000    ....    DCD    0
        0x0800002c:    080004d3    ....    DCD    134218963
        0x08000030:    00000000    ....    DCD    0
        0x08000034:    00000000    ....    DCD    0
        0x08000038:    080004d1    ....    DCD    134218961
        0x0800003c:    080004d5    ....    DCD    134218965
        0x08000040:    080001cb    ....    DCD    134218187
        0x08000044:    00000000    ....    DCD    0
        0x08000048:    080001cb    ....    DCD    134218187
        0x0800004c:    080001cb    ....    DCD    134218187
        0x08000050:    080001cb    ....    DCD    134218187
        0x08000054:    080001cb    ....    DCD    134218187
        0x08000058:    080001cb    ....    DCD    134218187
        0x0800005c:    080001cb    ....    DCD    134218187
        0x08000060:    00000000    ....    DCD    0
        0x08000064:    080001cb    ....    DCD    134218187
        0x08000068:    080001cb    ....    DCD    134218187
        0x0800006c:    080001cb    ....    DCD    134218187
        0x08000070:    080001cb    ....    DCD    134218187
        0x08000074:    080001cb    ....    DCD    134218187
        0x08000078:    080001cb    ....    DCD    134218187
        0x0800007c:    00000000    ....    DCD    0
        0x08000080:    080001cb    ....    DCD    134218187
        0x08000084:    00000000    ....    DCD    0
        0x08000088:    00000000    ....    DCD    0
        0x0800008c:    080001cb    ....    DCD    134218187
        0x08000090:    00000000    ....    DCD    0
        0x08000094:    080001cb    ....    DCD    134218187
        0x08000098:    080001cb    ....    DCD    134218187
        0x0800009c:    080001cb    ....    DCD    134218187
        0x080000a0:    00000000    ....    DCD    0
        0x080000a4:    080001cb    ....    DCD    134218187
        0x080000a8:    00000000    ....    DCD    0
        0x080000ac:    080001cb    ....    DCD    134218187
        0x080000b0:    080001cb    ....    DCD    134218187
        0x080000b4:    00000000    ....    DCD    0
        0x080000b8:    00000000    ....    DCD    0
        0x080000bc:    00000000    ....    DCD    0
    $t
    !!!main
    __Vectors_End
    __main
        0x080000c0:    f000f802    ....    BL       __scatterload ; 0x80000c8
        0x080000c4:    f000f84c    ..L.    BL       __rt_entry ; 0x8000160
    !!!scatter
    __scatterload
    __scatterload_rt2
    __scatterload_rt2_thumb_only
        0x080000c8:    a012        ..      ADR      r0,{pc}+0x4c ; 0x8000114
        0x080000ca:    c830        0.      LDM      r0!,{r4,r5}
        0x080000cc:    3808        .8      SUBS     r0,r0,#8
        0x080000ce:    1824        $.      ADDS     r4,r4,r0
        0x080000d0:    182d        -.      ADDS     r5,r5,r0
    __scatterload_loop
        0x080000d2:    42ac        .B      CMP      r4,r5
        0x080000d4:    d101        ..      BNE      0x80000da ; __scatterload_loop + 8
        0x080000d6:    f000f843    ..C.    BL       __rt_entry ; 0x8000160
        0x080000da:    cc0f        ..      LDM      r4!,{r0-r3}
        0x080000dc:    46a2        .F      MOV      r10,r4
        0x080000de:    46ab        .F      MOV      r11,r5
        0x080000e0:    a70c        ..      ADR      r7,{pc}+0x34 ; 0x8000114
        0x080000e2:    cf30        0.      LDM      r7!,{r4,r5}
        0x080000e4:    1b2d        -.      SUBS     r5,r5,r4
        0x080000e6:    3f08        .?      SUBS     r7,r7,#8
        0x080000e8:    193f        ?.      ADDS     r7,r7,r4
        0x080000ea:    427c        |B      RSBS     r4,r7,#0
        0x080000ec:    1e7f        ..      SUBS     r7,r7,#1
        0x080000ee:    4454        TD      ADD      r4,r4,r10
        0x080000f0:    092d        -.      LSRS     r5,r5,#4
        0x080000f2:    2604        .&      MOVS     r6,#4
        0x080000f4:    41f4        .A      RORS     r4,r4,r6
        0x080000f6:    1e64        d.      SUBS     r4,r4,#1
        0x080000f8:    42ac        .B      CMP      r4,r5
        0x080000fa:    d301        ..      BCC      0x8000100 ; __scatterload_loop + 46
        0x080000fc:    f000f830    ..0.    BL       __rt_entry ; 0x8000160
        0x08000100:    2601        .&      MOVS     r6,#1
        0x08000102:    4233        3B      TST      r3,r6
        0x08000104:    d000        ..      BEQ      0x8000108 ; __scatterload_loop + 54
        0x08000106:    1afb        ..      SUBS     r3,r7,r3
        0x08000108:    4333        3C      ORRS     r3,r3,r6
        0x0800010a:    4798        .G      BLX      r3
        0x0800010c:    4654        TF      MOV      r4,r10
        0x0800010e:    465d        ]F      MOV      r5,r11
        0x08000110:    e7df        ..      B        __scatterload_loop ; 0x80000d2
    $d
        0x08000112:    0000        ..      DCW    0
        0x08000114:    00005c30    0\..    DCD    23600
        0x08000118:    00005c50    P\..    DCD    23632
    $t
    !!handler_copy
    __scatterload_copy
        0x0800011c:    3a10        .:      SUBS     r2,r2,#0x10
        0x0800011e:    d302        ..      BCC      0x8000126 ; __scatterload_copy + 10
        0x08000120:    c878        x.      LDM      r0!,{r3-r6}
        0x08000122:    c178        x.      STM      r1!,{r3-r6}
        0x08000124:    d8fa        ..      BHI      __scatterload_copy ; 0x800011c
        0x08000126:    0752        R.      LSLS     r2,r2,#29
        0x08000128:    d301        ..      BCC      0x800012e ; __scatterload_copy + 18
        0x0800012a:    c830        0.      LDM      r0!,{r4,r5}
        0x0800012c:    c130        0.      STM      r1!,{r4,r5}
        0x0800012e:    d501        ..      BPL      0x8000134 ; __scatterload_copy + 24
        0x08000130:    6804        .h      LDR      r4,[r0,#0]
        0x08000132:    600c        .`      STR      r4,[r1,#0]
        0x08000134:    4770        pG      BX       lr
        0x08000136:    0000        ..      MOVS     r0,r0
    !!handler_null
    __scatterload_null
        0x08000138:    4770        pG      BX       lr
        0x0800013a:    0000        ..      MOVS     r0,r0
    !!handler_zi
    __scatterload_zeroinit
        0x0800013c:    2300        .#      MOVS     r3,#0
        0x0800013e:    2400        .$      MOVS     r4,#0
        0x08000140:    2500        .%      MOVS     r5,#0
        0x08000142:    2600        .&      MOVS     r6,#0
        0x08000144:    3a10        .:      SUBS     r2,r2,#0x10
        0x08000146:    d301        ..      BCC      0x800014c ; __scatterload_zeroinit + 16
        0x08000148:    c178        x.      STM      r1!,{r3-r6}
        0x0800014a:    d8fb        ..      BHI      0x8000144 ; __scatterload_zeroinit + 8
        0x0800014c:    0752        R.      LSLS     r2,r2,#29
        0x0800014e:    d300        ..      BCC      0x8000152 ; __scatterload_zeroinit + 22
        0x08000150:    c130        0.      STM      r1!,{r4,r5}
        0x08000152:    d500        ..      BPL      0x8000156 ; __scatterload_zeroinit + 26
        0x08000154:    600b        .`      STR      r3,[r1,#0]
        0x08000156:    4770        pG      BX       lr
    .ARM.Collect$$libinit$$00000000
    __rt_lib_init
        0x08000158:    b51f        ..      PUSH     {r0-r4,lr}
    .ARM.Collect$$libinit$$00000002
    .ARM.Collect$$libinit$$00000004
    .ARM.Collect$$libinit$$00000006
    .ARM.Collect$$libinit$$0000000C
    .ARM.Collect$$libinit$$0000000E
    .ARM.Collect$$libinit$$00000010
    .ARM.Collect$$libinit$$00000013
    .ARM.Collect$$libinit$$00000015
    .ARM.Collect$$libinit$$00000017
    .ARM.Collect$$libinit$$00000019
    .ARM.Collect$$libinit$$0000001B
    .ARM.Collect$$libinit$$0000001D
    .ARM.Collect$$libinit$$0000001F
    .ARM.Collect$$libinit$$00000021
    .ARM.Collect$$libinit$$00000023
    .ARM.Collect$$libinit$$00000025
    .ARM.Collect$$libinit$$00000027
    .ARM.Collect$$libinit$$0000002E
    .ARM.Collect$$libinit$$00000030
    .ARM.Collect$$libinit$$00000032
    .ARM.Collect$$libinit$$00000034
    .ARM.Collect$$libinit$$00000035
    __rt_lib_init_alloca_1
    __rt_lib_init_argv_1
    __rt_lib_init_atexit_1
    __rt_lib_init_clock_1
    __rt_lib_init_cpp_1
    __rt_lib_init_exceptions_1
    __rt_lib_init_fp_1
    __rt_lib_init_fp_trap_1
    __rt_lib_init_getenv_1
    __rt_lib_init_heap_1
    __rt_lib_init_lc_collate_1
    __rt_lib_init_lc_ctype_1
    __rt_lib_init_lc_monetary_1
    __rt_lib_init_lc_numeric_1
    __rt_lib_init_lc_time_1
    __rt_lib_init_preinit_1
    __rt_lib_init_rand_1
    __rt_lib_init_relocate_pie_1
    __rt_lib_init_return
    __rt_lib_init_signal_1
    __rt_lib_init_stdio_1
    __rt_lib_init_user_alloc_1
        0x0800015a:    bd1f        ..      POP      {r0-r4,pc}
    .ARM.Collect$$libshutdown$$00000000
    __rt_lib_shutdown
        0x0800015c:    b510        ..      PUSH     {r4,lr}
    .ARM.Collect$$libshutdown$$00000002
    .ARM.Collect$$libshutdown$$00000004
    .ARM.Collect$$libshutdown$$00000007
    .ARM.Collect$$libshutdown$$0000000A
    .ARM.Collect$$libshutdown$$0000000C
    .ARM.Collect$$libshutdown$$0000000F
    .ARM.Collect$$libshutdown$$00000010
    __rt_lib_shutdown_cpp_1
    __rt_lib_shutdown_fp_trap_1
    __rt_lib_shutdown_heap_1
    __rt_lib_shutdown_return
    __rt_lib_shutdown_signal_1
    __rt_lib_shutdown_stdio_1
    __rt_lib_shutdown_user_alloc_1
        0x0800015e:    bd10        ..      POP      {r4,pc}
    .ARM.Collect$$rtentry$$00000000
    .ARM.Collect$$rtentry$$00000002
    .ARM.Collect$$rtentry$$00000004
    __rt_entry
    __rt_entry_presh_1
    __rt_entry_sh
        0x08000160:    f000f849    ..I.    BL       __user_setup_stackheap ; 0x80001f6
        0x08000164:    4611        .F      MOV      r1,r2
    .ARM.Collect$$rtentry$$00000009
    .ARM.Collect$$rtentry$$0000000A
    __rt_entry_li
    __rt_entry_postsh_1
        0x08000166:    f7fffff7    ....    BL       __rt_lib_init ; 0x8000158
    .ARM.Collect$$rtentry$$0000000C
    .ARM.Collect$$rtentry$$0000000D
    __rt_entry_main
    __rt_entry_postli_1
        0x0800016a:    f001fea5    ....    BL       main ; 0x8001eb8
        0x0800016e:    f000f861    ..a.    BL       exit ; 0x8000234
    .ARM.Collect$$rtexit$$00000000
    __rt_exit
        0x08000172:    b403        ..      PUSH     {r0,r1}
    .ARM.Collect$$rtexit$$00000002
    .ARM.Collect$$rtexit$$00000003
    __rt_exit_ls
    __rt_exit_prels_1
        0x08000174:    f7fffff2    ....    BL       __rt_lib_shutdown ; 0x800015c
    .ARM.Collect$$rtexit$$00000004
    __rt_exit_exit
        0x08000178:    bc03        ..      POP      {r0,r1}
        0x0800017a:    f000f867    ..g.    BL       _sys_exit ; 0x800024c
        0x0800017e:    0000        ..      MOVS     r0,r0
    .emb_text
    __aeabi_memcpy4
    __aeabi_memcpy8
        0x08000180:    b570        p.      PUSH     {r4-r6,lr}
        0x08000182:    4605        .F      MOV      r5,r0
        0x08000184:    460c        .F      MOV      r4,r1
        0x08000186:    4616        .F      MOV      r6,r2
        0x08000188:    e002        ..      B        0x8000190 ; __aeabi_memcpy4 + 16
        0x0800018a:    cc0f        ..      LDM      r4!,{r0-r3}
        0x0800018c:    c50f        ..      STM      r5!,{r0-r3}
        0x0800018e:    3e10        .>      SUBS     r6,r6,#0x10
        0x08000190:    2e10        ..      CMP      r6,#0x10
        0x08000192:    d2fa        ..      BCS      0x800018a ; __aeabi_memcpy4 + 10
        0x08000194:    2e08        ..      CMP      r6,#8
        0x08000196:    d302        ..      BCC      0x800019e ; __aeabi_memcpy4 + 30
        0x08000198:    cc03        ..      LDM      r4!,{r0,r1}
        0x0800019a:    c503        ..      STM      r5!,{r0,r1}
        0x0800019c:    3e08        .>      SUBS     r6,r6,#8
        0x0800019e:    2e04        ..      CMP      r6,#4
        0x080001a0:    d307        ..      BCC      0x80001b2 ; __aeabi_memcpy4 + 50
        0x080001a2:    cc01        ..      LDM      r4!,{r0}
        0x080001a4:    c501        ..      STM      r5!,{r0}
        0x080001a6:    1f36        6.      SUBS     r6,r6,#4
        0x080001a8:    e003        ..      B        0x80001b2 ; __aeabi_memcpy4 + 50
        0x080001aa:    7821        !x      LDRB     r1,[r4,#0]
        0x080001ac:    7029        )p      STRB     r1,[r5,#0]
        0x080001ae:    1c64        d.      ADDS     r4,r4,#1
        0x080001b0:    1c6d        m.      ADDS     r5,r5,#1
        0x080001b2:    1e76        v.      SUBS     r6,r6,#1
        0x080001b4:    d2f9        ..      BCS      0x80001aa ; __aeabi_memcpy4 + 42
        0x080001b6:    bd70        p.      POP      {r4-r6,pc}
    .text
    Reset_Handler
        0x080001b8:    4807        .H      LDR      r0,[pc,#28] ; [0x80001d8] = 0x80004e5
        0x080001ba:    4780        .G      BLX      r0
        0x080001bc:    4807        .H      LDR      r0,[pc,#28] ; [0x80001dc] = 0x80000c1
        0x080001be:    4700        .G      BX       r0
        0x080001c0:    e7fe        ..      B        0x80001c0 ; Reset_Handler + 8
        0x080001c2:    e7fe        ..      B        0x80001c2 ; Reset_Handler + 10
        0x080001c4:    e7fe        ..      B        0x80001c4 ; Reset_Handler + 12
        0x080001c6:    e7fe        ..      B        0x80001c6 ; Reset_Handler + 14
        0x080001c8:    e7fe        ..      B        0x80001c8 ; Reset_Handler + 16
    ADC1_IRQHandler
    DMA1_Channel1_IRQHandler
    DMA1_Channel2_3_IRQHandler
    DMAMUX1_IRQHandler
    EXTI0_1_IRQHandler
    EXTI2_3_IRQHandler
    EXTI4_15_IRQHandler
    FLASH_IRQHandler
    I2C1_IRQHandler
    RCC_IRQHandler
    RTC_IRQHandler
    SPI1_IRQHandler
    TIM14_IRQHandler
    TIM16_IRQHandler
    TIM17_IRQHandler
    TIM1_BRK_UP_TRG_COM_IRQHandler
    TIM1_CC_IRQHandler
    TIM3_IRQHandler
    USART1_IRQHandler
    USART2_IRQHandler
    WWDG_IRQHandler
        0x080001ca:    e7fe        ..      B        ADC1_IRQHandler ; 0x80001ca
    __user_initial_stackheap
        0x080001cc:    4804        .H      LDR      r0,[pc,#16] ; [0x80001e0] = 0x20000078
        0x080001ce:    4905        .I      LDR      r1,[pc,#20] ; [0x80001e4] = 0x20001278
        0x080001d0:    4a05        .J      LDR      r2,[pc,#20] ; [0x80001e8] = 0x20000278
        0x080001d2:    4b06        .K      LDR      r3,[pc,#24] ; [0x80001ec] = 0x20000278
        0x080001d4:    4770        pG      BX       lr
    $d
        0x080001d6:    0000        ..      DCW    0
        0x080001d8:    080004e5    ....    DCD    134218981
        0x080001dc:    080000c1    ....    DCD    134217921
        0x080001e0:    20000078    x..     DCD    536871032
        0x080001e4:    20001278    x..     DCD    536875640
        0x080001e8:    20000278    x..     DCD    536871544
        0x080001ec:    20000278    x..     DCD    536871544
    $t
    .text
    __use_two_region_memory
        0x080001f0:    4770        pG      BX       lr
    __rt_heap_escrow$2region
        0x080001f2:    4770        pG      BX       lr
    __rt_heap_expand$2region
        0x080001f4:    4770        pG      BX       lr
    .text
    __user_setup_stackheap
        0x080001f6:    4675        uF      MOV      r5,lr
        0x080001f8:    f000f824    ..$.    BL       __user_libspace ; 0x8000244
        0x080001fc:    46ae        .F      MOV      lr,r5
        0x080001fe:    0005        ..      MOVS     r5,r0
        0x08000200:    4669        iF      MOV      r1,sp
        0x08000202:    4653        SF      MOV      r3,r10
        0x08000204:    08c0        ..      LSRS     r0,r0,#3
        0x08000206:    00c0        ..      LSLS     r0,r0,#3
        0x08000208:    4685        .F      MOV      sp,r0
        0x0800020a:    b018        ..      ADD      sp,sp,#0x60
        0x0800020c:    b520         .      PUSH     {r5,lr}
        0x0800020e:    f7ffffdd    ....    BL       __user_initial_stackheap ; 0x80001cc
        0x08000212:    bc60        `.      POP      {r5,r6}
        0x08000214:    46b6        .F      MOV      lr,r6
        0x08000216:    2600        .&      MOVS     r6,#0
        0x08000218:    2700        .'      MOVS     r7,#0
        0x0800021a:    c5c0        ..      STM      r5!,{r6,r7}
        0x0800021c:    c5c0        ..      STM      r5!,{r6,r7}
        0x0800021e:    c5c0        ..      STM      r5!,{r6,r7}
        0x08000220:    c5c0        ..      STM      r5!,{r6,r7}
        0x08000222:    c5c0        ..      STM      r5!,{r6,r7}
        0x08000224:    c5c0        ..      STM      r5!,{r6,r7}
        0x08000226:    c5c0        ..      STM      r5!,{r6,r7}
        0x08000228:    c5c0        ..      STM      r5!,{r6,r7}
        0x0800022a:    3d40        @=      SUBS     r5,r5,#0x40
        0x0800022c:    0849        I.      LSRS     r1,r1,#1
        0x0800022e:    0049        I.      LSLS     r1,r1,#1
        0x08000230:    468d        .F      MOV      sp,r1
        0x08000232:    4770        pG      BX       lr
    .text
    exit
        0x08000234:    b510        ..      PUSH     {r4,lr}
        0x08000236:    4604        .F      MOV      r4,r0
        0x08000238:    46c0        .F      MOV      r8,r8
        0x0800023a:    46c0        .F      MOV      r8,r8
        0x0800023c:    4620         F      MOV      r0,r4
        0x0800023e:    f7ffff98    ....    BL       __rt_exit ; 0x8000172
        0x08000242:    bd10        ..      POP      {r4,pc}
    .text
    __user_libspace
    __user_perproc_libspace
    __user_perthread_libspace
        0x08000244:    4800        .H      LDR      r0,[pc,#0] ; [0x8000248] = 0x20000008
        0x08000246:    4770        pG      BX       lr
    $d
        0x08000248:    20000008    ...     DCD    536870920
    $t
    .text
    _sys_exit
        0x0800024c:    4901        .I      LDR      r1,[pc,#4] ; [0x8000254] = 0x20026
        0x0800024e:    2018        .       MOVS     r0,#0x18
        0x08000250:    beab        ..      BKPT     #0xab
        0x08000252:    e7fe        ..      B        0x8000252 ; _sys_exit + 6
    $d
        0x08000254:    00020026    &...    DCD    131110
    $t
    .text
    __I$use$semihosting
    __use_no_semihosting_swi
        0x08000258:    4770        pG      BX       lr
    .text
    .text
    __aeabi_lmul
    __semihosting_library_function
    _ll_mul
        0x0800025a:    4343        CC      MULS     r3,r0,r3
        0x0800025c:    4351        QC      MULS     r1,r2,r1
        0x0800025e:    b530        0.      PUSH     {r4,r5,lr}
        0x08000260:    185c        \.      ADDS     r4,r3,r1
        0x08000262:    0c01        ..      LSRS     r1,r0,#16
        0x08000264:    0c13        ..      LSRS     r3,r2,#16
        0x08000266:    460d        .F      MOV      r5,r1
        0x08000268:    b292        ..      UXTH     r2,r2
        0x0800026a:    435d        ]C      MULS     r5,r3,r5
        0x0800026c:    b280        ..      UXTH     r0,r0
        0x0800026e:    4351        QC      MULS     r1,r2,r1
        0x08000270:    192c        ,.      ADDS     r4,r5,r4
        0x08000272:    4605        .F      MOV      r5,r0
        0x08000274:    4355        UC      MULS     r5,r2,r5
        0x08000276:    0c0a        ..      LSRS     r2,r1,#16
        0x08000278:    0409        ..      LSLS     r1,r1,#16
        0x0800027a:    194d        M.      ADDS     r5,r1,r5
        0x0800027c:    4162        bA      ADCS     r2,r2,r4
        0x0800027e:    4358        XC      MULS     r0,r3,r0
        0x08000280:    0c01        ..      LSRS     r1,r0,#16
        0x08000282:    0400        ..      LSLS     r0,r0,#16
        0x08000284:    1940        @.      ADDS     r0,r0,r5
        0x08000286:    4151        QA      ADCS     r1,r1,r2
        0x08000288:    bd30        0.      POP      {r4,r5,pc}
    .text
    __aeabi_memcpy
    __rt_memcpy
        0x0800028a:    b5f8        ..      PUSH     {r3-r7,lr}
        0x0800028c:    2a04        .*      CMP      r2,#4
        0x0800028e:    d32c        ,.      BCC      0x80002ea ; __aeabi_memcpy + 96
        0x08000290:    0783        ..      LSLS     r3,r0,#30
        0x08000292:    d012        ..      BEQ      0x80002ba ; __aeabi_memcpy + 48
        0x08000294:    780b        .x      LDRB     r3,[r1,#0]
        0x08000296:    1c49        I.      ADDS     r1,r1,#1
        0x08000298:    7003        .p      STRB     r3,[r0,#0]
        0x0800029a:    1c40        @.      ADDS     r0,r0,#1
        0x0800029c:    1e52        R.      SUBS     r2,r2,#1
        0x0800029e:    0783        ..      LSLS     r3,r0,#30
        0x080002a0:    d00b        ..      BEQ      0x80002ba ; __aeabi_memcpy + 48
        0x080002a2:    780b        .x      LDRB     r3,[r1,#0]
        0x080002a4:    1c49        I.      ADDS     r1,r1,#1
        0x080002a6:    7003        .p      STRB     r3,[r0,#0]
        0x080002a8:    1c40        @.      ADDS     r0,r0,#1
        0x080002aa:    1e52        R.      SUBS     r2,r2,#1
        0x080002ac:    0783        ..      LSLS     r3,r0,#30
        0x080002ae:    d004        ..      BEQ      0x80002ba ; __aeabi_memcpy + 48
        0x080002b0:    780b        .x      LDRB     r3,[r1,#0]
        0x080002b2:    1c49        I.      ADDS     r1,r1,#1
        0x080002b4:    7003        .p      STRB     r3,[r0,#0]
        0x080002b6:    1c40        @.      ADDS     r0,r0,#1
        0x080002b8:    1e52        R.      SUBS     r2,r2,#1
        0x080002ba:    078b        ..      LSLS     r3,r1,#30
        0x080002bc:    0f9b        ..      LSRS     r3,r3,#30
        0x080002be:    d005        ..      BEQ      0x80002cc ; __aeabi_memcpy + 66
        0x080002c0:    1ac9        ..      SUBS     r1,r1,r3
        0x080002c2:    00df        ..      LSLS     r7,r3,#3
        0x080002c4:    2320         #      MOVS     r3,#0x20
        0x080002c6:    1bde        ..      SUBS     r6,r3,r7
        0x080002c8:    c908        ..      LDM      r1!,{r3}
        0x080002ca:    e00a        ..      B        0x80002e2 ; __aeabi_memcpy + 88
        0x080002cc:    f7ffff58    ..X.    BL       __aeabi_memcpy4 ; 0x8000180
        0x080002d0:    bdf8        ..      POP      {r3-r7,pc}
        0x080002d2:    461d        .F      MOV      r5,r3
        0x080002d4:    c908        ..      LDM      r1!,{r3}
        0x080002d6:    40fd        .@      LSRS     r5,r5,r7
        0x080002d8:    461c        .F      MOV      r4,r3
        0x080002da:    40b4        .@      LSLS     r4,r4,r6
        0x080002dc:    432c        ,C      ORRS     r4,r4,r5
        0x080002de:    c010        ..      STM      r0!,{r4}
        0x080002e0:    1f12        ..      SUBS     r2,r2,#4
        0x080002e2:    2a04        .*      CMP      r2,#4
        0x080002e4:    d2f5        ..      BCS      0x80002d2 ; __aeabi_memcpy + 72
        0x080002e6:    08f3        ..      LSRS     r3,r6,#3
        0x080002e8:    1ac9        ..      SUBS     r1,r1,r3
        0x080002ea:    1e52        R.      SUBS     r2,r2,#1
        0x080002ec:    d4f0        ..      BMI      0x80002d0 ; __aeabi_memcpy + 70
        0x080002ee:    780b        .x      LDRB     r3,[r1,#0]
        0x080002f0:    1c49        I.      ADDS     r1,r1,#1
        0x080002f2:    7003        .p      STRB     r3,[r0,#0]
        0x080002f4:    1c40        @.      ADDS     r0,r0,#1
        0x080002f6:    1e52        R.      SUBS     r2,r2,#1
        0x080002f8:    d4ea        ..      BMI      0x80002d0 ; __aeabi_memcpy + 70
        0x080002fa:    780b        .x      LDRB     r3,[r1,#0]
        0x080002fc:    1c49        I.      ADDS     r1,r1,#1
        0x080002fe:    7003        .p      STRB     r3,[r0,#0]
        0x08000300:    1c40        @.      ADDS     r0,r0,#1
        0x08000302:    2a01        .*      CMP      r2,#1
        0x08000304:    d4e4        ..      BMI      0x80002d0 ; __aeabi_memcpy + 70
        0x08000306:    7809        .x      LDRB     r1,[r1,#0]
        0x08000308:    7001        .p      STRB     r1,[r0,#0]
        0x0800030a:    bdf8        ..      POP      {r3-r7,pc}
    .text
    __aeabi_memset
        0x0800030c:    b2d2        ..      UXTB     r2,r2
        0x0800030e:    b510        ..      PUSH     {r4,lr}
        0x08000310:    0213        ..      LSLS     r3,r2,#8
        0x08000312:    189a        ..      ADDS     r2,r3,r2
        0x08000314:    0413        ..      LSLS     r3,r2,#16
        0x08000316:    189a        ..      ADDS     r2,r3,r2
        0x08000318:    f000f80e    ....    BL       _memset ; 0x8000338
        0x0800031c:    bd10        ..      POP      {r4,pc}
    .text
    _memset_w
        0x0800031e:    e001        ..      B        0x8000324 ; _memset_w + 6
        0x08000320:    c004        ..      STM      r0!,{r2}
        0x08000322:    1f09        ..      SUBS     r1,r1,#4
        0x08000324:    2904        .)      CMP      r1,#4
        0x08000326:    d2fb        ..      BCS      0x8000320 ; _memset_w + 2
        0x08000328:    078b        ..      LSLS     r3,r1,#30
        0x0800032a:    d501        ..      BPL      0x8000330 ; _memset_w + 18
        0x0800032c:    8002        ..      STRH     r2,[r0,#0]
        0x0800032e:    1c80        ..      ADDS     r0,r0,#2
        0x08000330:    07c9        ..      LSLS     r1,r1,#31
        0x08000332:    d000        ..      BEQ      0x8000336 ; _memset_w + 24
        0x08000334:    7002        .p      STRB     r2,[r0,#0]
        0x08000336:    4770        pG      BX       lr
    _memset
        0x08000338:    2900        .)      CMP      r1,#0
        0x0800033a:    d00b        ..      BEQ      0x8000354 ; _memset + 28
        0x0800033c:    07c3        ..      LSLS     r3,r0,#31
        0x0800033e:    d002        ..      BEQ      0x8000346 ; _memset + 14
        0x08000340:    7002        .p      STRB     r2,[r0,#0]
        0x08000342:    1c40        @.      ADDS     r0,r0,#1
        0x08000344:    1e49        I.      SUBS     r1,r1,#1
        0x08000346:    2902        .)      CMP      r1,#2
        0x08000348:    d304        ..      BCC      0x8000354 ; _memset + 28
        0x0800034a:    0783        ..      LSLS     r3,r0,#30
        0x0800034c:    d502        ..      BPL      0x8000354 ; _memset + 28
        0x0800034e:    8002        ..      STRH     r2,[r0,#0]
        0x08000350:    1c80        ..      ADDS     r0,r0,#2
        0x08000352:    1e89        ..      SUBS     r1,r1,#2
        0x08000354:    e7e3        ..      B        _memset_w ; 0x800031e
    __aeabi_memclr
    __rt_memclr
        0x08000356:    2200        ."      MOVS     r2,#0
        0x08000358:    e7ee        ..      B        _memset ; 0x8000338
    __aeabi_memclr4
    __aeabi_memclr8
    __rt_memclr_w
        0x0800035a:    2200        ."      MOVS     r2,#0
        0x0800035c:    e7df        ..      B        _memset_w ; 0x800031e
        0x0800035e:    0000        ..      MOVS     r0,r0
    .text
    __aeabi_uidiv
    __aeabi_uidivmod
        0x08000360:    2200        ."      MOVS     r2,#0
        0x08000362:    0903        ..      LSRS     r3,r0,#4
        0x08000364:    428b        .B      CMP      r3,r1
        0x08000366:    d32c        ,.      BCC      0x80003c2 ; __aeabi_idiv + 78
        0x08000368:    0a03        ..      LSRS     r3,r0,#8
        0x0800036a:    428b        .B      CMP      r3,r1
        0x0800036c:    d311        ..      BCC      0x8000392 ; __aeabi_idiv + 30
        0x0800036e:    2300        .#      MOVS     r3,#0
        0x08000370:    469c        .F      MOV      r12,r3
        0x08000372:    e04e        N.      B        0x8000412 ; __aeabi_idiv + 158
    __aeabi_idiv
    __aeabi_idivmod
        0x08000374:    4603        .F      MOV      r3,r0
        0x08000376:    430b        .C      ORRS     r3,r3,r1
        0x08000378:    d43c        <.      BMI      0x80003f4 ; __aeabi_idiv + 128
        0x0800037a:    2200        ."      MOVS     r2,#0
        0x0800037c:    0843        C.      LSRS     r3,r0,#1
        0x0800037e:    428b        .B      CMP      r3,r1
        0x08000380:    d331        1.      BCC      0x80003e6 ; __aeabi_idiv + 114
        0x08000382:    0903        ..      LSRS     r3,r0,#4
        0x08000384:    428b        .B      CMP      r3,r1
        0x08000386:    d31c        ..      BCC      0x80003c2 ; __aeabi_idiv + 78
        0x08000388:    0a03        ..      LSRS     r3,r0,#8
        0x0800038a:    428b        .B      CMP      r3,r1
        0x0800038c:    d301        ..      BCC      0x8000392 ; __aeabi_idiv + 30
        0x0800038e:    4694        .F      MOV      r12,r2
        0x08000390:    e03f        ?.      B        0x8000412 ; __aeabi_idiv + 158
        0x08000392:    09c3        ..      LSRS     r3,r0,#7
        0x08000394:    428b        .B      CMP      r3,r1
        0x08000396:    d301        ..      BCC      0x800039c ; __aeabi_idiv + 40
        0x08000398:    01cb        ..      LSLS     r3,r1,#7
        0x0800039a:    1ac0        ..      SUBS     r0,r0,r3
        0x0800039c:    4152        RA      ADCS     r2,r2,r2
        0x0800039e:    0983        ..      LSRS     r3,r0,#6
        0x080003a0:    428b        .B      CMP      r3,r1
        0x080003a2:    d301        ..      BCC      0x80003a8 ; __aeabi_idiv + 52
        0x080003a4:    018b        ..      LSLS     r3,r1,#6
        0x080003a6:    1ac0        ..      SUBS     r0,r0,r3
        0x080003a8:    4152        RA      ADCS     r2,r2,r2
        0x080003aa:    0943        C.      LSRS     r3,r0,#5
        0x080003ac:    428b        .B      CMP      r3,r1
        0x080003ae:    d301        ..      BCC      0x80003b4 ; __aeabi_idiv + 64
        0x080003b0:    014b        K.      LSLS     r3,r1,#5
        0x080003b2:    1ac0        ..      SUBS     r0,r0,r3
        0x080003b4:    4152        RA      ADCS     r2,r2,r2
        0x080003b6:    0903        ..      LSRS     r3,r0,#4
        0x080003b8:    428b        .B      CMP      r3,r1
        0x080003ba:    d301        ..      BCC      0x80003c0 ; __aeabi_idiv + 76
        0x080003bc:    010b        ..      LSLS     r3,r1,#4
        0x080003be:    1ac0        ..      SUBS     r0,r0,r3
        0x080003c0:    4152        RA      ADCS     r2,r2,r2
        0x080003c2:    08c3        ..      LSRS     r3,r0,#3
        0x080003c4:    428b        .B      CMP      r3,r1
        0x080003c6:    d301        ..      BCC      0x80003cc ; __aeabi_idiv + 88
        0x080003c8:    00cb        ..      LSLS     r3,r1,#3
        0x080003ca:    1ac0        ..      SUBS     r0,r0,r3
        0x080003cc:    4152        RA      ADCS     r2,r2,r2
        0x080003ce:    0883        ..      LSRS     r3,r0,#2
        0x080003d0:    428b        .B      CMP      r3,r1
        0x080003d2:    d301        ..      BCC      0x80003d8 ; __aeabi_idiv + 100
        0x080003d4:    008b        ..      LSLS     r3,r1,#2
        0x080003d6:    1ac0        ..      SUBS     r0,r0,r3
        0x080003d8:    4152        RA      ADCS     r2,r2,r2
        0x080003da:    0843        C.      LSRS     r3,r0,#1
        0x080003dc:    428b        .B      CMP      r3,r1
        0x080003de:    d301        ..      BCC      0x80003e4 ; __aeabi_idiv + 112
        0x080003e0:    004b        K.      LSLS     r3,r1,#1
        0x080003e2:    1ac0        ..      SUBS     r0,r0,r3
        0x080003e4:    4152        RA      ADCS     r2,r2,r2
        0x080003e6:    1a41        A.      SUBS     r1,r0,r1
        0x080003e8:    d200        ..      BCS      0x80003ec ; __aeabi_idiv + 120
        0x080003ea:    4601        .F      MOV      r1,r0
        0x080003ec:    4152        RA      ADCS     r2,r2,r2
        0x080003ee:    4610        .F      MOV      r0,r2
        0x080003f0:    4770        pG      BX       lr
        0x080003f2:    e05d        ].      B        0x80004b0 ; __aeabi_idiv + 316
        0x080003f4:    0fca        ..      LSRS     r2,r1,#31
        0x080003f6:    d000        ..      BEQ      0x80003fa ; __aeabi_idiv + 134
        0x080003f8:    4249        IB      RSBS     r1,r1,#0
        0x080003fa:    1003        ..      ASRS     r3,r0,#32
        0x080003fc:    d300        ..      BCC      0x8000400 ; __aeabi_idiv + 140
        0x080003fe:    4240        @B      RSBS     r0,r0,#0
        0x08000400:    4053        S@      EORS     r3,r3,r2
        0x08000402:    469c        .F      MOV      r12,r3
        0x08000404:    2200        ."      MOVS     r2,#0
        0x08000406:    0903        ..      LSRS     r3,r0,#4
        0x08000408:    428b        .B      CMP      r3,r1
        0x0800040a:    d32d        -.      BCC      0x8000468 ; __aeabi_idiv + 244
        0x0800040c:    0a03        ..      LSRS     r3,r0,#8
        0x0800040e:    428b        .B      CMP      r3,r1
        0x08000410:    d312        ..      BCC      0x8000438 ; __aeabi_idiv + 196
        0x08000412:    0189        ..      LSLS     r1,r1,#6
        0x08000414:    22fc        ."      MOVS     r2,#0xfc
        0x08000416:    ba12        ..      REV      r2,r2
        0x08000418:    0a03        ..      LSRS     r3,r0,#8
        0x0800041a:    428b        .B      CMP      r3,r1
        0x0800041c:    d30c        ..      BCC      0x8000438 ; __aeabi_idiv + 196
        0x0800041e:    0189        ..      LSLS     r1,r1,#6
        0x08000420:    1192        ..      ASRS     r2,r2,#6
        0x08000422:    428b        .B      CMP      r3,r1
        0x08000424:    d308        ..      BCC      0x8000438 ; __aeabi_idiv + 196
        0x08000426:    0189        ..      LSLS     r1,r1,#6
        0x08000428:    1192        ..      ASRS     r2,r2,#6
        0x0800042a:    428b        .B      CMP      r3,r1
        0x0800042c:    d304        ..      BCC      0x8000438 ; __aeabi_idiv + 196
        0x0800042e:    0189        ..      LSLS     r1,r1,#6
        0x08000430:    d03a        :.      BEQ      0x80004a8 ; __aeabi_idiv + 308
        0x08000432:    1192        ..      ASRS     r2,r2,#6
        0x08000434:    e000        ..      B        0x8000438 ; __aeabi_idiv + 196
        0x08000436:    0989        ..      LSRS     r1,r1,#6
        0x08000438:    09c3        ..      LSRS     r3,r0,#7
        0x0800043a:    428b        .B      CMP      r3,r1
        0x0800043c:    d301        ..      BCC      0x8000442 ; __aeabi_idiv + 206
        0x0800043e:    01cb        ..      LSLS     r3,r1,#7
        0x08000440:    1ac0        ..      SUBS     r0,r0,r3
        0x08000442:    4152        RA      ADCS     r2,r2,r2
        0x08000444:    0983        ..      LSRS     r3,r0,#6
        0x08000446:    428b        .B      CMP      r3,r1
        0x08000448:    d301        ..      BCC      0x800044e ; __aeabi_idiv + 218
        0x0800044a:    018b        ..      LSLS     r3,r1,#6
        0x0800044c:    1ac0        ..      SUBS     r0,r0,r3
        0x0800044e:    4152        RA      ADCS     r2,r2,r2
        0x08000450:    0943        C.      LSRS     r3,r0,#5
        0x08000452:    428b        .B      CMP      r3,r1
        0x08000454:    d301        ..      BCC      0x800045a ; __aeabi_idiv + 230
        0x08000456:    014b        K.      LSLS     r3,r1,#5
        0x08000458:    1ac0        ..      SUBS     r0,r0,r3
        0x0800045a:    4152        RA      ADCS     r2,r2,r2
        0x0800045c:    0903        ..      LSRS     r3,r0,#4
        0x0800045e:    428b        .B      CMP      r3,r1
        0x08000460:    d301        ..      BCC      0x8000466 ; __aeabi_idiv + 242
        0x08000462:    010b        ..      LSLS     r3,r1,#4
        0x08000464:    1ac0        ..      SUBS     r0,r0,r3
        0x08000466:    4152        RA      ADCS     r2,r2,r2
        0x08000468:    08c3        ..      LSRS     r3,r0,#3
        0x0800046a:    428b        .B      CMP      r3,r1
        0x0800046c:    d301        ..      BCC      0x8000472 ; __aeabi_idiv + 254
        0x0800046e:    00cb        ..      LSLS     r3,r1,#3
        0x08000470:    1ac0        ..      SUBS     r0,r0,r3
        0x08000472:    4152        RA      ADCS     r2,r2,r2
        0x08000474:    0883        ..      LSRS     r3,r0,#2
        0x08000476:    428b        .B      CMP      r3,r1
        0x08000478:    d301        ..      BCC      0x800047e ; __aeabi_idiv + 266
        0x0800047a:    008b        ..      LSLS     r3,r1,#2
        0x0800047c:    1ac0        ..      SUBS     r0,r0,r3
        0x0800047e:    4152        RA      ADCS     r2,r2,r2
        0x08000480:    d2d9        ..      BCS      0x8000436 ; __aeabi_idiv + 194
        0x08000482:    0843        C.      LSRS     r3,r0,#1
        0x08000484:    428b        .B      CMP      r3,r1
        0x08000486:    d301        ..      BCC      0x800048c ; __aeabi_idiv + 280
        0x08000488:    004b        K.      LSLS     r3,r1,#1
        0x0800048a:    1ac0        ..      SUBS     r0,r0,r3
        0x0800048c:    4152        RA      ADCS     r2,r2,r2
        0x0800048e:    1a41        A.      SUBS     r1,r0,r1
        0x08000490:    d200        ..      BCS      0x8000494 ; __aeabi_idiv + 288
        0x08000492:    4601        .F      MOV      r1,r0
        0x08000494:    4152        RA      ADCS     r2,r2,r2
        0x08000496:    4610        .F      MOV      r0,r2
        0x08000498:    4663        cF      MOV      r3,r12
        0x0800049a:    105b        [.      ASRS     r3,r3,#1
        0x0800049c:    d301        ..      BCC      0x80004a2 ; __aeabi_idiv + 302
        0x0800049e:    4240        @B      RSBS     r0,r0,#0
        0x080004a0:    2b00        .+      CMP      r3,#0
        0x080004a2:    d500        ..      BPL      0x80004a6 ; __aeabi_idiv + 306
        0x080004a4:    4249        IB      RSBS     r1,r1,#0
        0x080004a6:    4770        pG      BX       lr
        0x080004a8:    4663        cF      MOV      r3,r12
        0x080004aa:    105b        [.      ASRS     r3,r3,#1
        0x080004ac:    d300        ..      BCC      0x80004b0 ; __aeabi_idiv + 316
        0x080004ae:    4240        @B      RSBS     r0,r0,#0
        0x080004b0:    b501        ..      PUSH     {r0,lr}
        0x080004b2:    4905        .I      LDR      r1,[pc,#20] ; [0x80004c8] = 0x7fffffff
        0x080004b4:    2800        .(      CMP      r0,#0
        0x080004b6:    dc02        ..      BGT      0x80004be ; __aeabi_idiv + 330
        0x080004b8:    1c49        I.      ADDS     r1,r1,#1
        0x080004ba:    4008        .@      ANDS     r0,r0,r1
        0x080004bc:    e000        ..      B        0x80004c0 ; __aeabi_idiv + 332
        0x080004be:    4608        .F      MOV      r0,r1
        0x080004c0:    46c0        .F      MOV      r8,r8
        0x080004c2:    46c0        .F      MOV      r8,r8
        0x080004c4:    bd02        ..      POP      {r1,pc}
        0x080004c6:    bf00        ..      NOP      
    $d
        0x080004c8:    7fffffff    ....    DCD    2147483647
    $t
    HardFault_Handler
        0x080004cc:    e7fe        ..      B        HardFault_Handler ; 0x80004cc
    NMI_Handler
        0x080004ce:    e7fe        ..      B        NMI_Handler ; 0x80004ce
    PendSV_Handler
        0x080004d0:    4770        pG      BX       lr
    SVC_Handler
        0x080004d2:    4770        pG      BX       lr
    SysTick_Handler
        0x080004d4:    4802        .H      LDR      r0,[pc,#8] ; [0x80004e0] = 0x20000068
        0x080004d6:    6801        .h      LDR      r1,[r0,#0]
        0x080004d8:    1c49        I.      ADDS     r1,r1,#1
        0x080004da:    6001        .`      STR      r1,[r0,#0]
        0x080004dc:    4770        pG      BX       lr
        0x080004de:    46c0        .F      MOV      r8,r8
    $d
    __arm_cp.5_0
        0x080004e0:    20000068    h..     DCD    536871016
    $t
    SystemInit
        0x080004e4:    2001        .       MOVS     r0,#1
        0x080004e6:    06c0        ..      LSLS     r0,r0,#27
        0x080004e8:    4901        .I      LDR      r1,[pc,#4] ; [0x80004f0] = 0xe000ed08
        0x080004ea:    6008        .`      STR      r0,[r1,#0]
        0x080004ec:    4770        pG      BX       lr
        0x080004ee:    46c0        .F      MOV      r8,r8
    $d
    __arm_cp.6_0
        0x080004f0:    e000ed08    ....    DCD    3758157064
    $t
    core_bench_list
        0x080004f4:    b5f0        ..      PUSH     {r4-r7,lr}
        0x080004f6:    b093        ..      SUB      sp,sp,#0x4c
        0x080004f8:    4603        .F      MOV      r3,r0
        0x080004fa:    2004        .       MOVS     r0,#4
        0x080004fc:    5e18        .^      LDRSH    r0,[r3,r0]
        0x080004fe:    6a5c        \j      LDR      r4,[r3,#0x24]
        0x08000500:    9011        ..      STR      r0,[sp,#0x44]
        0x08000502:    2801        .(      CMP      r0,#1
        0x08000504:    9310        ..      STR      r3,[sp,#0x40]
        0x08000506:    da00        ..      BGE      0x800050a ; core_bench_list + 22
        0x08000508:    e0a5        ..      B        0x8000656 ; core_bench_list + 354
        0x0800050a:    2300        .#      MOVS     r3,#0
        0x0800050c:    461a        .F      MOV      r2,r3
        0x0800050e:    9312        ..      STR      r3,[sp,#0x48]
        0x08000510:    930f        ..      STR      r3,[sp,#0x3c]
        0x08000512:    910e        ..      STR      r1,[sp,#0x38]
        0x08000514:    9105        ..      STR      r1,[sp,#0x14]
        0x08000516:    4621        !F      MOV      r1,r4
        0x08000518:    e007        ..      B        0x800052a ; core_bench_list + 54
        0x0800051a:    188a        ..      ADDS     r2,r1,r2
        0x0800051c:    1c5b        [.      ADDS     r3,r3,#1
        0x0800051e:    b218        ..      SXTH     r0,r3
        0x08000520:    9911        ..      LDR      r1,[sp,#0x44]
        0x08000522:    4288        .B      CMP      r0,r1
        0x08000524:    4621        !F      MOV      r1,r4
        0x08000526:    db00        ..      BLT      0x800052a ; core_bench_list + 54
        0x08000528:    e089        ..      B        0x800063e ; core_bench_list + 330
        0x0800052a:    9805        ..      LDR      r0,[sp,#0x14]
        0x0800052c:    b207        ..      SXTH     r7,r0
        0x0800052e:    2f00        ./      CMP      r7,#0
        0x08000530:    460d        .F      MOV      r5,r1
        0x08000532:    460c        .F      MOV      r4,r1
        0x08000534:    d420         .      BMI      0x8000578 ; core_bench_list + 132
        0x08000536:    4628        (F      MOV      r0,r5
        0x08000538:    9905        ..      LDR      r1,[sp,#0x14]
        0x0800053a:    b289        ..      UXTH     r1,r1
        0x0800053c:    6844        Dh      LDR      r4,[r0,#4]
        0x0800053e:    8864        d.      LDRH     r4,[r4,#2]
        0x08000540:    428c        .B      CMP      r4,r1
        0x08000542:    d038        8.      BEQ      0x80005b6 ; core_bench_list + 194
        0x08000544:    6800        .h      LDR      r0,[r0,#0]
        0x08000546:    2600        .&      MOVS     r6,#0
        0x08000548:    2800        .(      CMP      r0,#0
        0x0800054a:    d035        5.      BEQ      0x80005b8 ; core_bench_list + 196
        0x0800054c:    6844        Dh      LDR      r4,[r0,#4]
        0x0800054e:    8864        d.      LDRH     r4,[r4,#2]
        0x08000550:    428c        .B      CMP      r4,r1
        0x08000552:    d030        0.      BEQ      0x80005b6 ; core_bench_list + 194
        0x08000554:    6800        .h      LDR      r0,[r0,#0]
        0x08000556:    2800        .(      CMP      r0,#0
        0x08000558:    d02e        ..      BEQ      0x80005b8 ; core_bench_list + 196
        0x0800055a:    6844        Dh      LDR      r4,[r0,#4]
        0x0800055c:    8864        d.      LDRH     r4,[r4,#2]
        0x0800055e:    428c        .B      CMP      r4,r1
        0x08000560:    d029        ).      BEQ      0x80005b6 ; core_bench_list + 194
        0x08000562:    6800        .h      LDR      r0,[r0,#0]
        0x08000564:    2800        .(      CMP      r0,#0
        0x08000566:    d027        '.      BEQ      0x80005b8 ; core_bench_list + 196
        0x08000568:    6844        Dh      LDR      r4,[r0,#4]
        0x0800056a:    8864        d.      LDRH     r4,[r4,#2]
        0x0800056c:    428c        .B      CMP      r4,r1
        0x0800056e:    d022        ".      BEQ      0x80005b6 ; core_bench_list + 194
        0x08000570:    6800        .h      LDR      r0,[r0,#0]
        0x08000572:    2800        .(      CMP      r0,#0
        0x08000574:    d1e0        ..      BNE      0x8000538 ; core_bench_list + 68
        0x08000576:    e01f        ..      B        0x80005b8 ; core_bench_list + 196
        0x08000578:    b2d9        ..      UXTB     r1,r3
        0x0800057a:    6860        `h      LDR      r0,[r4,#4]
        0x0800057c:    7800        .x      LDRB     r0,[r0,#0]
        0x0800057e:    4048        H@      EORS     r0,r0,r1
        0x08000580:    d05b        [.      BEQ      0x800063a ; core_bench_list + 326
        0x08000582:    6820         h      LDR      r0,[r4,#0]
        0x08000584:    2600        .&      MOVS     r6,#0
        0x08000586:    2800        .(      CMP      r0,#0
        0x08000588:    d016        ..      BEQ      0x80005b8 ; core_bench_list + 196
        0x0800058a:    6844        Dh      LDR      r4,[r0,#4]
        0x0800058c:    7824        $x      LDRB     r4,[r4,#0]
        0x0800058e:    404c        L@      EORS     r4,r4,r1
        0x08000590:    d011        ..      BEQ      0x80005b6 ; core_bench_list + 194
        0x08000592:    6800        .h      LDR      r0,[r0,#0]
        0x08000594:    2800        .(      CMP      r0,#0
        0x08000596:    d00f        ..      BEQ      0x80005b8 ; core_bench_list + 196
        0x08000598:    6844        Dh      LDR      r4,[r0,#4]
        0x0800059a:    7824        $x      LDRB     r4,[r4,#0]
        0x0800059c:    404c        L@      EORS     r4,r4,r1
        0x0800059e:    d00a        ..      BEQ      0x80005b6 ; core_bench_list + 194
        0x080005a0:    6800        .h      LDR      r0,[r0,#0]
        0x080005a2:    2800        .(      CMP      r0,#0
        0x080005a4:    d008        ..      BEQ      0x80005b8 ; core_bench_list + 196
        0x080005a6:    6844        Dh      LDR      r4,[r0,#4]
        0x080005a8:    7824        $x      LDRB     r4,[r4,#0]
        0x080005aa:    404c        L@      EORS     r4,r4,r1
        0x080005ac:    d003        ..      BEQ      0x80005b6 ; core_bench_list + 194
        0x080005ae:    6804        .h      LDR      r4,[r0,#0]
        0x080005b0:    2c00        .,      CMP      r4,#0
        0x080005b2:    d1e1        ..      BNE      0x8000578 ; core_bench_list + 132
        0x080005b4:    e000        ..      B        0x80005b8 ; core_bench_list + 196
        0x080005b6:    4606        .F      MOV      r6,r0
        0x080005b8:    2400        .$      MOVS     r4,#0
        0x080005ba:    6828        (h      LDR      r0,[r5,#0]
        0x080005bc:    602c        ,`      STR      r4,[r5,#0]
        0x080005be:    2800        .(      CMP      r0,#0
        0x080005c0:    d021        !.      BEQ      0x8000606 ; core_bench_list + 274
        0x080005c2:    6801        .h      LDR      r1,[r0,#0]
        0x080005c4:    6005        .`      STR      r5,[r0,#0]
        0x080005c6:    2900        .)      CMP      r1,#0
        0x080005c8:    d02f        /.      BEQ      0x800062a ; core_bench_list + 310
        0x080005ca:    680c        .h      LDR      r4,[r1,#0]
        0x080005cc:    6008        .`      STR      r0,[r1,#0]
        0x080005ce:    2c00        .,      CMP      r4,#0
        0x080005d0:    d02f        /.      BEQ      0x8000632 ; core_bench_list + 318
        0x080005d2:    6825        %h      LDR      r5,[r4,#0]
        0x080005d4:    6021        !`      STR      r1,[r4,#0]
        0x080005d6:    2d00        .-      CMP      r5,#0
        0x080005d8:    d1ef        ..      BNE      0x80005ba ; core_bench_list + 198
        0x080005da:    2e00        ..      CMP      r6,#0
        0x080005dc:    d016        ..      BEQ      0x800060c ; core_bench_list + 280
        0x080005de:    ce03        ..      LDM      r6!,{r0,r1}
        0x080005e0:    8809        ..      LDRH     r1,[r1,#0]
        0x080005e2:    0a4d        M.      LSRS     r5,r1,#9
        0x080005e4:    400d        .@      ANDS     r5,r5,r1
        0x080005e6:    2101        .!      MOVS     r1,#1
        0x080005e8:    4029        )@      ANDS     r1,r1,r5
        0x080005ea:    9d12        ..      LDR      r5,[sp,#0x48]
        0x080005ec:    1c6d        m.      ADDS     r5,r5,#1
        0x080005ee:    9512        ..      STR      r5,[sp,#0x48]
        0x080005f0:    3e08        .>      SUBS     r6,r6,#8
        0x080005f2:    2800        .(      CMP      r0,#0
        0x080005f4:    d004        ..      BEQ      0x8000600 ; core_bench_list + 268
        0x080005f6:    6805        .h      LDR      r5,[r0,#0]
        0x080005f8:    6035        5`      STR      r5,[r6,#0]
        0x080005fa:    6825        %h      LDR      r5,[r4,#0]
        0x080005fc:    6005        .`      STR      r5,[r0,#0]
        0x080005fe:    6020         `      STR      r0,[r4,#0]
        0x08000600:    2f00        ./      CMP      r7,#0
        0x08000602:    db8a        ..      BLT      0x800051a ; core_bench_list + 38
        0x08000604:    e00d        ..      B        0x8000622 ; core_bench_list + 302
        0x08000606:    462c        ,F      MOV      r4,r5
        0x08000608:    2e00        ..      CMP      r6,#0
        0x0800060a:    d1e8        ..      BNE      0x80005de ; core_bench_list + 234
        0x0800060c:    980f        ..      LDR      r0,[sp,#0x3c]
        0x0800060e:    1c40        @.      ADDS     r0,r0,#1
        0x08000610:    900f        ..      STR      r0,[sp,#0x3c]
        0x08000612:    6820         h      LDR      r0,[r4,#0]
        0x08000614:    6840        @h      LDR      r0,[r0,#4]
        0x08000616:    8800        ..      LDRH     r0,[r0,#0]
        0x08000618:    05c0        ..      LSLS     r0,r0,#23
        0x0800061a:    0fc1        ..      LSRS     r1,r0,#31
        0x0800061c:    2f00        ./      CMP      r7,#0
        0x0800061e:    da00        ..      BGE      0x8000622 ; core_bench_list + 302
        0x08000620:    e77b        {.      B        0x800051a ; core_bench_list + 38
        0x08000622:    9805        ..      LDR      r0,[sp,#0x14]
        0x08000624:    1c40        @.      ADDS     r0,r0,#1
        0x08000626:    9005        ..      STR      r0,[sp,#0x14]
        0x08000628:    e777        w.      B        0x800051a ; core_bench_list + 38
        0x0800062a:    4604        .F      MOV      r4,r0
        0x0800062c:    2e00        ..      CMP      r6,#0
        0x0800062e:    d1d6        ..      BNE      0x80005de ; core_bench_list + 234
        0x08000630:    e7ec        ..      B        0x800060c ; core_bench_list + 280
        0x08000632:    460c        .F      MOV      r4,r1
        0x08000634:    2e00        ..      CMP      r6,#0
        0x08000636:    d1d2        ..      BNE      0x80005de ; core_bench_list + 234
        0x08000638:    e7e8        ..      B        0x800060c ; core_bench_list + 280
        0x0800063a:    4626        &F      MOV      r6,r4
        0x0800063c:    e7bc        ..      B        0x80005b8 ; core_bench_list + 196
        0x0800063e:    9812        ..      LDR      r0,[sp,#0x48]
        0x08000640:    0080        ..      LSLS     r0,r0,#2
        0x08000642:    990f        ..      LDR      r1,[sp,#0x3c]
        0x08000644:    1a40        @.      SUBS     r0,r0,r1
        0x08000646:    1880        ..      ADDS     r0,r0,r2
        0x08000648:    9004        ..      STR      r0,[sp,#0x10]
        0x0800064a:    9811        ..      LDR      r0,[sp,#0x44]
        0x0800064c:    1e40        @.      SUBS     r0,r0,#1
        0x0800064e:    b2c0        ..      UXTB     r0,r0
        0x08000650:    9b10        ..      LDR      r3,[sp,#0x40]
        0x08000652:    990e        ..      LDR      r1,[sp,#0x38]
        0x08000654:    e002        ..      B        0x800065c ; core_bench_list + 360
        0x08000656:    2000        .       MOVS     r0,#0
        0x08000658:    9105        ..      STR      r1,[sp,#0x14]
        0x0800065a:    9004        ..      STR      r0,[sp,#0x10]
        0x0800065c:    2901        .)      CMP      r1,#1
        0x0800065e:    9003        ..      STR      r0,[sp,#0xc]
        0x08000660:    da00        ..      BGE      0x8000664 ; core_bench_list + 368
        0x08000662:    e10f        ..      B        0x8000884 ; core_bench_list + 912
        0x08000664:    2601        .&      MOVS     r6,#1
        0x08000666:    e007        ..      B        0x8000678 ; core_bench_list + 388
        0x08000668:    2000        .       MOVS     r0,#0
        0x0800066a:    6038        8`      STR      r0,[r7,#0]
        0x0800066c:    0076        v.      LSLS     r6,r6,#1
        0x0800066e:    9806        ..      LDR      r0,[sp,#0x18]
        0x08000670:    2800        .(      CMP      r0,#0
        0x08000672:    462c        ,F      MOV      r4,r5
        0x08000674:    d100        ..      BNE      0x8000678 ; core_bench_list + 388
        0x08000676:    e106        ..      B        0x8000886 ; core_bench_list + 914
        0x08000678:    1e70        p.      SUBS     r0,r6,#1
        0x0800067a:    9009        ..      STR      r0,[sp,#0x24]
        0x0800067c:    2500        .%      MOVS     r5,#0
        0x0800067e:    9508        ..      STR      r5,[sp,#0x20]
        0x08000680:    462f        /F      MOV      r7,r5
        0x08000682:    9507        ..      STR      r5,[sp,#0x1c]
        0x08000684:    960a        ..      STR      r6,[sp,#0x28]
        0x08000686:    e001        ..      B        0x800068c ; core_bench_list + 408
        0x08000688:    2c00        .,      CMP      r4,#0
        0x0800068a:    d0ed        ..      BEQ      0x8000668 ; core_bench_list + 372
        0x0800068c:    4621        !F      MOV      r1,r4
        0x0800068e:    9808        ..      LDR      r0,[sp,#0x20]
        0x08000690:    9006        ..      STR      r0,[sp,#0x18]
        0x08000692:    1c40        @.      ADDS     r0,r0,#1
        0x08000694:    9008        ..      STR      r0,[sp,#0x20]
        0x08000696:    9807        ..      LDR      r0,[sp,#0x1c]
        0x08000698:    6824        $h      LDR      r4,[r4,#0]
        0x0800069a:    2c00        .,      CMP      r4,#0
        0x0800069c:    d00c        ..      BEQ      0x80006b8 ; core_bench_list + 452
        0x0800069e:    460a        .F      MOV      r2,r1
        0x080006a0:    9909        ..      LDR      r1,[sp,#0x24]
        0x080006a2:    4281        .B      CMP      r1,r0
        0x080006a4:    d00a        ..      BEQ      0x80006bc ; core_bench_list + 456
        0x080006a6:    6824        $h      LDR      r4,[r4,#0]
        0x080006a8:    2c00        .,      CMP      r4,#0
        0x080006aa:    4611        .F      MOV      r1,r2
        0x080006ac:    d009        ..      BEQ      0x80006c2 ; core_bench_list + 462
        0x080006ae:    1c80        ..      ADDS     r0,r0,#2
        0x080006b0:    4286        .B      CMP      r6,r0
        0x080006b2:    d1f1        ..      BNE      0x8000698 ; core_bench_list + 420
        0x080006b4:    4630        0F      MOV      r0,r6
        0x080006b6:    e006        ..      B        0x80006c6 ; core_bench_list + 466
        0x080006b8:    1c40        @.      ADDS     r0,r0,#1
        0x080006ba:    e003        ..      B        0x80006c4 ; core_bench_list + 464
        0x080006bc:    4630        0F      MOV      r0,r6
        0x080006be:    4611        .F      MOV      r1,r2
        0x080006c0:    e001        ..      B        0x80006c6 ; core_bench_list + 466
        0x080006c2:    1c80        ..      ADDS     r0,r0,#2
        0x080006c4:    2400        .$      MOVS     r4,#0
        0x080006c6:    9611        ..      STR      r6,[sp,#0x44]
        0x080006c8:    e003        ..      B        0x80006d2 ; core_bench_list + 478
        0x080006ca:    4615        .F      MOV      r5,r2
        0x080006cc:    4604        .F      MOV      r4,r0
        0x080006ce:    4617        .F      MOV      r7,r2
        0x080006d0:    9812        ..      LDR      r0,[sp,#0x48]
        0x080006d2:    950b        ..      STR      r5,[sp,#0x2c]
        0x080006d4:    2800        .(      CMP      r0,#0
        0x080006d6:    dc10        ..      BGT      0x80006fa ; core_bench_list + 518
        0x080006d8:    9a11        ..      LDR      r2,[sp,#0x44]
        0x080006da:    2a01        .*      CMP      r2,#1
        0x080006dc:    dbd4        ..      BLT      0x8000688 ; core_bench_list + 404
        0x080006de:    2c00        .,      CMP      r4,#0
        0x080006e0:    d0d2        ..      BEQ      0x8000688 ; core_bench_list + 404
        0x080006e2:    2800        .(      CMP      r0,#0
        0x080006e4:    d109        ..      BNE      0x80006fa ; core_bench_list + 518
        0x080006e6:    9811        ..      LDR      r0,[sp,#0x44]
        0x080006e8:    1e40        @.      SUBS     r0,r0,#1
        0x080006ea:    9011        ..      STR      r0,[sp,#0x44]
        0x080006ec:    6820         h      LDR      r0,[r4,#0]
        0x080006ee:    2200        ."      MOVS     r2,#0
        0x080006f0:    9212        ..      STR      r2,[sp,#0x48]
        0x080006f2:    4622        "F      MOV      r2,r4
        0x080006f4:    2f00        ./      CMP      r7,#0
        0x080006f6:    d0e8        ..      BEQ      0x80006ca ; core_bench_list + 470
        0x080006f8:    e0bc        ..      B        0x8000874 ; core_bench_list + 896
        0x080006fa:    9a11        ..      LDR      r2,[sp,#0x44]
        0x080006fc:    2a00        .*      CMP      r2,#0
        0x080006fe:    d02c        ,.      BEQ      0x800075a ; core_bench_list + 614
        0x08000700:    2c00        .,      CMP      r4,#0
        0x08000702:    d02a        *.      BEQ      0x800075a ; core_bench_list + 614
        0x08000704:    9012        ..      STR      r0,[sp,#0x48]
        0x08000706:    970e        ..      STR      r7,[sp,#0x38]
        0x08000708:    6862        bh      LDR      r2,[r4,#4]
        0x0800070a:    684f        Oh      LDR      r7,[r1,#4]
        0x0800070c:    883e        >.      LDRH     r6,[r7,#0]
        0x0800070e:    0630        0.      LSLS     r0,r6,#24
        0x08000710:    940f        ..      STR      r4,[sp,#0x3c]
        0x08000712:    910d        ..      STR      r1,[sp,#0x34]
        0x08000714:    920c        ..      STR      r2,[sp,#0x30]
        0x08000716:    d428        (.      BMI      0x800076a ; core_bench_list + 630
        0x08000718:    2007        .       MOVS     r0,#7
        0x0800071a:    4030        0@      ANDS     r0,r0,r6
        0x0800071c:    0671        q.      LSLS     r1,r6,#25
        0x0800071e:    0f09        ..      LSRS     r1,r1,#28
        0x08000720:    2511        .%      MOVS     r5,#0x11
        0x08000722:    434d        MC      MULS     r5,r1,r5
        0x08000724:    2801        .(      CMP      r0,#1
        0x08000726:    d024        $.      BEQ      0x8000772 ; core_bench_list + 638
        0x08000728:    2800        .(      CMP      r0,#0
        0x0800072a:    4634        4F      MOV      r4,r6
        0x0800072c:    d134        4.      BNE      0x8000798 ; core_bench_list + 676
        0x0800072e:    2002        .       MOVS     r0,#2
        0x08000730:    461c        .F      MOV      r4,r3
        0x08000732:    5e1b        .^      LDRSH    r3,[r3,r0]
        0x08000734:    2000        .       MOVS     r0,#0
        0x08000736:    5e22        "^      LDRSH    r2,[r4,r0]
        0x08000738:    6961        ai      LDR      r1,[r4,#0x14]
        0x0800073a:    69a0        .i      LDR      r0,[r4,#0x18]
        0x0800073c:    8f24        $.      LDRH     r4,[r4,#0x38]
        0x0800073e:    9401        ..      STR      r4,[sp,#4]
        0x08000740:    2d22        "-      CMP      r5,#0x22
        0x08000742:    d800        ..      BHI      0x8000746 ; core_bench_list + 594
        0x08000744:    2522        "%      MOVS     r5,#0x22
        0x08000746:    9500        ..      STR      r5,[sp,#0]
        0x08000748:    f000f96f    ..o.    BL       core_bench_state ; 0x8000a2a
        0x0800074c:    4604        .F      MOV      r4,r0
        0x0800074e:    9b10        ..      LDR      r3,[sp,#0x40]
        0x08000750:    8fd8        ..      LDRH     r0,[r3,#0x3e]
        0x08000752:    2800        .(      CMP      r0,#0
        0x08000754:    d120         .      BNE      0x8000798 ; core_bench_list + 676
        0x08000756:    87dc        ..      STRH     r4,[r3,#0x3e]
        0x08000758:    e01e        ..      B        0x8000798 ; core_bench_list + 676
        0x0800075a:    1e40        @.      SUBS     r0,r0,#1
        0x0800075c:    9012        ..      STR      r0,[sp,#0x48]
        0x0800075e:    460a        .F      MOV      r2,r1
        0x08000760:    6809        .h      LDR      r1,[r1,#0]
        0x08000762:    4620         F      MOV      r0,r4
        0x08000764:    2f00        ./      CMP      r7,#0
        0x08000766:    d0b0        ..      BEQ      0x80006ca ; core_bench_list + 470
        0x08000768:    e084        ..      B        0x8000874 ; core_bench_list + 896
        0x0800076a:    207f        .       MOVS     r0,#0x7f
        0x0800076c:    4006        .@      ANDS     r6,r6,r0
        0x0800076e:    4634        4F      MOV      r4,r6
        0x08000770:    e022        ".      B        0x80007b8 ; core_bench_list + 708
        0x08000772:    8f1c        ..      LDRH     r4,[r3,#0x38]
        0x08000774:    6a98        .j      LDR      r0,[r3,#0x28]
        0x08000776:    6ada        .j      LDR      r2,[r3,#0x2c]
        0x08000778:    9910        ..      LDR      r1,[sp,#0x40]
        0x0800077a:    6b0b        .k      LDR      r3,[r1,#0x30]
        0x0800077c:    9910        ..      LDR      r1,[sp,#0x40]
        0x0800077e:    6b49        Ik      LDR      r1,[r1,#0x34]
        0x08000780:    9500        ..      STR      r5,[sp,#0]
        0x08000782:    f002f9d3    ....    BL       matrix_test ; 0x8002b2c
        0x08000786:    4621        !F      MOV      r1,r4
        0x08000788:    f000fbbc    ....    BL       crc16 ; 0x8000f04
        0x0800078c:    9b10        ..      LDR      r3,[sp,#0x40]
        0x0800078e:    4604        .F      MOV      r4,r0
        0x08000790:    8f98        ..      LDRH     r0,[r3,#0x3c]
        0x08000792:    2800        .(      CMP      r0,#0
        0x08000794:    d100        ..      BNE      0x8000798 ; core_bench_list + 676
        0x08000796:    879c        ..      STRH     r4,[r3,#0x3c]
        0x08000798:    8f19        ..      LDRH     r1,[r3,#0x38]
        0x0800079a:    4620         F      MOV      r0,r4
        0x0800079c:    f000fc28    ..(.    BL       crcu16 ; 0x8000ff0
        0x080007a0:    9b10        ..      LDR      r3,[sp,#0x40]
        0x080007a2:    8718        ..      STRH     r0,[r3,#0x38]
        0x080007a4:    207f        .       MOVS     r0,#0x7f
        0x080007a6:    4004        .@      ANDS     r4,r4,r0
        0x080007a8:    4386        .C      BICS     r6,r6,r0
        0x080007aa:    1930        0.      ADDS     r0,r6,r4
        0x080007ac:    2180        .!      MOVS     r1,#0x80
        0x080007ae:    4301        .C      ORRS     r1,r1,r0
        0x080007b0:    8039        9.      STRH     r1,[r7,#0]
        0x080007b2:    9d0b        ..      LDR      r5,[sp,#0x2c]
        0x080007b4:    990d        ..      LDR      r1,[sp,#0x34]
        0x080007b6:    9a0c        ..      LDR      r2,[sp,#0x30]
        0x080007b8:    8816        ..      LDRH     r6,[r2,#0]
        0x080007ba:    0630        0.      LSLS     r0,r6,#24
        0x080007bc:    d420         .      BMI      0x8000800 ; core_bench_list + 780
        0x080007be:    2007        .       MOVS     r0,#7
        0x080007c0:    4030        0@      ANDS     r0,r0,r6
        0x080007c2:    0671        q.      LSLS     r1,r6,#25
        0x080007c4:    0f09        ..      LSRS     r1,r1,#28
        0x080007c6:    2511        .%      MOVS     r5,#0x11
        0x080007c8:    434d        MC      MULS     r5,r1,r5
        0x080007ca:    2801        .(      CMP      r0,#1
        0x080007cc:    d01c        ..      BEQ      0x8000808 ; core_bench_list + 788
        0x080007ce:    2800        .(      CMP      r0,#0
        0x080007d0:    4637        7F      MOV      r7,r6
        0x080007d2:    d12c        ,.      BNE      0x800082e ; core_bench_list + 826
        0x080007d4:    2002        .       MOVS     r0,#2
        0x080007d6:    461f        .F      MOV      r7,r3
        0x080007d8:    5e1b        .^      LDRSH    r3,[r3,r0]
        0x080007da:    2000        .       MOVS     r0,#0
        0x080007dc:    5e3a        :^      LDRSH    r2,[r7,r0]
        0x080007de:    6979        yi      LDR      r1,[r7,#0x14]
        0x080007e0:    69b8        .i      LDR      r0,[r7,#0x18]
        0x080007e2:    8f3f        ?.      LDRH     r7,[r7,#0x38]
        0x080007e4:    9701        ..      STR      r7,[sp,#4]
        0x080007e6:    2d22        "-      CMP      r5,#0x22
        0x080007e8:    d800        ..      BHI      0x80007ec ; core_bench_list + 760
        0x080007ea:    2522        "%      MOVS     r5,#0x22
        0x080007ec:    9500        ..      STR      r5,[sp,#0]
        0x080007ee:    f000f91c    ....    BL       core_bench_state ; 0x8000a2a
        0x080007f2:    4607        .F      MOV      r7,r0
        0x080007f4:    9b10        ..      LDR      r3,[sp,#0x40]
        0x080007f6:    8fd8        ..      LDRH     r0,[r3,#0x3e]
        0x080007f8:    2800        .(      CMP      r0,#0
        0x080007fa:    d118        ..      BNE      0x800082e ; core_bench_list + 826
        0x080007fc:    87df        ..      STRH     r7,[r3,#0x3e]
        0x080007fe:    e016        ..      B        0x800082e ; core_bench_list + 826
        0x08000800:    207f        .       MOVS     r0,#0x7f
        0x08000802:    4006        .@      ANDS     r6,r6,r0
        0x08000804:    4637        7F      MOV      r7,r6
        0x08000806:    e022        ".      B        0x800084e ; core_bench_list + 858
        0x08000808:    8f1f        ..      LDRH     r7,[r3,#0x38]
        0x0800080a:    6a98        .j      LDR      r0,[r3,#0x28]
        0x0800080c:    6ada        .j      LDR      r2,[r3,#0x2c]
        0x0800080e:    9910        ..      LDR      r1,[sp,#0x40]
        0x08000810:    6b0b        .k      LDR      r3,[r1,#0x30]
        0x08000812:    9910        ..      LDR      r1,[sp,#0x40]
        0x08000814:    6b49        Ik      LDR      r1,[r1,#0x34]
        0x08000816:    9500        ..      STR      r5,[sp,#0]
        0x08000818:    f002f988    ....    BL       matrix_test ; 0x8002b2c
        0x0800081c:    4639        9F      MOV      r1,r7
        0x0800081e:    f000fb71    ..q.    BL       crc16 ; 0x8000f04
        0x08000822:    9b10        ..      LDR      r3,[sp,#0x40]
        0x08000824:    4607        .F      MOV      r7,r0
        0x08000826:    8f98        ..      LDRH     r0,[r3,#0x3c]
        0x08000828:    2800        .(      CMP      r0,#0
        0x0800082a:    d100        ..      BNE      0x800082e ; core_bench_list + 826
        0x0800082c:    879f        ..      STRH     r7,[r3,#0x3c]
        0x0800082e:    8f19        ..      LDRH     r1,[r3,#0x38]
        0x08000830:    4638        8F      MOV      r0,r7
        0x08000832:    f000fbdd    ....    BL       crcu16 ; 0x8000ff0
        0x08000836:    9b10        ..      LDR      r3,[sp,#0x40]
        0x08000838:    8718        ..      STRH     r0,[r3,#0x38]
        0x0800083a:    207f        .       MOVS     r0,#0x7f
        0x0800083c:    4007        .@      ANDS     r7,r7,r0
        0x0800083e:    4386        .C      BICS     r6,r6,r0
        0x08000840:    19f0        ..      ADDS     r0,r6,r7
        0x08000842:    2180        .!      MOVS     r1,#0x80
        0x08000844:    4301        .C      ORRS     r1,r1,r0
        0x08000846:    980c        ..      LDR      r0,[sp,#0x30]
        0x08000848:    8001        ..      STRH     r1,[r0,#0]
        0x0800084a:    9d0b        ..      LDR      r5,[sp,#0x2c]
        0x0800084c:    990d        ..      LDR      r1,[sp,#0x34]
        0x0800084e:    42bc        .B      CMP      r4,r7
        0x08000850:    9e0a        ..      LDR      r6,[sp,#0x28]
        0x08000852:    d905        ..      BLS      0x8000860 ; core_bench_list + 876
        0x08000854:    9811        ..      LDR      r0,[sp,#0x44]
        0x08000856:    1e40        @.      SUBS     r0,r0,#1
        0x08000858:    9011        ..      STR      r0,[sp,#0x44]
        0x0800085a:    9a0f        ..      LDR      r2,[sp,#0x3c]
        0x0800085c:    6810        .h      LDR      r0,[r2,#0]
        0x0800085e:    e005        ..      B        0x800086c ; core_bench_list + 888
        0x08000860:    9812        ..      LDR      r0,[sp,#0x48]
        0x08000862:    1e40        @.      SUBS     r0,r0,#1
        0x08000864:    9012        ..      STR      r0,[sp,#0x48]
        0x08000866:    460a        .F      MOV      r2,r1
        0x08000868:    6809        .h      LDR      r1,[r1,#0]
        0x0800086a:    980f        ..      LDR      r0,[sp,#0x3c]
        0x0800086c:    9f0e        ..      LDR      r7,[sp,#0x38]
        0x0800086e:    2f00        ./      CMP      r7,#0
        0x08000870:    d100        ..      BNE      0x8000874 ; core_bench_list + 896
        0x08000872:    e72a        *.      B        0x80006ca ; core_bench_list + 470
        0x08000874:    603a        :`      STR      r2,[r7,#0]
        0x08000876:    4604        .F      MOV      r4,r0
        0x08000878:    4617        .F      MOV      r7,r2
        0x0800087a:    9812        ..      LDR      r0,[sp,#0x48]
        0x0800087c:    2800        .(      CMP      r0,#0
        0x0800087e:    dd00        ..      BLE      0x8000882 ; core_bench_list + 910
        0x08000880:    e73b        ;.      B        0x80006fa ; core_bench_list + 518
        0x08000882:    e729        ).      B        0x80006d8 ; core_bench_list + 484
        0x08000884:    4625        %F      MOV      r5,r4
        0x08000886:    6828        (h      LDR      r0,[r5,#0]
        0x08000888:    6807        .h      LDR      r7,[r0,#0]
        0x0800088a:    6842        Bh      LDR      r2,[r0,#4]
        0x0800088c:    6879        yh      LDR      r1,[r7,#4]
        0x0800088e:    6041        A`      STR      r1,[r0,#4]
        0x08000890:    6839        9h      LDR      r1,[r7,#0]
        0x08000892:    6001        .`      STR      r1,[r0,#0]
        0x08000894:    2000        .       MOVS     r0,#0
        0x08000896:    900f        ..      STR      r0,[sp,#0x3c]
        0x08000898:    c705        ..      STM      r7!,{r0,r2}
        0x0800089a:    9805        ..      LDR      r0,[sp,#0x14]
        0x0800089c:    b200        ..      SXTH     r0,r0
        0x0800089e:    3f08        .?      SUBS     r7,r7,#8
        0x080008a0:    2800        .(      CMP      r0,#0
        0x080008a2:    9212        ..      STR      r2,[sp,#0x48]
        0x080008a4:    462e        .F      MOV      r6,r5
        0x080008a6:    d41e        ..      BMI      0x80008e6 ; core_bench_list + 1010
        0x080008a8:    9805        ..      LDR      r0,[sp,#0x14]
        0x080008aa:    b280        ..      UXTH     r0,r0
        0x080008ac:    6871        qh      LDR      r1,[r6,#4]
        0x080008ae:    8849        I.      LDRH     r1,[r1,#2]
        0x080008b0:    4281        .B      CMP      r1,r0
        0x080008b2:    d036        6.      BEQ      0x8000922 ; core_bench_list + 1070
        0x080008b4:    6836        6h      LDR      r6,[r6,#0]
        0x080008b6:    2e00        ..      CMP      r6,#0
        0x080008b8:    d032        2.      BEQ      0x8000920 ; core_bench_list + 1068
        0x080008ba:    6871        qh      LDR      r1,[r6,#4]
        0x080008bc:    8849        I.      LDRH     r1,[r1,#2]
        0x080008be:    4281        .B      CMP      r1,r0
        0x080008c0:    d02f        /.      BEQ      0x8000922 ; core_bench_list + 1070
        0x080008c2:    6836        6h      LDR      r6,[r6,#0]
        0x080008c4:    2e00        ..      CMP      r6,#0
        0x080008c6:    d02b        +.      BEQ      0x8000920 ; core_bench_list + 1068
        0x080008c8:    6871        qh      LDR      r1,[r6,#4]
        0x080008ca:    8849        I.      LDRH     r1,[r1,#2]
        0x080008cc:    4281        .B      CMP      r1,r0
        0x080008ce:    d028        (.      BEQ      0x8000922 ; core_bench_list + 1070
        0x080008d0:    6836        6h      LDR      r6,[r6,#0]
        0x080008d2:    2e00        ..      CMP      r6,#0
        0x080008d4:    d024        $.      BEQ      0x8000920 ; core_bench_list + 1068
        0x080008d6:    6871        qh      LDR      r1,[r6,#4]
        0x080008d8:    8849        I.      LDRH     r1,[r1,#2]
        0x080008da:    4281        .B      CMP      r1,r0
        0x080008dc:    d021        !.      BEQ      0x8000922 ; core_bench_list + 1070
        0x080008de:    6836        6h      LDR      r6,[r6,#0]
        0x080008e0:    2e00        ..      CMP      r6,#0
        0x080008e2:    d1e1        ..      BNE      0x80008a8 ; core_bench_list + 948
        0x080008e4:    e01c        ..      B        0x8000920 ; core_bench_list + 1068
        0x080008e6:    9903        ..      LDR      r1,[sp,#0xc]
        0x080008e8:    6870        ph      LDR      r0,[r6,#4]
        0x080008ea:    7800        .x      LDRB     r0,[r0,#0]
        0x080008ec:    4288        .B      CMP      r0,r1
        0x080008ee:    d018        ..      BEQ      0x8000922 ; core_bench_list + 1070
        0x080008f0:    6836        6h      LDR      r6,[r6,#0]
        0x080008f2:    2e00        ..      CMP      r6,#0
        0x080008f4:    d014        ..      BEQ      0x8000920 ; core_bench_list + 1068
        0x080008f6:    6870        ph      LDR      r0,[r6,#4]
        0x080008f8:    7800        .x      LDRB     r0,[r0,#0]
        0x080008fa:    4288        .B      CMP      r0,r1
        0x080008fc:    d011        ..      BEQ      0x8000922 ; core_bench_list + 1070
        0x080008fe:    6836        6h      LDR      r6,[r6,#0]
        0x08000900:    2e00        ..      CMP      r6,#0
        0x08000902:    d00d        ..      BEQ      0x8000920 ; core_bench_list + 1068
        0x08000904:    6870        ph      LDR      r0,[r6,#4]
        0x08000906:    7800        .x      LDRB     r0,[r0,#0]
        0x08000908:    4288        .B      CMP      r0,r1
        0x0800090a:    d00a        ..      BEQ      0x8000922 ; core_bench_list + 1070
        0x0800090c:    6836        6h      LDR      r6,[r6,#0]
        0x0800090e:    2e00        ..      CMP      r6,#0
        0x08000910:    d006        ..      BEQ      0x8000920 ; core_bench_list + 1068
        0x08000912:    6870        ph      LDR      r0,[r6,#4]
        0x08000914:    7800        .x      LDRB     r0,[r0,#0]
        0x08000916:    4288        .B      CMP      r0,r1
        0x08000918:    d003        ..      BEQ      0x8000922 ; core_bench_list + 1070
        0x0800091a:    6836        6h      LDR      r6,[r6,#0]
        0x0800091c:    2e00        ..      CMP      r6,#0
        0x0800091e:    d1e3        ..      BNE      0x80008e8 ; core_bench_list + 1012
        0x08000920:    682e        .h      LDR      r6,[r5,#0]
        0x08000922:    6868        hh      LDR      r0,[r5,#4]
        0x08000924:    990f        ..      LDR      r1,[sp,#0x3c]
        0x08000926:    5e44        D^      LDRSH    r4,[r0,r1]
        0x08000928:    9804        ..      LDR      r0,[sp,#0x10]
        0x0800092a:    b281        ..      UXTH     r1,r0
        0x0800092c:    4620         F      MOV      r0,r4
        0x0800092e:    f000fae9    ....    BL       crc16 ; 0x8000f04
        0x08000932:    6836        6h      LDR      r6,[r6,#0]
        0x08000934:    2e00        ..      CMP      r6,#0
        0x08000936:    d1f8        ..      BNE      0x800092a ; core_bench_list + 1078
        0x08000938:    9004        ..      STR      r0,[sp,#0x10]
        0x0800093a:    6828        (h      LDR      r0,[r5,#0]
        0x0800093c:    6841        Ah      LDR      r1,[r0,#4]
        0x0800093e:    6079        y`      STR      r1,[r7,#4]
        0x08000940:    6801        .h      LDR      r1,[r0,#0]
        0x08000942:    6039        9`      STR      r1,[r7,#0]
        0x08000944:    6007        .`      STR      r7,[r0,#0]
        0x08000946:    9912        ..      LDR      r1,[sp,#0x48]
        0x08000948:    6041        A`      STR      r1,[r0,#4]
        0x0800094a:    2601        .&      MOVS     r6,#1
        0x0800094c:    e007        ..      B        0x800095e ; core_bench_list + 1130
        0x0800094e:    2000        .       MOVS     r0,#0
        0x08000950:    6010        .`      STR      r0,[r2,#0]
        0x08000952:    0076        v.      LSLS     r6,r6,#1
        0x08000954:    990d        ..      LDR      r1,[sp,#0x34]
        0x08000956:    2900        .)      CMP      r1,#0
        0x08000958:    9911        ..      LDR      r1,[sp,#0x44]
        0x0800095a:    460d        .F      MOV      r5,r1
        0x0800095c:    d053        S.      BEQ      0x8000a06 ; core_bench_list + 1298
        0x0800095e:    1e70        p.      SUBS     r0,r6,#1
        0x08000960:    9012        ..      STR      r0,[sp,#0x48]
        0x08000962:    980f        ..      LDR      r0,[sp,#0x3c]
        0x08000964:    9010        ..      STR      r0,[sp,#0x40]
        0x08000966:    4602        .F      MOV      r2,r0
        0x08000968:    9011        ..      STR      r0,[sp,#0x44]
        0x0800096a:    960e        ..      STR      r6,[sp,#0x38]
        0x0800096c:    e002        ..      B        0x8000974 ; core_bench_list + 1152
        0x0800096e:    2d00        .-      CMP      r5,#0
        0x08000970:    9e0e        ..      LDR      r6,[sp,#0x38]
        0x08000972:    d0ec        ..      BEQ      0x800094e ; core_bench_list + 1114
        0x08000974:    4629        )F      MOV      r1,r5
        0x08000976:    9810        ..      LDR      r0,[sp,#0x40]
        0x08000978:    900d        ..      STR      r0,[sp,#0x34]
        0x0800097a:    1c40        @.      ADDS     r0,r0,#1
        0x0800097c:    9010        ..      STR      r0,[sp,#0x40]
        0x0800097e:    980f        ..      LDR      r0,[sp,#0x3c]
        0x08000980:    682d        -h      LDR      r5,[r5,#0]
        0x08000982:    2d00        .-      CMP      r5,#0
        0x08000984:    d00a        ..      BEQ      0x800099c ; core_bench_list + 1192
        0x08000986:    9b12        ..      LDR      r3,[sp,#0x48]
        0x08000988:    4283        .B      CMP      r3,r0
        0x0800098a:    d00a        ..      BEQ      0x80009a2 ; core_bench_list + 1198
        0x0800098c:    682d        -h      LDR      r5,[r5,#0]
        0x0800098e:    1c80        ..      ADDS     r0,r0,#2
        0x08000990:    2d00        .-      CMP      r5,#0
        0x08000992:    d004        ..      BEQ      0x800099e ; core_bench_list + 1194
        0x08000994:    4286        .B      CMP      r6,r0
        0x08000996:    d1f3        ..      BNE      0x8000980 ; core_bench_list + 1164
        0x08000998:    4630        0F      MOV      r0,r6
        0x0800099a:    e00c        ..      B        0x80009b6 ; core_bench_list + 1218
        0x0800099c:    1c40        @.      ADDS     r0,r0,#1
        0x0800099e:    2500        .%      MOVS     r5,#0
        0x080009a0:    e009        ..      B        0x80009b6 ; core_bench_list + 1218
        0x080009a2:    4630        0F      MOV      r0,r6
        0x080009a4:    e007        ..      B        0x80009b6 ; core_bench_list + 1218
        0x080009a6:    1e40        @.      SUBS     r0,r0,#1
        0x080009a8:    680c        .h      LDR      r4,[r1,#0]
        0x080009aa:    460b        .F      MOV      r3,r1
        0x080009ac:    2a00        .*      CMP      r2,#0
        0x080009ae:    d028        (.      BEQ      0x8000a02 ; core_bench_list + 1294
        0x080009b0:    6013        .`      STR      r3,[r2,#0]
        0x080009b2:    4621        !F      MOV      r1,r4
        0x080009b4:    461a        .F      MOV      r2,r3
        0x080009b6:    2800        .(      CMP      r0,#0
        0x080009b8:    dc05        ..      BGT      0x80009c6 ; core_bench_list + 1234
        0x080009ba:    2e01        ..      CMP      r6,#1
        0x080009bc:    dbd7        ..      BLT      0x800096e ; core_bench_list + 1146
        0x080009be:    2d00        .-      CMP      r5,#0
        0x080009c0:    d0d5        ..      BEQ      0x800096e ; core_bench_list + 1146
        0x080009c2:    2800        .(      CMP      r0,#0
        0x080009c4:    d016        ..      BEQ      0x80009f4 ; core_bench_list + 1280
        0x080009c6:    2e00        ..      CMP      r6,#0
        0x080009c8:    d0ed        ..      BEQ      0x80009a6 ; core_bench_list + 1202
        0x080009ca:    2d00        .-      CMP      r5,#0
        0x080009cc:    d0eb        ..      BEQ      0x80009a6 ; core_bench_list + 1202
        0x080009ce:    684c        Lh      LDR      r4,[r1,#4]
        0x080009d0:    462b        +F      MOV      r3,r5
        0x080009d2:    7865        ex      LDRB     r5,[r4,#1]
        0x080009d4:    7025        %p      STRB     r5,[r4,#0]
        0x080009d6:    685d        ]h      LDR      r5,[r3,#4]
        0x080009d8:    786f        ox      LDRB     r7,[r5,#1]
        0x080009da:    702f        /p      STRB     r7,[r5,#0]
        0x080009dc:    2702        .'      MOVS     r7,#2
        0x080009de:    5fed        ._      LDRSH    r5,[r5,r7]
        0x080009e0:    5fe4        ._      LDRSH    r4,[r4,r7]
        0x080009e2:    42ac        .B      CMP      r4,r5
        0x080009e4:    dd02        ..      BLE      0x80009ec ; core_bench_list + 1272
        0x080009e6:    1e76        v.      SUBS     r6,r6,#1
        0x080009e8:    681d        .h      LDR      r5,[r3,#0]
        0x080009ea:    e007        ..      B        0x80009fc ; core_bench_list + 1288
        0x080009ec:    1e40        @.      SUBS     r0,r0,#1
        0x080009ee:    680c        .h      LDR      r4,[r1,#0]
        0x080009f0:    461d        .F      MOV      r5,r3
        0x080009f2:    e7da        ..      B        0x80009aa ; core_bench_list + 1206
        0x080009f4:    1e76        v.      SUBS     r6,r6,#1
        0x080009f6:    462b        +F      MOV      r3,r5
        0x080009f8:    682d        -h      LDR      r5,[r5,#0]
        0x080009fa:    2000        .       MOVS     r0,#0
        0x080009fc:    460c        .F      MOV      r4,r1
        0x080009fe:    2a00        .*      CMP      r2,#0
        0x08000a00:    d1d6        ..      BNE      0x80009b0 ; core_bench_list + 1212
        0x08000a02:    9311        ..      STR      r3,[sp,#0x44]
        0x08000a04:    e7d5        ..      B        0x80009b2 ; core_bench_list + 1214
        0x08000a06:    680c        .h      LDR      r4,[r1,#0]
        0x08000a08:    2c00        .,      CMP      r4,#0
        0x08000a0a:    d00b        ..      BEQ      0x8000a24 ; core_bench_list + 1328
        0x08000a0c:    6849        Ih      LDR      r1,[r1,#4]
        0x08000a0e:    5e0d        .^      LDRSH    r5,[r1,r0]
        0x08000a10:    9804        ..      LDR      r0,[sp,#0x10]
        0x08000a12:    b281        ..      UXTH     r1,r0
        0x08000a14:    4628        (F      MOV      r0,r5
        0x08000a16:    f000fa75    ..u.    BL       crc16 ; 0x8000f04
        0x08000a1a:    6824        $h      LDR      r4,[r4,#0]
        0x08000a1c:    2c00        .,      CMP      r4,#0
        0x08000a1e:    d1f8        ..      BNE      0x8000a12 ; core_bench_list + 1310
        0x08000a20:    b013        ..      ADD      sp,sp,#0x4c
        0x08000a22:    bdf0        ..      POP      {r4-r7,pc}
        0x08000a24:    9804        ..      LDR      r0,[sp,#0x10]
        0x08000a26:    b013        ..      ADD      sp,sp,#0x4c
        0x08000a28:    bdf0        ..      POP      {r4-r7,pc}
    core_bench_state
        0x08000a2a:    b5f0        ..      PUSH     {r4-r7,lr}
        0x08000a2c:    b095        ..      SUB      sp,sp,#0x54
        0x08000a2e:    9301        ..      STR      r3,[sp,#4]
        0x08000a30:    9003        ..      STR      r0,[sp,#0xc]
        0x08000a32:    2000        .       MOVS     r0,#0
        0x08000a34:    900d        ..      STR      r0,[sp,#0x34]
        0x08000a36:    900e        ..      STR      r0,[sp,#0x38]
        0x08000a38:    900f        ..      STR      r0,[sp,#0x3c]
        0x08000a3a:    9010        ..      STR      r0,[sp,#0x40]
        0x08000a3c:    9011        ..      STR      r0,[sp,#0x44]
        0x08000a3e:    9012        ..      STR      r0,[sp,#0x48]
        0x08000a40:    9013        ..      STR      r0,[sp,#0x4c]
        0x08000a42:    9014        ..      STR      r0,[sp,#0x50]
        0x08000a44:    900c        ..      STR      r0,[sp,#0x30]
        0x08000a46:    900b        ..      STR      r0,[sp,#0x2c]
        0x08000a48:    900a        ..      STR      r0,[sp,#0x28]
        0x08000a4a:    9009        ..      STR      r0,[sp,#0x24]
        0x08000a4c:    9008        ..      STR      r0,[sp,#0x20]
        0x08000a4e:    9006        ..      STR      r0,[sp,#0x18]
        0x08000a50:    9007        ..      STR      r0,[sp,#0x1c]
        0x08000a52:    9104        ..      STR      r1,[sp,#0x10]
        0x08000a54:    780f        .x      LDRB     r7,[r1,#0]
        0x08000a56:    981a        ..      LDR      r0,[sp,#0x68]
        0x08000a58:    9002        ..      STR      r0,[sp,#8]
        0x08000a5a:    2f00        ./      CMP      r7,#0
        0x08000a5c:    d100        ..      BNE      0x8000a60 ; core_bench_state + 54
        0x08000a5e:    e0d3        ..      B        0x8000c08 ; core_bench_state + 478
        0x08000a60:    2000        .       MOVS     r0,#0
        0x08000a62:    9005        ..      STR      r0,[sp,#0x14]
        0x08000a64:    9006        ..      STR      r0,[sp,#0x18]
        0x08000a66:    4638        8F      MOV      r0,r7
        0x08000a68:    9904        ..      LDR      r1,[sp,#0x10]
        0x08000a6a:    e00a        ..      B        0x8000a82 ; core_bench_state + 88
        0x08000a6c:    2504        .%      MOVS     r5,#4
        0x08000a6e:    1c71        q.      ADDS     r1,r6,#1
        0x08000a70:    00a8        ..      LSLS     r0,r5,#2
        0x08000a72:    ac0d        ..      ADD      r4,sp,#0x34
        0x08000a74:    5823        #X      LDR      r3,[r4,r0]
        0x08000a76:    1c5b        [.      ADDS     r3,r3,#1
        0x08000a78:    5023        #P      STR      r3,[r4,r0]
        0x08000a7a:    7808        .x      LDRB     r0,[r1,#0]
        0x08000a7c:    2800        .(      CMP      r0,#0
        0x08000a7e:    d100        ..      BNE      0x8000a82 ; core_bench_state + 88
        0x08000a80:    e0c2        ..      B        0x8000c08 ; core_bench_state + 478
        0x08000a82:    282c        ,(      CMP      r0,#0x2c
        0x08000a84:    d102        ..      BNE      0x8000a8c ; core_bench_state + 98
        0x08000a86:    9d05        ..      LDR      r5,[sp,#0x14]
        0x08000a88:    1c49        I.      ADDS     r1,r1,#1
        0x08000a8a:    e7f1        ..      B        0x8000a70 ; core_bench_state + 70
        0x08000a8c:    230a        .#      MOVS     r3,#0xa
        0x08000a8e:    43db        .C      MVNS     r3,r3
        0x08000a90:    4604        .F      MOV      r4,r0
        0x08000a92:    3c3a        :<      SUBS     r4,r4,#0x3a
        0x08000a94:    429c        .B      CMP      r4,r3
        0x08000a96:    d810        ..      BHI      0x8000aba ; core_bench_state + 144
        0x08000a98:    282b        +(      CMP      r0,#0x2b
        0x08000a9a:    9c06        ..      LDR      r4,[sp,#0x18]
        0x08000a9c:    d026        &.      BEQ      0x8000aec ; core_bench_state + 194
        0x08000a9e:    282d        -(      CMP      r0,#0x2d
        0x08000aa0:    d024        $.      BEQ      0x8000aec ; core_bench_state + 194
        0x08000aa2:    282e        .(      CMP      r0,#0x2e
        0x08000aa4:    d138        8.      BNE      0x8000b18 ; core_bench_state + 238
        0x08000aa6:    7848        Hx      LDRB     r0,[r1,#1]
        0x08000aa8:    1c4e        N.      ADDS     r6,r1,#1
        0x08000aaa:    1c64        d.      ADDS     r4,r4,#1
        0x08000aac:    9406        ..      STR      r4,[sp,#0x18]
        0x08000aae:    2505        .%      MOVS     r5,#5
        0x08000ab0:    2800        .(      CMP      r0,#0
        0x08000ab2:    d070        p.      BEQ      0x8000b96 ; core_bench_state + 364
        0x08000ab4:    282c        ,(      CMP      r0,#0x2c
        0x08000ab6:    d0da        ..      BEQ      0x8000a6e ; core_bench_state + 68
        0x08000ab8:    e041        A.      B        0x8000b3e ; core_bench_state + 276
        0x08000aba:    7848        Hx      LDRB     r0,[r1,#1]
        0x08000abc:    1c4e        N.      ADDS     r6,r1,#1
        0x08000abe:    9906        ..      LDR      r1,[sp,#0x18]
        0x08000ac0:    1c49        I.      ADDS     r1,r1,#1
        0x08000ac2:    9106        ..      STR      r1,[sp,#0x18]
        0x08000ac4:    2504        .%      MOVS     r5,#4
        0x08000ac6:    2800        .(      CMP      r0,#0
        0x08000ac8:    d065        e.      BEQ      0x8000b96 ; core_bench_state + 364
        0x08000aca:    282c        ,(      CMP      r0,#0x2c
        0x08000acc:    d0cf        ..      BEQ      0x8000a6e ; core_bench_state + 68
        0x08000ace:    282e        .(      CMP      r0,#0x2e
        0x08000ad0:    d02a        *.      BEQ      0x8000b28 ; core_bench_state + 254
        0x08000ad2:    2109        .!      MOVS     r1,#9
        0x08000ad4:    43c9        .C      MVNS     r1,r1
        0x08000ad6:    383a        :8      SUBS     r0,r0,#0x3a
        0x08000ad8:    ac09        ..      ADD      r4,sp,#0x24
        0x08000ada:    4288        .B      CMP      r0,r1
        0x08000adc:    d377        w.      BCC      0x8000bce ; core_bench_state + 420
        0x08000ade:    7870        px      LDRB     r0,[r6,#1]
        0x08000ae0:    1c76        v.      ADDS     r6,r6,#1
        0x08000ae2:    2800        .(      CMP      r0,#0
        0x08000ae4:    d03e        >.      BEQ      0x8000b64 ; core_bench_state + 314
        0x08000ae6:    282c        ,(      CMP      r0,#0x2c
        0x08000ae8:    d1f1        ..      BNE      0x8000ace ; core_bench_state + 164
        0x08000aea:    e7bf        ..      B        0x8000a6c ; core_bench_state + 66
        0x08000aec:    7848        Hx      LDRB     r0,[r1,#1]
        0x08000aee:    1c4e        N.      ADDS     r6,r1,#1
        0x08000af0:    1c64        d.      ADDS     r4,r4,#1
        0x08000af2:    2502        .%      MOVS     r5,#2
        0x08000af4:    2800        .(      CMP      r0,#0
        0x08000af6:    9406        ..      STR      r4,[sp,#0x18]
        0x08000af8:    d04d        M.      BEQ      0x8000b96 ; core_bench_state + 364
        0x08000afa:    282c        ,(      CMP      r0,#0x2c
        0x08000afc:    d0b7        ..      BEQ      0x8000a6e ; core_bench_state + 68
        0x08000afe:    4604        .F      MOV      r4,r0
        0x08000b00:    3c3a        :<      SUBS     r4,r4,#0x3a
        0x08000b02:    429c        .B      CMP      r4,r3
        0x08000b04:    d830        0.      BHI      0x8000b68 ; core_bench_state + 318
        0x08000b06:    ac0b        ..      ADD      r4,sp,#0x2c
        0x08000b08:    282e        .(      CMP      r0,#0x2e
        0x08000b0a:    d160        `.      BNE      0x8000bce ; core_bench_state + 420
        0x08000b0c:    980b        ..      LDR      r0,[sp,#0x2c]
        0x08000b0e:    1c40        @.      ADDS     r0,r0,#1
        0x08000b10:    900b        ..      STR      r0,[sp,#0x2c]
        0x08000b12:    1c8e        ..      ADDS     r6,r1,#2
        0x08000b14:    7888        .x      LDRB     r0,[r1,#2]
        0x08000b16:    e7ca        ..      B        0x8000aae ; core_bench_state + 132
        0x08000b18:    980c        ..      LDR      r0,[sp,#0x30]
        0x08000b1a:    1c40        @.      ADDS     r0,r0,#1
        0x08000b1c:    900c        ..      STR      r0,[sp,#0x30]
        0x08000b1e:    1c49        I.      ADDS     r1,r1,#1
        0x08000b20:    1c64        d.      ADDS     r4,r4,#1
        0x08000b22:    9406        ..      STR      r4,[sp,#0x18]
        0x08000b24:    2501        .%      MOVS     r5,#1
        0x08000b26:    e7a3        ..      B        0x8000a70 ; core_bench_state + 70
        0x08000b28:    9809        ..      LDR      r0,[sp,#0x24]
        0x08000b2a:    1c40        @.      ADDS     r0,r0,#1
        0x08000b2c:    9009        ..      STR      r0,[sp,#0x24]
        0x08000b2e:    1c71        q.      ADDS     r1,r6,#1
        0x08000b30:    7870        px      LDRB     r0,[r6,#1]
        0x08000b32:    2505        .%      MOVS     r5,#5
        0x08000b34:    2800        .(      CMP      r0,#0
        0x08000b36:    d09b        ..      BEQ      0x8000a70 ; core_bench_state + 70
        0x08000b38:    282c        ,(      CMP      r0,#0x2c
        0x08000b3a:    460e        .F      MOV      r6,r1
        0x08000b3c:    d097        ..      BEQ      0x8000a6e ; core_bench_state + 68
        0x08000b3e:    21df        .!      MOVS     r1,#0xdf
        0x08000b40:    4001        .@      ANDS     r1,r1,r0
        0x08000b42:    2945        E)      CMP      r1,#0x45
        0x08000b44:    d016        ..      BEQ      0x8000b74 ; core_bench_state + 330
        0x08000b46:    2109        .!      MOVS     r1,#9
        0x08000b48:    43c9        .C      MVNS     r1,r1
        0x08000b4a:    383a        :8      SUBS     r0,r0,#0x3a
        0x08000b4c:    ac08        ..      ADD      r4,sp,#0x20
        0x08000b4e:    4288        .B      CMP      r0,r1
        0x08000b50:    d33d        =.      BCC      0x8000bce ; core_bench_state + 420
        0x08000b52:    7870        px      LDRB     r0,[r6,#1]
        0x08000b54:    1c76        v.      ADDS     r6,r6,#1
        0x08000b56:    2800        .(      CMP      r0,#0
        0x08000b58:    d01c        ..      BEQ      0x8000b94 ; core_bench_state + 362
        0x08000b5a:    282c        ,(      CMP      r0,#0x2c
        0x08000b5c:    d1ef        ..      BNE      0x8000b3e ; core_bench_state + 276
        0x08000b5e:    2505        .%      MOVS     r5,#5
        0x08000b60:    1c71        q.      ADDS     r1,r6,#1
        0x08000b62:    e785        ..      B        0x8000a70 ; core_bench_state + 70
        0x08000b64:    2504        .%      MOVS     r5,#4
        0x08000b66:    e016        ..      B        0x8000b96 ; core_bench_state + 364
        0x08000b68:    980b        ..      LDR      r0,[sp,#0x2c]
        0x08000b6a:    1c40        @.      ADDS     r0,r0,#1
        0x08000b6c:    900b        ..      STR      r0,[sp,#0x2c]
        0x08000b6e:    1c8e        ..      ADDS     r6,r1,#2
        0x08000b70:    7888        .x      LDRB     r0,[r1,#2]
        0x08000b72:    e7a7        ..      B        0x8000ac4 ; core_bench_state + 154
        0x08000b74:    9808        ..      LDR      r0,[sp,#0x20]
        0x08000b76:    1c40        @.      ADDS     r0,r0,#1
        0x08000b78:    9008        ..      STR      r0,[sp,#0x20]
        0x08000b7a:    1c71        q.      ADDS     r1,r6,#1
        0x08000b7c:    7870        px      LDRB     r0,[r6,#1]
        0x08000b7e:    2503        .%      MOVS     r5,#3
        0x08000b80:    ac0a        ..      ADD      r4,sp,#0x28
        0x08000b82:    282b        +(      CMP      r0,#0x2b
        0x08000b84:    dc09        ..      BGT      0x8000b9a ; core_bench_state + 368
        0x08000b86:    2800        .(      CMP      r0,#0
        0x08000b88:    d100        ..      BNE      0x8000b8c ; core_bench_state + 354
        0x08000b8a:    e771        q.      B        0x8000a70 ; core_bench_state + 70
        0x08000b8c:    282b        +(      CMP      r0,#0x2b
        0x08000b8e:    d009        ..      BEQ      0x8000ba4 ; core_bench_state + 378
        0x08000b90:    460e        .F      MOV      r6,r1
        0x08000b92:    e01c        ..      B        0x8000bce ; core_bench_state + 420
        0x08000b94:    2505        .%      MOVS     r5,#5
        0x08000b96:    4631        1F      MOV      r1,r6
        0x08000b98:    e76a        j.      B        0x8000a70 ; core_bench_state + 70
        0x08000b9a:    282c        ,(      CMP      r0,#0x2c
        0x08000b9c:    d100        ..      BNE      0x8000ba0 ; core_bench_state + 374
        0x08000b9e:    e773        s.      B        0x8000a88 ; core_bench_state + 94
        0x08000ba0:    282d        -(      CMP      r0,#0x2d
        0x08000ba2:    d1f5        ..      BNE      0x8000b90 ; core_bench_state + 358
        0x08000ba4:    980a        ..      LDR      r0,[sp,#0x28]
        0x08000ba6:    1c40        @.      ADDS     r0,r0,#1
        0x08000ba8:    900a        ..      STR      r0,[sp,#0x28]
        0x08000baa:    1cb1        ..      ADDS     r1,r6,#2
        0x08000bac:    78b0        .x      LDRB     r0,[r6,#2]
        0x08000bae:    2506        .%      MOVS     r5,#6
        0x08000bb0:    2800        .(      CMP      r0,#0
        0x08000bb2:    d100        ..      BNE      0x8000bb6 ; core_bench_state + 396
        0x08000bb4:    e75c        \.      B        0x8000a70 ; core_bench_state + 70
        0x08000bb6:    282c        ,(      CMP      r0,#0x2c
        0x08000bb8:    d100        ..      BNE      0x8000bbc ; core_bench_state + 402
        0x08000bba:    e765        e.      B        0x8000a88 ; core_bench_state + 94
        0x08000bbc:    9200        ..      STR      r2,[sp,#0]
        0x08000bbe:    2209        ."      MOVS     r2,#9
        0x08000bc0:    43d2        .C      MVNS     r2,r2
        0x08000bc2:    383a        :8      SUBS     r0,r0,#0x3a
        0x08000bc4:    ac07        ..      ADD      r4,sp,#0x1c
        0x08000bc6:    4290        .B      CMP      r0,r2
        0x08000bc8:    d207        ..      BCS      0x8000bda ; core_bench_state + 432
        0x08000bca:    460e        .F      MOV      r6,r1
        0x08000bcc:    9a00        ..      LDR      r2,[sp,#0]
        0x08000bce:    6820         h      LDR      r0,[r4,#0]
        0x08000bd0:    1c40        @.      ADDS     r0,r0,#1
        0x08000bd2:    6020         `      STR      r0,[r4,#0]
        0x08000bd4:    1c71        q.      ADDS     r1,r6,#1
        0x08000bd6:    2501        .%      MOVS     r5,#1
        0x08000bd8:    e74a        J.      B        0x8000a70 ; core_bench_state + 70
        0x08000bda:    9807        ..      LDR      r0,[sp,#0x1c]
        0x08000bdc:    1c40        @.      ADDS     r0,r0,#1
        0x08000bde:    9007        ..      STR      r0,[sp,#0x1c]
        0x08000be0:    1cf1        ..      ADDS     r1,r6,#3
        0x08000be2:    78f0        .x      LDRB     r0,[r6,#3]
        0x08000be4:    2507        .%      MOVS     r5,#7
        0x08000be6:    2800        .(      CMP      r0,#0
        0x08000be8:    9a00        ..      LDR      r2,[sp,#0]
        0x08000bea:    d100        ..      BNE      0x8000bee ; core_bench_state + 452
        0x08000bec:    e740        @.      B        0x8000a70 ; core_bench_state + 70
        0x08000bee:    460e        .F      MOV      r6,r1
        0x08000bf0:    282c        ,(      CMP      r0,#0x2c
        0x08000bf2:    d100        ..      BNE      0x8000bf6 ; core_bench_state + 460
        0x08000bf4:    e73b        ;.      B        0x8000a6e ; core_bench_state + 68
        0x08000bf6:    383a        :8      SUBS     r0,r0,#0x3a
        0x08000bf8:    ac0c        ..      ADD      r4,sp,#0x30
        0x08000bfa:    4298        .B      CMP      r0,r3
        0x08000bfc:    d9e7        ..      BLS      0x8000bce ; core_bench_state + 420
        0x08000bfe:    7870        px      LDRB     r0,[r6,#1]
        0x08000c00:    1c76        v.      ADDS     r6,r6,#1
        0x08000c02:    2800        .(      CMP      r0,#0
        0x08000c04:    d1f4        ..      BNE      0x8000bf0 ; core_bench_state + 454
        0x08000c06:    e7c6        ..      B        0x8000b96 ; core_bench_state + 364
        0x08000c08:    9b04        ..      LDR      r3,[sp,#0x10]
        0x08000c0a:    9803        ..      LDR      r0,[sp,#0xc]
        0x08000c0c:    1819        ..      ADDS     r1,r3,r0
        0x08000c0e:    9105        ..      STR      r1,[sp,#0x14]
        0x08000c10:    2801        .(      CMP      r0,#1
        0x08000c12:    9802        ..      LDR      r0,[sp,#8]
        0x08000c14:    b286        ..      UXTH     r6,r0
        0x08000c16:    db2d        -.      BLT      0x8000c74 ; core_bench_state + 586
        0x08000c18:    2003        .       MOVS     r0,#3
        0x08000c1a:    4370        pC      MULS     r0,r6,r0
        0x08000c1c:    b2d1        ..      UXTB     r1,r2
        0x08000c1e:    0072        r.      LSLS     r2,r6,#1
        0x08000c20:    e005        ..      B        0x8000c2e ; core_bench_state + 516
        0x08000c22:    19a3        ..      ADDS     r3,r4,r6
        0x08000c24:    199b        ..      ADDS     r3,r3,r6
        0x08000c26:    199b        ..      ADDS     r3,r3,r6
        0x08000c28:    9c05        ..      LDR      r4,[sp,#0x14]
        0x08000c2a:    42a3        .B      CMP      r3,r4
        0x08000c2c:    d220         .      BCS      0x8000c70 ; core_bench_state + 582
        0x08000c2e:    781c        .x      LDRB     r4,[r3,#0]
        0x08000c30:    2c2c        ,,      CMP      r4,#0x2c
        0x08000c32:    d001        ..      BEQ      0x8000c38 ; core_bench_state + 526
        0x08000c34:    404c        L@      EORS     r4,r4,r1
        0x08000c36:    701c        .p      STRB     r4,[r3,#0]
        0x08000c38:    199c        ..      ADDS     r4,r3,r6
        0x08000c3a:    9d05        ..      LDR      r5,[sp,#0x14]
        0x08000c3c:    42ac        .B      CMP      r4,r5
        0x08000c3e:    d217        ..      BCS      0x8000c70 ; core_bench_state + 582
        0x08000c40:    7827        'x      LDRB     r7,[r4,#0]
        0x08000c42:    2f2c        ,/      CMP      r7,#0x2c
        0x08000c44:    d001        ..      BEQ      0x8000c4a ; core_bench_state + 544
        0x08000c46:    404f        O@      EORS     r7,r7,r1
        0x08000c48:    7027        'p      STRB     r7,[r4,#0]
        0x08000c4a:    189f        ..      ADDS     r7,r3,r2
        0x08000c4c:    9d05        ..      LDR      r5,[sp,#0x14]
        0x08000c4e:    42af        .B      CMP      r7,r5
        0x08000c50:    d20e        ..      BCS      0x8000c70 ; core_bench_state + 582
        0x08000c52:    783d        =x      LDRB     r5,[r7,#0]
        0x08000c54:    2d2c        ,-      CMP      r5,#0x2c
        0x08000c56:    d001        ..      BEQ      0x8000c5c ; core_bench_state + 562
        0x08000c58:    404d        M@      EORS     r5,r5,r1
        0x08000c5a:    703d        =p      STRB     r5,[r7,#0]
        0x08000c5c:    181b        ..      ADDS     r3,r3,r0
        0x08000c5e:    9d05        ..      LDR      r5,[sp,#0x14]
        0x08000c60:    42ab        .B      CMP      r3,r5
        0x08000c62:    d205        ..      BCS      0x8000c70 ; core_bench_state + 582
        0x08000c64:    781d        .x      LDRB     r5,[r3,#0]
        0x08000c66:    2d2c        ,-      CMP      r5,#0x2c
        0x08000c68:    d0db        ..      BEQ      0x8000c22 ; core_bench_state + 504
        0x08000c6a:    404d        M@      EORS     r5,r5,r1
        0x08000c6c:    701d        .p      STRB     r5,[r3,#0]
        0x08000c6e:    e7d8        ..      B        0x8000c22 ; core_bench_state + 504
        0x08000c70:    9804        ..      LDR      r0,[sp,#0x10]
        0x08000c72:    7807        .x      LDRB     r7,[r0,#0]
        0x08000c74:    2f00        ./      CMP      r7,#0
        0x08000c76:    d100        ..      BNE      0x8000c7a ; core_bench_state + 592
        0x08000c78:    e0cd        ..      B        0x8000e16 ; core_bench_state + 1004
        0x08000c7a:    9804        ..      LDR      r0,[sp,#0x10]
        0x08000c7c:    e00a        ..      B        0x8000c94 ; core_bench_state + 618
        0x08000c7e:    2704        .'      MOVS     r7,#4
        0x08000c80:    1c50        P.      ADDS     r0,r2,#1
        0x08000c82:    00b9        ..      LSLS     r1,r7,#2
        0x08000c84:    aa0d        ..      ADD      r2,sp,#0x34
        0x08000c86:    5853        SX      LDR      r3,[r2,r1]
        0x08000c88:    1c5b        [.      ADDS     r3,r3,#1
        0x08000c8a:    5053        SP      STR      r3,[r2,r1]
        0x08000c8c:    7807        .x      LDRB     r7,[r0,#0]
        0x08000c8e:    2f00        ./      CMP      r7,#0
        0x08000c90:    d100        ..      BNE      0x8000c94 ; core_bench_state + 618
        0x08000c92:    e0c0        ..      B        0x8000e16 ; core_bench_state + 1004
        0x08000c94:    2f2c        ,/      CMP      r7,#0x2c
        0x08000c96:    d102        ..      BNE      0x8000c9e ; core_bench_state + 628
        0x08000c98:    2700        .'      MOVS     r7,#0
        0x08000c9a:    1c40        @.      ADDS     r0,r0,#1
        0x08000c9c:    e7f1        ..      B        0x8000c82 ; core_bench_state + 600
        0x08000c9e:    210a        .!      MOVS     r1,#0xa
        0x08000ca0:    43cb        .C      MVNS     r3,r1
        0x08000ca2:    4639        9F      MOV      r1,r7
        0x08000ca4:    393a        :9      SUBS     r1,r1,#0x3a
        0x08000ca6:    4299        .B      CMP      r1,r3
        0x08000ca8:    d810        ..      BHI      0x8000ccc ; core_bench_state + 674
        0x08000caa:    2f2b        +/      CMP      r7,#0x2b
        0x08000cac:    d027        '.      BEQ      0x8000cfe ; core_bench_state + 724
        0x08000cae:    2f2d        -/      CMP      r7,#0x2d
        0x08000cb0:    d025        %.      BEQ      0x8000cfe ; core_bench_state + 724
        0x08000cb2:    2f2e        ./      CMP      r7,#0x2e
        0x08000cb4:    d13a        :.      BNE      0x8000d2c ; core_bench_state + 770
        0x08000cb6:    7841        Ax      LDRB     r1,[r0,#1]
        0x08000cb8:    1c42        B.      ADDS     r2,r0,#1
        0x08000cba:    9806        ..      LDR      r0,[sp,#0x18]
        0x08000cbc:    1c40        @.      ADDS     r0,r0,#1
        0x08000cbe:    9006        ..      STR      r0,[sp,#0x18]
        0x08000cc0:    2705        .'      MOVS     r7,#5
        0x08000cc2:    2900        .)      CMP      r1,#0
        0x08000cc4:    d071        q.      BEQ      0x8000daa ; core_bench_state + 896
        0x08000cc6:    292c        ,)      CMP      r1,#0x2c
        0x08000cc8:    d0da        ..      BEQ      0x8000c80 ; core_bench_state + 598
        0x08000cca:    e043        C.      B        0x8000d54 ; core_bench_state + 810
        0x08000ccc:    7841        Ax      LDRB     r1,[r0,#1]
        0x08000cce:    1c42        B.      ADDS     r2,r0,#1
        0x08000cd0:    9806        ..      LDR      r0,[sp,#0x18]
        0x08000cd2:    1c40        @.      ADDS     r0,r0,#1
        0x08000cd4:    9006        ..      STR      r0,[sp,#0x18]
        0x08000cd6:    2704        .'      MOVS     r7,#4
        0x08000cd8:    2900        .)      CMP      r1,#0
        0x08000cda:    d066        f.      BEQ      0x8000daa ; core_bench_state + 896
        0x08000cdc:    292c        ,)      CMP      r1,#0x2c
        0x08000cde:    d0cf        ..      BEQ      0x8000c80 ; core_bench_state + 598
        0x08000ce0:    292e        .)      CMP      r1,#0x2e
        0x08000ce2:    d02c        ,.      BEQ      0x8000d3e ; core_bench_state + 788
        0x08000ce4:    2009        .       MOVS     r0,#9
        0x08000ce6:    43c0        .C      MVNS     r0,r0
        0x08000ce8:    393a        :9      SUBS     r1,r1,#0x3a
        0x08000cea:    ac09        ..      ADD      r4,sp,#0x24
        0x08000cec:    4281        .B      CMP      r1,r0
        0x08000cee:    d376        v.      BCC      0x8000dde ; core_bench_state + 948
        0x08000cf0:    7851        Qx      LDRB     r1,[r2,#1]
        0x08000cf2:    1c52        R.      ADDS     r2,r2,#1
        0x08000cf4:    2900        .)      CMP      r1,#0
        0x08000cf6:    d040        @.      BEQ      0x8000d7a ; core_bench_state + 848
        0x08000cf8:    292c        ,)      CMP      r1,#0x2c
        0x08000cfa:    d1f1        ..      BNE      0x8000ce0 ; core_bench_state + 694
        0x08000cfc:    e7bf        ..      B        0x8000c7e ; core_bench_state + 596
        0x08000cfe:    7841        Ax      LDRB     r1,[r0,#1]
        0x08000d00:    1c42        B.      ADDS     r2,r0,#1
        0x08000d02:    9c06        ..      LDR      r4,[sp,#0x18]
        0x08000d04:    1c64        d.      ADDS     r4,r4,#1
        0x08000d06:    9406        ..      STR      r4,[sp,#0x18]
        0x08000d08:    2702        .'      MOVS     r7,#2
        0x08000d0a:    2900        .)      CMP      r1,#0
        0x08000d0c:    d04d        M.      BEQ      0x8000daa ; core_bench_state + 896
        0x08000d0e:    292c        ,)      CMP      r1,#0x2c
        0x08000d10:    d0b6        ..      BEQ      0x8000c80 ; core_bench_state + 598
        0x08000d12:    460c        .F      MOV      r4,r1
        0x08000d14:    3c3a        :<      SUBS     r4,r4,#0x3a
        0x08000d16:    429c        .B      CMP      r4,r3
        0x08000d18:    d831        1.      BHI      0x8000d7e ; core_bench_state + 852
        0x08000d1a:    ac0b        ..      ADD      r4,sp,#0x2c
        0x08000d1c:    292e        .)      CMP      r1,#0x2e
        0x08000d1e:    d15e        ^.      BNE      0x8000dde ; core_bench_state + 948
        0x08000d20:    990b        ..      LDR      r1,[sp,#0x2c]
        0x08000d22:    1c49        I.      ADDS     r1,r1,#1
        0x08000d24:    910b        ..      STR      r1,[sp,#0x2c]
        0x08000d26:    1c82        ..      ADDS     r2,r0,#2
        0x08000d28:    7881        .x      LDRB     r1,[r0,#2]
        0x08000d2a:    e7c9        ..      B        0x8000cc0 ; core_bench_state + 662
        0x08000d2c:    990c        ..      LDR      r1,[sp,#0x30]
        0x08000d2e:    1c49        I.      ADDS     r1,r1,#1
        0x08000d30:    910c        ..      STR      r1,[sp,#0x30]
        0x08000d32:    1c40        @.      ADDS     r0,r0,#1
        0x08000d34:    9906        ..      LDR      r1,[sp,#0x18]
        0x08000d36:    1c49        I.      ADDS     r1,r1,#1
        0x08000d38:    9106        ..      STR      r1,[sp,#0x18]
        0x08000d3a:    2701        .'      MOVS     r7,#1
        0x08000d3c:    e7a1        ..      B        0x8000c82 ; core_bench_state + 600
        0x08000d3e:    9809        ..      LDR      r0,[sp,#0x24]
        0x08000d40:    1c40        @.      ADDS     r0,r0,#1
        0x08000d42:    9009        ..      STR      r0,[sp,#0x24]
        0x08000d44:    1c50        P.      ADDS     r0,r2,#1
        0x08000d46:    7851        Qx      LDRB     r1,[r2,#1]
        0x08000d48:    2705        .'      MOVS     r7,#5
        0x08000d4a:    2900        .)      CMP      r1,#0
        0x08000d4c:    d099        ..      BEQ      0x8000c82 ; core_bench_state + 600
        0x08000d4e:    292c        ,)      CMP      r1,#0x2c
        0x08000d50:    4602        .F      MOV      r2,r0
        0x08000d52:    d095        ..      BEQ      0x8000c80 ; core_bench_state + 598
        0x08000d54:    20df        .       MOVS     r0,#0xdf
        0x08000d56:    4008        .@      ANDS     r0,r0,r1
        0x08000d58:    2845        E(      CMP      r0,#0x45
        0x08000d5a:    d016        ..      BEQ      0x8000d8a ; core_bench_state + 864
        0x08000d5c:    2009        .       MOVS     r0,#9
        0x08000d5e:    43c0        .C      MVNS     r0,r0
        0x08000d60:    393a        :9      SUBS     r1,r1,#0x3a
        0x08000d62:    ac08        ..      ADD      r4,sp,#0x20
        0x08000d64:    4281        .B      CMP      r1,r0
        0x08000d66:    d33a        :.      BCC      0x8000dde ; core_bench_state + 948
        0x08000d68:    7851        Qx      LDRB     r1,[r2,#1]
        0x08000d6a:    1c52        R.      ADDS     r2,r2,#1
        0x08000d6c:    2900        .)      CMP      r1,#0
        0x08000d6e:    d01b        ..      BEQ      0x8000da8 ; core_bench_state + 894
        0x08000d70:    292c        ,)      CMP      r1,#0x2c
        0x08000d72:    d1ef        ..      BNE      0x8000d54 ; core_bench_state + 810
        0x08000d74:    2705        .'      MOVS     r7,#5
        0x08000d76:    1c50        P.      ADDS     r0,r2,#1
        0x08000d78:    e783        ..      B        0x8000c82 ; core_bench_state + 600
        0x08000d7a:    2704        .'      MOVS     r7,#4
        0x08000d7c:    e015        ..      B        0x8000daa ; core_bench_state + 896
        0x08000d7e:    990b        ..      LDR      r1,[sp,#0x2c]
        0x08000d80:    1c49        I.      ADDS     r1,r1,#1
        0x08000d82:    910b        ..      STR      r1,[sp,#0x2c]
        0x08000d84:    1c82        ..      ADDS     r2,r0,#2
        0x08000d86:    7881        .x      LDRB     r1,[r0,#2]
        0x08000d88:    e7a5        ..      B        0x8000cd6 ; core_bench_state + 684
        0x08000d8a:    9808        ..      LDR      r0,[sp,#0x20]
        0x08000d8c:    1c40        @.      ADDS     r0,r0,#1
        0x08000d8e:    9008        ..      STR      r0,[sp,#0x20]
        0x08000d90:    1c50        P.      ADDS     r0,r2,#1
        0x08000d92:    7851        Qx      LDRB     r1,[r2,#1]
        0x08000d94:    2703        .'      MOVS     r7,#3
        0x08000d96:    ac0a        ..      ADD      r4,sp,#0x28
        0x08000d98:    292b        +)      CMP      r1,#0x2b
        0x08000d9a:    dc08        ..      BGT      0x8000dae ; core_bench_state + 900
        0x08000d9c:    2900        .)      CMP      r1,#0
        0x08000d9e:    d100        ..      BNE      0x8000da2 ; core_bench_state + 888
        0x08000da0:    e76f        o.      B        0x8000c82 ; core_bench_state + 600
        0x08000da2:    292b        +)      CMP      r1,#0x2b
        0x08000da4:    d008        ..      BEQ      0x8000db8 ; core_bench_state + 910
        0x08000da6:    e019        ..      B        0x8000ddc ; core_bench_state + 946
        0x08000da8:    2705        .'      MOVS     r7,#5
        0x08000daa:    4610        .F      MOV      r0,r2
        0x08000dac:    e769        i.      B        0x8000c82 ; core_bench_state + 600
        0x08000dae:    292c        ,)      CMP      r1,#0x2c
        0x08000db0:    d100        ..      BNE      0x8000db4 ; core_bench_state + 906
        0x08000db2:    e772        r.      B        0x8000c9a ; core_bench_state + 624
        0x08000db4:    292d        -)      CMP      r1,#0x2d
        0x08000db6:    d111        ..      BNE      0x8000ddc ; core_bench_state + 946
        0x08000db8:    980a        ..      LDR      r0,[sp,#0x28]
        0x08000dba:    1c40        @.      ADDS     r0,r0,#1
        0x08000dbc:    900a        ..      STR      r0,[sp,#0x28]
        0x08000dbe:    1c90        ..      ADDS     r0,r2,#2
        0x08000dc0:    7891        .x      LDRB     r1,[r2,#2]
        0x08000dc2:    2706        .'      MOVS     r7,#6
        0x08000dc4:    2900        .)      CMP      r1,#0
        0x08000dc6:    d100        ..      BNE      0x8000dca ; core_bench_state + 928
        0x08000dc8:    e75b        [.      B        0x8000c82 ; core_bench_state + 600
        0x08000dca:    292c        ,)      CMP      r1,#0x2c
        0x08000dcc:    d100        ..      BNE      0x8000dd0 ; core_bench_state + 934
        0x08000dce:    e764        d.      B        0x8000c9a ; core_bench_state + 624
        0x08000dd0:    2409        .$      MOVS     r4,#9
        0x08000dd2:    43e5        .C      MVNS     r5,r4
        0x08000dd4:    393a        :9      SUBS     r1,r1,#0x3a
        0x08000dd6:    ac07        ..      ADD      r4,sp,#0x1c
        0x08000dd8:    42a9        .B      CMP      r1,r5
        0x08000dda:    d206        ..      BCS      0x8000dea ; core_bench_state + 960
        0x08000ddc:    4602        .F      MOV      r2,r0
        0x08000dde:    6820         h      LDR      r0,[r4,#0]
        0x08000de0:    1c40        @.      ADDS     r0,r0,#1
        0x08000de2:    6020         `      STR      r0,[r4,#0]
        0x08000de4:    1c50        P.      ADDS     r0,r2,#1
        0x08000de6:    2701        .'      MOVS     r7,#1
        0x08000de8:    e74b        K.      B        0x8000c82 ; core_bench_state + 600
        0x08000dea:    9807        ..      LDR      r0,[sp,#0x1c]
        0x08000dec:    1c40        @.      ADDS     r0,r0,#1
        0x08000dee:    9007        ..      STR      r0,[sp,#0x1c]
        0x08000df0:    1cd0        ..      ADDS     r0,r2,#3
        0x08000df2:    78d1        .x      LDRB     r1,[r2,#3]
        0x08000df4:    2707        .'      MOVS     r7,#7
        0x08000df6:    2900        .)      CMP      r1,#0
        0x08000df8:    d100        ..      BNE      0x8000dfc ; core_bench_state + 978
        0x08000dfa:    e742        B.      B        0x8000c82 ; core_bench_state + 600
        0x08000dfc:    4602        .F      MOV      r2,r0
        0x08000dfe:    292c        ,)      CMP      r1,#0x2c
        0x08000e00:    d100        ..      BNE      0x8000e04 ; core_bench_state + 986
        0x08000e02:    e73d        =.      B        0x8000c80 ; core_bench_state + 598
        0x08000e04:    393a        :9      SUBS     r1,r1,#0x3a
        0x08000e06:    ac0c        ..      ADD      r4,sp,#0x30
        0x08000e08:    4299        .B      CMP      r1,r3
        0x08000e0a:    d9e8        ..      BLS      0x8000dde ; core_bench_state + 948
        0x08000e0c:    7851        Qx      LDRB     r1,[r2,#1]
        0x08000e0e:    1c52        R.      ADDS     r2,r2,#1
        0x08000e10:    2900        .)      CMP      r1,#0
        0x08000e12:    d1f4        ..      BNE      0x8000dfe ; core_bench_state + 980
        0x08000e14:    e7c9        ..      B        0x8000daa ; core_bench_state + 896
        0x08000e16:    9a1b        ..      LDR      r2,[sp,#0x6c]
        0x08000e18:    9803        ..      LDR      r0,[sp,#0xc]
        0x08000e1a:    2801        .(      CMP      r0,#1
        0x08000e1c:    db30        0.      BLT      0x8000e80 ; core_bench_state + 1110
        0x08000e1e:    2003        .       MOVS     r0,#3
        0x08000e20:    4370        pC      MULS     r0,r6,r0
        0x08000e22:    9901        ..      LDR      r1,[sp,#4]
        0x08000e24:    b2c9        ..      UXTB     r1,r1
        0x08000e26:    0073        s.      LSLS     r3,r6,#1
        0x08000e28:    e006        ..      B        0x8000e38 ; core_bench_state + 1038
        0x08000e2a:    19a4        ..      ADDS     r4,r4,r6
        0x08000e2c:    19a4        ..      ADDS     r4,r4,r6
        0x08000e2e:    19a4        ..      ADDS     r4,r4,r6
        0x08000e30:    9404        ..      STR      r4,[sp,#0x10]
        0x08000e32:    9d05        ..      LDR      r5,[sp,#0x14]
        0x08000e34:    42ac        .B      CMP      r4,r5
        0x08000e36:    d223        #.      BCS      0x8000e80 ; core_bench_state + 1110
        0x08000e38:    9d04        ..      LDR      r5,[sp,#0x10]
        0x08000e3a:    782c        ,x      LDRB     r4,[r5,#0]
        0x08000e3c:    2c2c        ,,      CMP      r4,#0x2c
        0x08000e3e:    d001        ..      BEQ      0x8000e44 ; core_bench_state + 1050
        0x08000e40:    404c        L@      EORS     r4,r4,r1
        0x08000e42:    702c        ,p      STRB     r4,[r5,#0]
        0x08000e44:    19ac        ..      ADDS     r4,r5,r6
        0x08000e46:    9d05        ..      LDR      r5,[sp,#0x14]
        0x08000e48:    42ac        .B      CMP      r4,r5
        0x08000e4a:    d219        ..      BCS      0x8000e80 ; core_bench_state + 1110
        0x08000e4c:    7825        %x      LDRB     r5,[r4,#0]
        0x08000e4e:    2d2c        ,-      CMP      r5,#0x2c
        0x08000e50:    d001        ..      BEQ      0x8000e56 ; core_bench_state + 1068
        0x08000e52:    404d        M@      EORS     r5,r5,r1
        0x08000e54:    7025        %p      STRB     r5,[r4,#0]
        0x08000e56:    9d04        ..      LDR      r5,[sp,#0x10]
        0x08000e58:    18ef        ..      ADDS     r7,r5,r3
        0x08000e5a:    9d05        ..      LDR      r5,[sp,#0x14]
        0x08000e5c:    42af        .B      CMP      r7,r5
        0x08000e5e:    d20f        ..      BCS      0x8000e80 ; core_bench_state + 1110
        0x08000e60:    783d        =x      LDRB     r5,[r7,#0]
        0x08000e62:    2d2c        ,-      CMP      r5,#0x2c
        0x08000e64:    d001        ..      BEQ      0x8000e6a ; core_bench_state + 1088
        0x08000e66:    404d        M@      EORS     r5,r5,r1
        0x08000e68:    703d        =p      STRB     r5,[r7,#0]
        0x08000e6a:    9d04        ..      LDR      r5,[sp,#0x10]
        0x08000e6c:    182f        /.      ADDS     r7,r5,r0
        0x08000e6e:    9d05        ..      LDR      r5,[sp,#0x14]
        0x08000e70:    42af        .B      CMP      r7,r5
        0x08000e72:    d205        ..      BCS      0x8000e80 ; core_bench_state + 1110
        0x08000e74:    783d        =x      LDRB     r5,[r7,#0]
        0x08000e76:    2d2c        ,-      CMP      r5,#0x2c
        0x08000e78:    d0d7        ..      BEQ      0x8000e2a ; core_bench_state + 1024
        0x08000e7a:    404d        M@      EORS     r5,r5,r1
        0x08000e7c:    703d        =p      STRB     r5,[r7,#0]
        0x08000e7e:    e7d4        ..      B        0x8000e2a ; core_bench_state + 1024
        0x08000e80:    980d        ..      LDR      r0,[sp,#0x34]
        0x08000e82:    4611        .F      MOV      r1,r2
        0x08000e84:    f000f928    ..(.    BL       crcu32 ; 0x80010d8
        0x08000e88:    4601        .F      MOV      r1,r0
        0x08000e8a:    9806        ..      LDR      r0,[sp,#0x18]
        0x08000e8c:    f000f924    ..$.    BL       crcu32 ; 0x80010d8
        0x08000e90:    4601        .F      MOV      r1,r0
        0x08000e92:    980e        ..      LDR      r0,[sp,#0x38]
        0x08000e94:    f000f920    .. .    BL       crcu32 ; 0x80010d8
        0x08000e98:    4601        .F      MOV      r1,r0
        0x08000e9a:    980c        ..      LDR      r0,[sp,#0x30]
        0x08000e9c:    f000f91c    ....    BL       crcu32 ; 0x80010d8
        0x08000ea0:    4601        .F      MOV      r1,r0
        0x08000ea2:    980f        ..      LDR      r0,[sp,#0x3c]
        0x08000ea4:    f000f918    ....    BL       crcu32 ; 0x80010d8
        0x08000ea8:    4601        .F      MOV      r1,r0
        0x08000eaa:    980b        ..      LDR      r0,[sp,#0x2c]
        0x08000eac:    f000f914    ....    BL       crcu32 ; 0x80010d8
        0x08000eb0:    4601        .F      MOV      r1,r0
        0x08000eb2:    9810        ..      LDR      r0,[sp,#0x40]
        0x08000eb4:    f000f910    ....    BL       crcu32 ; 0x80010d8
        0x08000eb8:    4601        .F      MOV      r1,r0
        0x08000eba:    980a        ..      LDR      r0,[sp,#0x28]
        0x08000ebc:    f000f90c    ....    BL       crcu32 ; 0x80010d8
        0x08000ec0:    4601        .F      MOV      r1,r0
        0x08000ec2:    9811        ..      LDR      r0,[sp,#0x44]
        0x08000ec4:    f000f908    ....    BL       crcu32 ; 0x80010d8
        0x08000ec8:    4601        .F      MOV      r1,r0
        0x08000eca:    9809        ..      LDR      r0,[sp,#0x24]
        0x08000ecc:    f000f904    ....    BL       crcu32 ; 0x80010d8
        0x08000ed0:    4601        .F      MOV      r1,r0
        0x08000ed2:    9812        ..      LDR      r0,[sp,#0x48]
        0x08000ed4:    f000f900    ....    BL       crcu32 ; 0x80010d8
        0x08000ed8:    4601        .F      MOV      r1,r0
        0x08000eda:    9808        ..      LDR      r0,[sp,#0x20]
        0x08000edc:    f000f8fc    ....    BL       crcu32 ; 0x80010d8
        0x08000ee0:    4601        .F      MOV      r1,r0
        0x08000ee2:    9813        ..      LDR      r0,[sp,#0x4c]
        0x08000ee4:    f000f8f8    ....    BL       crcu32 ; 0x80010d8
        0x08000ee8:    4601        .F      MOV      r1,r0
        0x08000eea:    9807        ..      LDR      r0,[sp,#0x1c]
        0x08000eec:    f000f8f4    ....    BL       crcu32 ; 0x80010d8
        0x08000ef0:    4601        .F      MOV      r1,r0
        0x08000ef2:    9814        ..      LDR      r0,[sp,#0x50]
        0x08000ef4:    f000f8f0    ....    BL       crcu32 ; 0x80010d8
        0x08000ef8:    4601        .F      MOV      r1,r0
        0x08000efa:    2000        .       MOVS     r0,#0
        0x08000efc:    f000f8ec    ....    BL       crcu32 ; 0x80010d8
        0x08000f00:    b015        ..      ADD      sp,sp,#0x54
        0x08000f02:    bdf0        ..      POP      {r4-r7,pc}
    crc16
        0x08000f04:    b5b0        ..      PUSH     {r4,r5,r7,lr}
        0x08000f06:    084b        K.      LSRS     r3,r1,#1
        0x08000f08:    4ae6        .J      LDR      r2,[pc,#920] ; [0x80012a4] = 0xffffa001
        0x08000f0a:    4041        A@      EORS     r1,r1,r0
        0x08000f0c:    07c9        ..      LSLS     r1,r1,#31
        0x08000f0e:    d000        ..      BEQ      0x8000f12 ; crc16 + 14
        0x08000f10:    4053        S@      EORS     r3,r3,r2
        0x08000f12:    0419        ..      LSLS     r1,r3,#16
        0x08000f14:    0c49        I.      LSRS     r1,r1,#17
        0x08000f16:    0844        D.      LSRS     r4,r0,#1
        0x08000f18:    405c        \@      EORS     r4,r4,r3
        0x08000f1a:    07e3        ..      LSLS     r3,r4,#31
        0x08000f1c:    d000        ..      BEQ      0x8000f20 ; crc16 + 28
        0x08000f1e:    4051        Q@      EORS     r1,r1,r2
        0x08000f20:    040b        ..      LSLS     r3,r1,#16
        0x08000f22:    0c5b        [.      LSRS     r3,r3,#17
        0x08000f24:    0884        ..      LSRS     r4,r0,#2
        0x08000f26:    404c        L@      EORS     r4,r4,r1
        0x08000f28:    07e1        ..      LSLS     r1,r4,#31
        0x08000f2a:    d000        ..      BEQ      0x8000f2e ; crc16 + 42
        0x08000f2c:    4053        S@      EORS     r3,r3,r2
        0x08000f2e:    0419        ..      LSLS     r1,r3,#16
        0x08000f30:    0c49        I.      LSRS     r1,r1,#17
        0x08000f32:    08c4        ..      LSRS     r4,r0,#3
        0x08000f34:    405c        \@      EORS     r4,r4,r3
        0x08000f36:    07e3        ..      LSLS     r3,r4,#31
        0x08000f38:    d000        ..      BEQ      0x8000f3c ; crc16 + 56
        0x08000f3a:    4051        Q@      EORS     r1,r1,r2
        0x08000f3c:    040b        ..      LSLS     r3,r1,#16
        0x08000f3e:    0c5b        [.      LSRS     r3,r3,#17
        0x08000f40:    0904        ..      LSRS     r4,r0,#4
        0x08000f42:    404c        L@      EORS     r4,r4,r1
        0x08000f44:    07e1        ..      LSLS     r1,r4,#31
        0x08000f46:    d000        ..      BEQ      0x8000f4a ; crc16 + 70
        0x08000f48:    4053        S@      EORS     r3,r3,r2
        0x08000f4a:    0419        ..      LSLS     r1,r3,#16
        0x08000f4c:    0c49        I.      LSRS     r1,r1,#17
        0x08000f4e:    0944        D.      LSRS     r4,r0,#5
        0x08000f50:    405c        \@      EORS     r4,r4,r3
        0x08000f52:    07e3        ..      LSLS     r3,r4,#31
        0x08000f54:    d000        ..      BEQ      0x8000f58 ; crc16 + 84
        0x08000f56:    4051        Q@      EORS     r1,r1,r2
        0x08000f58:    040b        ..      LSLS     r3,r1,#16
        0x08000f5a:    0c5b        [.      LSRS     r3,r3,#17
        0x08000f5c:    0984        ..      LSRS     r4,r0,#6
        0x08000f5e:    404c        L@      EORS     r4,r4,r1
        0x08000f60:    07e1        ..      LSLS     r1,r4,#31
        0x08000f62:    d000        ..      BEQ      0x8000f66 ; crc16 + 98
        0x08000f64:    4053        S@      EORS     r3,r3,r2
        0x08000f66:    2101        .!      MOVS     r1,#1
        0x08000f68:    041c        ..      LSLS     r4,r3,#16
        0x08000f6a:    400b        .@      ANDS     r3,r3,r1
        0x08000f6c:    0c64        d.      LSRS     r4,r4,#17
        0x08000f6e:    b2c5        ..      UXTB     r5,r0
        0x08000f70:    09ed        ..      LSRS     r5,r5,#7
        0x08000f72:    42ab        .B      CMP      r3,r5
        0x08000f74:    d000        ..      BEQ      0x8000f78 ; crc16 + 116
        0x08000f76:    4054        T@      EORS     r4,r4,r2
        0x08000f78:    0423        #.      LSLS     r3,r4,#16
        0x08000f7a:    0c5b        [.      LSRS     r3,r3,#17
        0x08000f7c:    0a05        ..      LSRS     r5,r0,#8
        0x08000f7e:    4065        e@      EORS     r5,r5,r4
        0x08000f80:    07ec        ..      LSLS     r4,r5,#31
        0x08000f82:    d000        ..      BEQ      0x8000f86 ; crc16 + 130
        0x08000f84:    4053        S@      EORS     r3,r3,r2
        0x08000f86:    041c        ..      LSLS     r4,r3,#16
        0x08000f88:    0c64        d.      LSRS     r4,r4,#17
        0x08000f8a:    0a45        E.      LSRS     r5,r0,#9
        0x08000f8c:    405d        ]@      EORS     r5,r5,r3
        0x08000f8e:    07eb        ..      LSLS     r3,r5,#31
        0x08000f90:    d000        ..      BEQ      0x8000f94 ; crc16 + 144
        0x08000f92:    4054        T@      EORS     r4,r4,r2
        0x08000f94:    0423        #.      LSLS     r3,r4,#16
        0x08000f96:    0c5b        [.      LSRS     r3,r3,#17
        0x08000f98:    0a85        ..      LSRS     r5,r0,#10
        0x08000f9a:    4065        e@      EORS     r5,r5,r4
        0x08000f9c:    07ec        ..      LSLS     r4,r5,#31
        0x08000f9e:    d000        ..      BEQ      0x8000fa2 ; crc16 + 158
        0x08000fa0:    4053        S@      EORS     r3,r3,r2
        0x08000fa2:    041c        ..      LSLS     r4,r3,#16
        0x08000fa4:    0c64        d.      LSRS     r4,r4,#17
        0x08000fa6:    0ac5        ..      LSRS     r5,r0,#11
        0x08000fa8:    405d        ]@      EORS     r5,r5,r3
        0x08000faa:    07eb        ..      LSLS     r3,r5,#31
        0x08000fac:    d000        ..      BEQ      0x8000fb0 ; crc16 + 172
        0x08000fae:    4054        T@      EORS     r4,r4,r2
        0x08000fb0:    0423        #.      LSLS     r3,r4,#16
        0x08000fb2:    0c5b        [.      LSRS     r3,r3,#17
        0x08000fb4:    0b05        ..      LSRS     r5,r0,#12
        0x08000fb6:    4065        e@      EORS     r5,r5,r4
        0x08000fb8:    07ec        ..      LSLS     r4,r5,#31
        0x08000fba:    d000        ..      BEQ      0x8000fbe ; crc16 + 186
        0x08000fbc:    4053        S@      EORS     r3,r3,r2
        0x08000fbe:    041c        ..      LSLS     r4,r3,#16
        0x08000fc0:    0c64        d.      LSRS     r4,r4,#17
        0x08000fc2:    0b45        E.      LSRS     r5,r0,#13
        0x08000fc4:    405d        ]@      EORS     r5,r5,r3
        0x08000fc6:    07eb        ..      LSLS     r3,r5,#31
        0x08000fc8:    d000        ..      BEQ      0x8000fcc ; crc16 + 200
        0x08000fca:    4054        T@      EORS     r4,r4,r2
        0x08000fcc:    0423        #.      LSLS     r3,r4,#16
        0x08000fce:    0c5b        [.      LSRS     r3,r3,#17
        0x08000fd0:    0b85        ..      LSRS     r5,r0,#14
        0x08000fd2:    4065        e@      EORS     r5,r5,r4
        0x08000fd4:    07ec        ..      LSLS     r4,r5,#31
        0x08000fd6:    d000        ..      BEQ      0x8000fda ; crc16 + 214
        0x08000fd8:    4053        S@      EORS     r3,r3,r2
        0x08000fda:    4019        .@      ANDS     r1,r1,r3
        0x08000fdc:    041b        ..      LSLS     r3,r3,#16
        0x08000fde:    0c5b        [.      LSRS     r3,r3,#17
        0x08000fe0:    b280        ..      UXTH     r0,r0
        0x08000fe2:    0bc0        ..      LSRS     r0,r0,#15
        0x08000fe4:    4281        .B      CMP      r1,r0
        0x08000fe6:    d000        ..      BEQ      0x8000fea ; crc16 + 230
        0x08000fe8:    4053        S@      EORS     r3,r3,r2
        0x08000fea:    b298        ..      UXTH     r0,r3
        0x08000fec:    bdb0        ..      POP      {r4,r5,r7,pc}
        0x08000fee:    46c0        .F      MOV      r8,r8
    crcu16
        0x08000ff0:    b5b0        ..      PUSH     {r4,r5,r7,lr}
        0x08000ff2:    084b        K.      LSRS     r3,r1,#1
        0x08000ff4:    4aab        .J      LDR      r2,[pc,#684] ; [0x80012a4] = 0xffffa001
        0x08000ff6:    4041        A@      EORS     r1,r1,r0
        0x08000ff8:    07c9        ..      LSLS     r1,r1,#31
        0x08000ffa:    d000        ..      BEQ      0x8000ffe ; crcu16 + 14
        0x08000ffc:    4053        S@      EORS     r3,r3,r2
        0x08000ffe:    0419        ..      LSLS     r1,r3,#16
        0x08001000:    0c49        I.      LSRS     r1,r1,#17
        0x08001002:    0844        D.      LSRS     r4,r0,#1
        0x08001004:    405c        \@      EORS     r4,r4,r3
        0x08001006:    07e3        ..      LSLS     r3,r4,#31
        0x08001008:    d000        ..      BEQ      0x800100c ; crcu16 + 28
        0x0800100a:    4051        Q@      EORS     r1,r1,r2
        0x0800100c:    040b        ..      LSLS     r3,r1,#16
        0x0800100e:    0c5b        [.      LSRS     r3,r3,#17
        0x08001010:    0884        ..      LSRS     r4,r0,#2
        0x08001012:    404c        L@      EORS     r4,r4,r1
        0x08001014:    07e1        ..      LSLS     r1,r4,#31
        0x08001016:    d000        ..      BEQ      0x800101a ; crcu16 + 42
        0x08001018:    4053        S@      EORS     r3,r3,r2
        0x0800101a:    0419        ..      LSLS     r1,r3,#16
        0x0800101c:    0c49        I.      LSRS     r1,r1,#17
        0x0800101e:    08c4        ..      LSRS     r4,r0,#3
        0x08001020:    405c        \@      EORS     r4,r4,r3
        0x08001022:    07e3        ..      LSLS     r3,r4,#31
        0x08001024:    d000        ..      BEQ      0x8001028 ; crcu16 + 56
        0x08001026:    4051        Q@      EORS     r1,r1,r2
        0x08001028:    040b        ..      LSLS     r3,r1,#16
        0x0800102a:    0c5b        [.      LSRS     r3,r3,#17
        0x0800102c:    0904        ..      LSRS     r4,r0,#4
        0x0800102e:    404c        L@      EORS     r4,r4,r1
        0x08001030:    07e1        ..      LSLS     r1,r4,#31
        0x08001032:    d000        ..      BEQ      0x8001036 ; crcu16 + 70
        0x08001034:    4053        S@      EORS     r3,r3,r2
        0x08001036:    0419        ..      LSLS     r1,r3,#16
        0x08001038:    0c49        I.      LSRS     r1,r1,#17
        0x0800103a:    0944        D.      LSRS     r4,r0,#5
        0x0800103c:    405c        \@      EORS     r4,r4,r3
        0x0800103e:    07e3        ..      LSLS     r3,r4,#31
        0x08001040:    d000        ..      BEQ      0x8001044 ; crcu16 + 84
        0x08001042:    4051        Q@      EORS     r1,r1,r2
        0x08001044:    040b        ..      LSLS     r3,r1,#16
        0x08001046:    0c5b        [.      LSRS     r3,r3,#17
        0x08001048:    0984        ..      LSRS     r4,r0,#6
        0x0800104a:    404c        L@      EORS     r4,r4,r1
        0x0800104c:    07e1        ..      LSLS     r1,r4,#31
        0x0800104e:    d000        ..      BEQ      0x8001052 ; crcu16 + 98
        0x08001050:    4053        S@      EORS     r3,r3,r2
        0x08001052:    2101        .!      MOVS     r1,#1
        0x08001054:    041c        ..      LSLS     r4,r3,#16
        0x08001056:    400b        .@      ANDS     r3,r3,r1
        0x08001058:    0c64        d.      LSRS     r4,r4,#17
        0x0800105a:    b2c5        ..      UXTB     r5,r0
        0x0800105c:    09ed        ..      LSRS     r5,r5,#7
        0x0800105e:    42ab        .B      CMP      r3,r5
        0x08001060:    d000        ..      BEQ      0x8001064 ; crcu16 + 116
        0x08001062:    4054        T@      EORS     r4,r4,r2
        0x08001064:    0423        #.      LSLS     r3,r4,#16
        0x08001066:    0c5b        [.      LSRS     r3,r3,#17
        0x08001068:    0a05        ..      LSRS     r5,r0,#8
        0x0800106a:    4065        e@      EORS     r5,r5,r4
        0x0800106c:    07ec        ..      LSLS     r4,r5,#31
        0x0800106e:    d000        ..      BEQ      0x8001072 ; crcu16 + 130
        0x08001070:    4053        S@      EORS     r3,r3,r2
        0x08001072:    041c        ..      LSLS     r4,r3,#16
        0x08001074:    0c64        d.      LSRS     r4,r4,#17
        0x08001076:    0a45        E.      LSRS     r5,r0,#9
        0x08001078:    405d        ]@      EORS     r5,r5,r3
        0x0800107a:    07eb        ..      LSLS     r3,r5,#31
        0x0800107c:    d000        ..      BEQ      0x8001080 ; crcu16 + 144
        0x0800107e:    4054        T@      EORS     r4,r4,r2
        0x08001080:    0423        #.      LSLS     r3,r4,#16
        0x08001082:    0c5b        [.      LSRS     r3,r3,#17
        0x08001084:    0a85        ..      LSRS     r5,r0,#10
        0x08001086:    4065        e@      EORS     r5,r5,r4
        0x08001088:    07ec        ..      LSLS     r4,r5,#31
        0x0800108a:    d000        ..      BEQ      0x800108e ; crcu16 + 158
        0x0800108c:    4053        S@      EORS     r3,r3,r2
        0x0800108e:    041c        ..      LSLS     r4,r3,#16
        0x08001090:    0c64        d.      LSRS     r4,r4,#17
        0x08001092:    0ac5        ..      LSRS     r5,r0,#11
        0x08001094:    405d        ]@      EORS     r5,r5,r3
        0x08001096:    07eb        ..      LSLS     r3,r5,#31
        0x08001098:    d000        ..      BEQ      0x800109c ; crcu16 + 172
        0x0800109a:    4054        T@      EORS     r4,r4,r2
        0x0800109c:    0423        #.      LSLS     r3,r4,#16
        0x0800109e:    0c5b        [.      LSRS     r3,r3,#17
        0x080010a0:    0b05        ..      LSRS     r5,r0,#12
        0x080010a2:    4065        e@      EORS     r5,r5,r4
        0x080010a4:    07ec        ..      LSLS     r4,r5,#31
        0x080010a6:    d000        ..      BEQ      0x80010aa ; crcu16 + 186
        0x080010a8:    4053        S@      EORS     r3,r3,r2
        0x080010aa:    041c        ..      LSLS     r4,r3,#16
        0x080010ac:    0c64        d.      LSRS     r4,r4,#17
        0x080010ae:    0b45        E.      LSRS     r5,r0,#13
        0x080010b0:    405d        ]@      EORS     r5,r5,r3
        0x080010b2:    07eb        ..      LSLS     r3,r5,#31
        0x080010b4:    d000        ..      BEQ      0x80010b8 ; crcu16 + 200
        0x080010b6:    4054        T@      EORS     r4,r4,r2
        0x080010b8:    0423        #.      LSLS     r3,r4,#16
        0x080010ba:    0c5b        [.      LSRS     r3,r3,#17
        0x080010bc:    0b85        ..      LSRS     r5,r0,#14
        0x080010be:    4065        e@      EORS     r5,r5,r4
        0x080010c0:    07ec        ..      LSLS     r4,r5,#31
        0x080010c2:    d000        ..      BEQ      0x80010c6 ; crcu16 + 214
        0x080010c4:    4053        S@      EORS     r3,r3,r2
        0x080010c6:    4019        .@      ANDS     r1,r1,r3
        0x080010c8:    041b        ..      LSLS     r3,r3,#16
        0x080010ca:    0c5b        [.      LSRS     r3,r3,#17
        0x080010cc:    0bc0        ..      LSRS     r0,r0,#15
        0x080010ce:    4281        .B      CMP      r1,r0
        0x080010d0:    d000        ..      BEQ      0x80010d4 ; crcu16 + 228
        0x080010d2:    4053        S@      EORS     r3,r3,r2
        0x080010d4:    b298        ..      UXTH     r0,r3
        0x080010d6:    bdb0        ..      POP      {r4,r5,r7,pc}
    crcu32
        0x080010d8:    b5b0        ..      PUSH     {r4,r5,r7,lr}
        0x080010da:    084b        K.      LSRS     r3,r1,#1
        0x080010dc:    4a71        qJ      LDR      r2,[pc,#452] ; [0x80012a4] = 0xffffa001
        0x080010de:    4041        A@      EORS     r1,r1,r0
        0x080010e0:    07c9        ..      LSLS     r1,r1,#31
        0x080010e2:    d000        ..      BEQ      0x80010e6 ; crcu32 + 14
        0x080010e4:    4053        S@      EORS     r3,r3,r2
        0x080010e6:    0419        ..      LSLS     r1,r3,#16
        0x080010e8:    0c49        I.      LSRS     r1,r1,#17
        0x080010ea:    0844        D.      LSRS     r4,r0,#1
        0x080010ec:    405c        \@      EORS     r4,r4,r3
        0x080010ee:    07e3        ..      LSLS     r3,r4,#31
        0x080010f0:    d000        ..      BEQ      0x80010f4 ; crcu32 + 28
        0x080010f2:    4051        Q@      EORS     r1,r1,r2
        0x080010f4:    040b        ..      LSLS     r3,r1,#16
        0x080010f6:    0c5b        [.      LSRS     r3,r3,#17
        0x080010f8:    0884        ..      LSRS     r4,r0,#2
        0x080010fa:    404c        L@      EORS     r4,r4,r1
        0x080010fc:    07e1        ..      LSLS     r1,r4,#31
        0x080010fe:    d000        ..      BEQ      0x8001102 ; crcu32 + 42
        0x08001100:    4053        S@      EORS     r3,r3,r2
        0x08001102:    0419        ..      LSLS     r1,r3,#16
        0x08001104:    0c49        I.      LSRS     r1,r1,#17
        0x08001106:    08c4        ..      LSRS     r4,r0,#3
        0x08001108:    405c        \@      EORS     r4,r4,r3
        0x0800110a:    07e3        ..      LSLS     r3,r4,#31
        0x0800110c:    d000        ..      BEQ      0x8001110 ; crcu32 + 56
        0x0800110e:    4051        Q@      EORS     r1,r1,r2
        0x08001110:    040b        ..      LSLS     r3,r1,#16
        0x08001112:    0c5b        [.      LSRS     r3,r3,#17
        0x08001114:    0904        ..      LSRS     r4,r0,#4
        0x08001116:    404c        L@      EORS     r4,r4,r1
        0x08001118:    07e1        ..      LSLS     r1,r4,#31
        0x0800111a:    d000        ..      BEQ      0x800111e ; crcu32 + 70
        0x0800111c:    4053        S@      EORS     r3,r3,r2
        0x0800111e:    0419        ..      LSLS     r1,r3,#16
        0x08001120:    0c49        I.      LSRS     r1,r1,#17
        0x08001122:    0944        D.      LSRS     r4,r0,#5
        0x08001124:    405c        \@      EORS     r4,r4,r3
        0x08001126:    07e3        ..      LSLS     r3,r4,#31
        0x08001128:    d000        ..      BEQ      0x800112c ; crcu32 + 84
        0x0800112a:    4051        Q@      EORS     r1,r1,r2
        0x0800112c:    040b        ..      LSLS     r3,r1,#16
        0x0800112e:    0c5b        [.      LSRS     r3,r3,#17
        0x08001130:    0984        ..      LSRS     r4,r0,#6
        0x08001132:    404c        L@      EORS     r4,r4,r1
        0x08001134:    07e1        ..      LSLS     r1,r4,#31
        0x08001136:    d000        ..      BEQ      0x800113a ; crcu32 + 98
        0x08001138:    4053        S@      EORS     r3,r3,r2
        0x0800113a:    2101        .!      MOVS     r1,#1
        0x0800113c:    041c        ..      LSLS     r4,r3,#16
        0x0800113e:    400b        .@      ANDS     r3,r3,r1
        0x08001140:    0c64        d.      LSRS     r4,r4,#17
        0x08001142:    b2c5        ..      UXTB     r5,r0
        0x08001144:    09ed        ..      LSRS     r5,r5,#7
        0x08001146:    42ab        .B      CMP      r3,r5
        0x08001148:    d000        ..      BEQ      0x800114c ; crcu32 + 116
        0x0800114a:    4054        T@      EORS     r4,r4,r2
        0x0800114c:    0423        #.      LSLS     r3,r4,#16
        0x0800114e:    0c5b        [.      LSRS     r3,r3,#17
        0x08001150:    0a05        ..      LSRS     r5,r0,#8
        0x08001152:    4065        e@      EORS     r5,r5,r4
        0x08001154:    07ec        ..      LSLS     r4,r5,#31
        0x08001156:    d000        ..      BEQ      0x800115a ; crcu32 + 130
        0x08001158:    4053        S@      EORS     r3,r3,r2
        0x0800115a:    041c        ..      LSLS     r4,r3,#16
        0x0800115c:    0c64        d.      LSRS     r4,r4,#17
        0x0800115e:    0a45        E.      LSRS     r5,r0,#9
        0x08001160:    405d        ]@      EORS     r5,r5,r3
        0x08001162:    07eb        ..      LSLS     r3,r5,#31
        0x08001164:    d000        ..      BEQ      0x8001168 ; crcu32 + 144
        0x08001166:    4054        T@      EORS     r4,r4,r2
        0x08001168:    0423        #.      LSLS     r3,r4,#16
        0x0800116a:    0c5b        [.      LSRS     r3,r3,#17
        0x0800116c:    0a85        ..      LSRS     r5,r0,#10
        0x0800116e:    4065        e@      EORS     r5,r5,r4
        0x08001170:    07ec        ..      LSLS     r4,r5,#31
        0x08001172:    d000        ..      BEQ      0x8001176 ; crcu32 + 158
        0x08001174:    4053        S@      EORS     r3,r3,r2
        0x08001176:    041c        ..      LSLS     r4,r3,#16
        0x08001178:    0c64        d.      LSRS     r4,r4,#17
        0x0800117a:    0ac5        ..      LSRS     r5,r0,#11
        0x0800117c:    405d        ]@      EORS     r5,r5,r3
        0x0800117e:    07eb        ..      LSLS     r3,r5,#31
        0x08001180:    d000        ..      BEQ      0x8001184 ; crcu32 + 172
        0x08001182:    4054        T@      EORS     r4,r4,r2
        0x08001184:    0423        #.      LSLS     r3,r4,#16
        0x08001186:    0c5b        [.      LSRS     r3,r3,#17
        0x08001188:    0b05        ..      LSRS     r5,r0,#12
        0x0800118a:    4065        e@      EORS     r5,r5,r4
        0x0800118c:    07ec        ..      LSLS     r4,r5,#31
        0x0800118e:    d000        ..      BEQ      0x8001192 ; crcu32 + 186
        0x08001190:    4053        S@      EORS     r3,r3,r2
        0x08001192:    041c        ..      LSLS     r4,r3,#16
        0x08001194:    0c64        d.      LSRS     r4,r4,#17
        0x08001196:    0b45        E.      LSRS     r5,r0,#13
        0x08001198:    405d        ]@      EORS     r5,r5,r3
        0x0800119a:    07eb        ..      LSLS     r3,r5,#31
        0x0800119c:    d000        ..      BEQ      0x80011a0 ; crcu32 + 200
        0x0800119e:    4054        T@      EORS     r4,r4,r2
        0x080011a0:    0423        #.      LSLS     r3,r4,#16
        0x080011a2:    0c5b        [.      LSRS     r3,r3,#17
        0x080011a4:    0b85        ..      LSRS     r5,r0,#14
        0x080011a6:    4065        e@      EORS     r5,r5,r4
        0x080011a8:    07ec        ..      LSLS     r4,r5,#31
        0x080011aa:    d000        ..      BEQ      0x80011ae ; crcu32 + 214
        0x080011ac:    4053        S@      EORS     r3,r3,r2
        0x080011ae:    041c        ..      LSLS     r4,r3,#16
        0x080011b0:    400b        .@      ANDS     r3,r3,r1
        0x080011b2:    0c64        d.      LSRS     r4,r4,#17
        0x080011b4:    b285        ..      UXTH     r5,r0
        0x080011b6:    0bed        ..      LSRS     r5,r5,#15
        0x080011b8:    42ab        .B      CMP      r3,r5
        0x080011ba:    d000        ..      BEQ      0x80011be ; crcu32 + 230
        0x080011bc:    4054        T@      EORS     r4,r4,r2
        0x080011be:    0423        #.      LSLS     r3,r4,#16
        0x080011c0:    0c5b        [.      LSRS     r3,r3,#17
        0x080011c2:    0c05        ..      LSRS     r5,r0,#16
        0x080011c4:    4065        e@      EORS     r5,r5,r4
        0x080011c6:    07ec        ..      LSLS     r4,r5,#31
        0x080011c8:    d000        ..      BEQ      0x80011cc ; crcu32 + 244
        0x080011ca:    4053        S@      EORS     r3,r3,r2
        0x080011cc:    041c        ..      LSLS     r4,r3,#16
        0x080011ce:    0c64        d.      LSRS     r4,r4,#17
        0x080011d0:    0c45        E.      LSRS     r5,r0,#17
        0x080011d2:    405d        ]@      EORS     r5,r5,r3
        0x080011d4:    07eb        ..      LSLS     r3,r5,#31
        0x080011d6:    d000        ..      BEQ      0x80011da ; crcu32 + 258
        0x080011d8:    4054        T@      EORS     r4,r4,r2
        0x080011da:    0423        #.      LSLS     r3,r4,#16
        0x080011dc:    0c5b        [.      LSRS     r3,r3,#17
        0x080011de:    0c85        ..      LSRS     r5,r0,#18
        0x080011e0:    4065        e@      EORS     r5,r5,r4
        0x080011e2:    07ec        ..      LSLS     r4,r5,#31
        0x080011e4:    d000        ..      BEQ      0x80011e8 ; crcu32 + 272
        0x080011e6:    4053        S@      EORS     r3,r3,r2
        0x080011e8:    041c        ..      LSLS     r4,r3,#16
        0x080011ea:    0c64        d.      LSRS     r4,r4,#17
        0x080011ec:    0cc5        ..      LSRS     r5,r0,#19
        0x080011ee:    405d        ]@      EORS     r5,r5,r3
        0x080011f0:    07eb        ..      LSLS     r3,r5,#31
        0x080011f2:    d000        ..      BEQ      0x80011f6 ; crcu32 + 286
        0x080011f4:    4054        T@      EORS     r4,r4,r2
        0x080011f6:    0423        #.      LSLS     r3,r4,#16
        0x080011f8:    0c5b        [.      LSRS     r3,r3,#17
        0x080011fa:    0d05        ..      LSRS     r5,r0,#20
        0x080011fc:    4065        e@      EORS     r5,r5,r4
        0x080011fe:    07ec        ..      LSLS     r4,r5,#31
        0x08001200:    d000        ..      BEQ      0x8001204 ; crcu32 + 300
        0x08001202:    4053        S@      EORS     r3,r3,r2
        0x08001204:    041c        ..      LSLS     r4,r3,#16
        0x08001206:    0c64        d.      LSRS     r4,r4,#17
        0x08001208:    0d45        E.      LSRS     r5,r0,#21
        0x0800120a:    405d        ]@      EORS     r5,r5,r3
        0x0800120c:    07eb        ..      LSLS     r3,r5,#31
        0x0800120e:    d000        ..      BEQ      0x8001212 ; crcu32 + 314
        0x08001210:    4054        T@      EORS     r4,r4,r2
        0x08001212:    0423        #.      LSLS     r3,r4,#16
        0x08001214:    0c5b        [.      LSRS     r3,r3,#17
        0x08001216:    0d85        ..      LSRS     r5,r0,#22
        0x08001218:    4065        e@      EORS     r5,r5,r4
        0x0800121a:    07ec        ..      LSLS     r4,r5,#31
        0x0800121c:    d000        ..      BEQ      0x8001220 ; crcu32 + 328
        0x0800121e:    4053        S@      EORS     r3,r3,r2
        0x08001220:    041c        ..      LSLS     r4,r3,#16
        0x08001222:    400b        .@      ANDS     r3,r3,r1
        0x08001224:    0c64        d.      LSRS     r4,r4,#17
        0x08001226:    0205        ..      LSLS     r5,r0,#8
        0x08001228:    0fed        ..      LSRS     r5,r5,#31
        0x0800122a:    42ab        .B      CMP      r3,r5
        0x0800122c:    d000        ..      BEQ      0x8001230 ; crcu32 + 344
        0x0800122e:    4054        T@      EORS     r4,r4,r2
        0x08001230:    0423        #.      LSLS     r3,r4,#16
        0x08001232:    0c5b        [.      LSRS     r3,r3,#17
        0x08001234:    0e05        ..      LSRS     r5,r0,#24
        0x08001236:    4065        e@      EORS     r5,r5,r4
        0x08001238:    07ec        ..      LSLS     r4,r5,#31
        0x0800123a:    d000        ..      BEQ      0x800123e ; crcu32 + 358
        0x0800123c:    4053        S@      EORS     r3,r3,r2
        0x0800123e:    041c        ..      LSLS     r4,r3,#16
        0x08001240:    0c64        d.      LSRS     r4,r4,#17
        0x08001242:    0e45        E.      LSRS     r5,r0,#25
        0x08001244:    405d        ]@      EORS     r5,r5,r3
        0x08001246:    07eb        ..      LSLS     r3,r5,#31
        0x08001248:    d000        ..      BEQ      0x800124c ; crcu32 + 372
        0x0800124a:    4054        T@      EORS     r4,r4,r2
        0x0800124c:    0423        #.      LSLS     r3,r4,#16
        0x0800124e:    0c5b        [.      LSRS     r3,r3,#17
        0x08001250:    0e85        ..      LSRS     r5,r0,#26
        0x08001252:    4065        e@      EORS     r5,r5,r4
        0x08001254:    07ec        ..      LSLS     r4,r5,#31
        0x08001256:    d000        ..      BEQ      0x800125a ; crcu32 + 386
        0x08001258:    4053        S@      EORS     r3,r3,r2
        0x0800125a:    041c        ..      LSLS     r4,r3,#16
        0x0800125c:    0c64        d.      LSRS     r4,r4,#17
        0x0800125e:    0ec5        ..      LSRS     r5,r0,#27
        0x08001260:    405d        ]@      EORS     r5,r5,r3
        0x08001262:    07eb        ..      LSLS     r3,r5,#31
        0x08001264:    d000        ..      BEQ      0x8001268 ; crcu32 + 400
        0x08001266:    4054        T@      EORS     r4,r4,r2
        0x08001268:    0423        #.      LSLS     r3,r4,#16
        0x0800126a:    0c5b        [.      LSRS     r3,r3,#17
        0x0800126c:    0f05        ..      LSRS     r5,r0,#28
        0x0800126e:    4065        e@      EORS     r5,r5,r4
        0x08001270:    07ec        ..      LSLS     r4,r5,#31
        0x08001272:    d000        ..      BEQ      0x8001276 ; crcu32 + 414
        0x08001274:    4053        S@      EORS     r3,r3,r2
        0x08001276:    041c        ..      LSLS     r4,r3,#16
        0x08001278:    0c64        d.      LSRS     r4,r4,#17
        0x0800127a:    0f45        E.      LSRS     r5,r0,#29
        0x0800127c:    405d        ]@      EORS     r5,r5,r3
        0x0800127e:    07eb        ..      LSLS     r3,r5,#31
        0x08001280:    d000        ..      BEQ      0x8001284 ; crcu32 + 428
        0x08001282:    4054        T@      EORS     r4,r4,r2
        0x08001284:    0423        #.      LSLS     r3,r4,#16
        0x08001286:    0c5b        [.      LSRS     r3,r3,#17
        0x08001288:    0f85        ..      LSRS     r5,r0,#30
        0x0800128a:    4065        e@      EORS     r5,r5,r4
        0x0800128c:    07ec        ..      LSLS     r4,r5,#31
        0x0800128e:    d000        ..      BEQ      0x8001292 ; crcu32 + 442
        0x08001290:    4053        S@      EORS     r3,r3,r2
        0x08001292:    4019        .@      ANDS     r1,r1,r3
        0x08001294:    041b        ..      LSLS     r3,r3,#16
        0x08001296:    0c5b        [.      LSRS     r3,r3,#17
        0x08001298:    0fc0        ..      LSRS     r0,r0,#31
        0x0800129a:    4281        .B      CMP      r1,r0
        0x0800129c:    d000        ..      BEQ      0x80012a0 ; crcu32 + 456
        0x0800129e:    4053        S@      EORS     r3,r3,r2
        0x080012a0:    b298        ..      UXTH     r0,r3
        0x080012a2:    bdb0        ..      POP      {r4,r5,r7,pc}
    $d
    __arm_cp.11_0
        0x080012a4:    ffffa001    ....    DCD    4294942721
    $t
    ee_printf
        0x080012a8:    b083        ..      SUB      sp,sp,#0xc
        0x080012aa:    b5f0        ..      PUSH     {r4-r7,lr}
        0x080012ac:    b0ff        ..      SUB      sp,sp,#0x1fc
        0x080012ae:    b0ff        ..      SUB      sp,sp,#0x1fc
        0x080012b0:    b0a8        ..      SUB      sp,sp,#0xa0
        0x080012b2:    4605        .F      MOV      r5,r0
        0x080012b4:    4889        .H      LDR      r0,[pc,#548] ; [0x80014dc] = 0x4ac
        0x080012b6:    4468        hD      ADD      r0,sp,r0
        0x080012b8:    6001        .`      STR      r1,[r0,#0]
        0x080012ba:    4889        .H      LDR      r0,[pc,#548] ; [0x80014e0] = 0x4b0
        0x080012bc:    4468        hD      ADD      r0,sp,r0
        0x080012be:    6002        .`      STR      r2,[r0,#0]
        0x080012c0:    4888        .H      LDR      r0,[pc,#544] ; [0x80014e4] = 0x4b4
        0x080012c2:    4468        hD      ADD      r0,sp,r0
        0x080012c4:    6003        .`      STR      r3,[r0,#0]
        0x080012c6:    afff        ..      ADD      r7,sp,#0x3fc
        0x080012c8:    37b0        .7      ADDS     r7,r7,#0xb0
        0x080012ca:    9714        ..      STR      r7,[sp,#0x50]
        0x080012cc:    a8ff        ..      ADD      r0,sp,#0x3fc
        0x080012ce:    3058        X0      ADDS     r0,r0,#0x58
        0x080012d0:    1c40        @.      ADDS     r0,r0,#1
        0x080012d2:    9003        ..      STR      r0,[sp,#0xc]
        0x080012d4:    2000        .       MOVS     r0,#0
        0x080012d6:    9009        ..      STR      r0,[sp,#0x24]
        0x080012d8:    43c0        .C      MVNS     r0,r0
        0x080012da:    900a        ..      STR      r0,[sp,#0x28]
        0x080012dc:    ae15        ..      ADD      r6,sp,#0x54
        0x080012de:    2001        .       MOVS     r0,#1
        0x080012e0:    900b        ..      STR      r0,[sp,#0x2c]
        0x080012e2:    e002        ..      B        0x80012ea ; ee_printf + 66
        0x080012e4:    4606        .F      MOV      r6,r0
        0x080012e6:    9f0e        ..      LDR      r7,[sp,#0x38]
        0x080012e8:    1c6d        m.      ADDS     r5,r5,#1
        0x080012ea:    7828        (x      LDRB     r0,[r5,#0]
        0x080012ec:    2825        %(      CMP      r0,#0x25
        0x080012ee:    d007        ..      BEQ      0x8001300 ; ee_printf + 88
        0x080012f0:    2800        .(      CMP      r0,#0
        0x080012f2:    d101        ..      BNE      0x80012f8 ; ee_printf + 80
        0x080012f4:    f000fdac    ....    BL       0x8001e50 ; 0x8001e50
        0x080012f8:    7030        0p      STRB     r0,[r6,#0]
        0x080012fa:    1c76        v.      ADDS     r6,r6,#1
        0x080012fc:    1c6d        m.      ADDS     r5,r5,#1
        0x080012fe:    e7f4        ..      B        0x80012ea ; ee_printf + 66
        0x08001300:    960f        ..      STR      r6,[sp,#0x3c]
        0x08001302:    1ce8        ..      ADDS     r0,r5,#3
        0x08001304:    1c6d        m.      ADDS     r5,r5,#1
        0x08001306:    9a09        ..      LDR      r2,[sp,#0x24]
        0x08001308:    4616        .F      MOV      r6,r2
        0x0800130a:    7829        )x      LDRB     r1,[r5,#0]
        0x0800130c:    460b        .F      MOV      r3,r1
        0x0800130e:    3b20         ;      SUBS     r3,r3,#0x20
        0x08001310:    2b10        .+      CMP      r3,#0x10
        0x08001312:    d81a        ..      BHI      0x800134a ; ee_printf + 162
        0x08001314:    2204        ."      MOVS     r2,#4
        0x08001316:    46c0        .F      MOV      r8,r8
        0x08001318:    447b        {D      ADD      r3,r3,pc
        0x0800131a:    791b        .y      LDRB     r3,[r3,#4]
        0x0800131c:    005b        [.      LSLS     r3,r3,#1
        0x0800131e:    449f        .D      ADD      pc,pc,r3
    $d
        0x08001320:    0e14140c    ....    DCD    236196876
        0x08001324:    14141414    ....    DCD    336860180
        0x08001328:    08141414    ....    DCD    135533588
        0x0800132c:    14141014    ....    DCD    336859156
        0x08001330:    0012        ..      DCW    18
    $t
        0x08001332:    4332        2C      ORRS     r2,r2,r6
        0x08001334:    1c40        @.      ADDS     r0,r0,#1
        0x08001336:    1c6d        m.      ADDS     r5,r5,#1
        0x08001338:    e7e6        ..      B        0x8001308 ; ee_printf + 96
        0x0800133a:    2208        ."      MOVS     r2,#8
        0x0800133c:    e7f9        ..      B        0x8001332 ; ee_printf + 138
        0x0800133e:    2220         "      MOVS     r2,#0x20
        0x08001340:    e7f7        ..      B        0x8001332 ; ee_printf + 138
        0x08001342:    2210        ."      MOVS     r2,#0x10
        0x08001344:    e7f5        ..      B        0x8001332 ; ee_printf + 138
        0x08001346:    2201        ."      MOVS     r2,#1
        0x08001348:    e7f3        ..      B        0x8001332 ; ee_printf + 138
        0x0800134a:    460a        .F      MOV      r2,r1
        0x0800134c:    3a30        0:      SUBS     r2,r2,#0x30
        0x0800134e:    2a09        .*      CMP      r2,#9
        0x08001350:    d837        7.      BHI      0x80013c2 ; ee_printf + 282
        0x08001352:    2400        .$      MOVS     r4,#0
        0x08001354:    4602        .F      MOV      r2,r0
        0x08001356:    200a        .       MOVS     r0,#0xa
        0x08001358:    4344        DC      MULS     r4,r0,r4
        0x0800135a:    190c        ..      ADDS     r4,r1,r4
        0x0800135c:    3c30        0<      SUBS     r4,r4,#0x30
        0x0800135e:    1e55        U.      SUBS     r5,r2,#1
        0x08001360:    7829        )x      LDRB     r1,[r5,#0]
        0x08001362:    460b        .F      MOV      r3,r1
        0x08001364:    3b30        0;      SUBS     r3,r3,#0x30
        0x08001366:    2b09        .+      CMP      r3,#9
        0x08001368:    d80a        ..      BHI      0x8001380 ; ee_printf + 216
        0x0800136a:    4360        `C      MULS     r0,r4,r0
        0x0800136c:    180c        ..      ADDS     r4,r1,r0
        0x0800136e:    3c30        0<      SUBS     r4,r4,#0x30
        0x08001370:    1c90        ..      ADDS     r0,r2,#2
        0x08001372:    7811        .x      LDRB     r1,[r2,#0]
        0x08001374:    460b        .F      MOV      r3,r1
        0x08001376:    3b30        0;      SUBS     r3,r3,#0x30
        0x08001378:    2b0a        .+      CMP      r3,#0xa
        0x0800137a:    d3eb        ..      BCC      0x8001354 ; ee_printf + 172
        0x0800137c:    1ed0        ..      SUBS     r0,r2,#3
        0x0800137e:    1cc5        ..      ADDS     r5,r0,#3
        0x08001380:    292e        .)      CMP      r1,#0x2e
        0x08001382:    d135        5.      BNE      0x80013f0 ; ee_printf + 328
        0x08001384:    7869        ix      LDRB     r1,[r5,#1]
        0x08001386:    4608        .F      MOV      r0,r1
        0x08001388:    3830        08      SUBS     r0,r0,#0x30
        0x0800138a:    2809        .(      CMP      r0,#9
        0x0800138c:    d824        $.      BHI      0x80013d8 ; ee_printf + 304
        0x0800138e:    970e        ..      STR      r7,[sp,#0x38]
        0x08001390:    1cea        ..      ADDS     r2,r5,#3
        0x08001392:    2700        .'      MOVS     r7,#0
        0x08001394:    4610        .F      MOV      r0,r2
        0x08001396:    220a        ."      MOVS     r2,#0xa
        0x08001398:    4357        WC      MULS     r7,r2,r7
        0x0800139a:    19cf        ..      ADDS     r7,r1,r7
        0x0800139c:    3f30        0?      SUBS     r7,r7,#0x30
        0x0800139e:    1e45        E.      SUBS     r5,r0,#1
        0x080013a0:    7829        )x      LDRB     r1,[r5,#0]
        0x080013a2:    460b        .F      MOV      r3,r1
        0x080013a4:    3b30        0;      SUBS     r3,r3,#0x30
        0x080013a6:    2b09        .+      CMP      r3,#9
        0x080013a8:    d828        (.      BHI      0x80013fc ; ee_printf + 340
        0x080013aa:    437a        zC      MULS     r2,r7,r2
        0x080013ac:    188f        ..      ADDS     r7,r1,r2
        0x080013ae:    3f30        0?      SUBS     r7,r7,#0x30
        0x080013b0:    1c82        ..      ADDS     r2,r0,#2
        0x080013b2:    7801        .x      LDRB     r1,[r0,#0]
        0x080013b4:    460b        .F      MOV      r3,r1
        0x080013b6:    3b30        0;      SUBS     r3,r3,#0x30
        0x080013b8:    2b0a        .+      CMP      r3,#0xa
        0x080013ba:    d3eb        ..      BCC      0x8001394 ; ee_printf + 236
        0x080013bc:    1ec0        ..      SUBS     r0,r0,#3
        0x080013be:    1cc5        ..      ADDS     r5,r0,#3
        0x080013c0:    e01c        ..      B        0x80013fc ; ee_printf + 340
        0x080013c2:    292a        *)      CMP      r1,#0x2a
        0x080013c4:    d110        ..      BNE      0x80013e8 ; ee_printf + 320
        0x080013c6:    1e68        h.      SUBS     r0,r5,#1
        0x080013c8:    cf10        ..      LDM      r7!,{r4}
        0x080013ca:    1c85        ..      ADDS     r5,r0,#2
        0x080013cc:    2c00        .,      CMP      r4,#0
        0x080013ce:    d50c        ..      BPL      0x80013ea ; ee_printf + 322
        0x080013d0:    2010        .       MOVS     r0,#0x10
        0x080013d2:    4306        .C      ORRS     r6,r6,r0
        0x080013d4:    4264        dB      RSBS     r4,r4,#0
        0x080013d6:    e008        ..      B        0x80013ea ; ee_printf + 322
        0x080013d8:    292a        *)      CMP      r1,#0x2a
        0x080013da:    d10c        ..      BNE      0x80013f6 ; ee_printf + 334
        0x080013dc:    78a9        .x      LDRB     r1,[r5,#2]
        0x080013de:    4638        8F      MOV      r0,r7
        0x080013e0:    c880        ..      LDM      r0!,{r7}
        0x080013e2:    900e        ..      STR      r0,[sp,#0x38]
        0x080013e4:    1cad        ..      ADDS     r5,r5,#2
        0x080013e6:    e009        ..      B        0x80013fc ; ee_printf + 340
        0x080013e8:    9c0a        ..      LDR      r4,[sp,#0x28]
        0x080013ea:    7829        )x      LDRB     r1,[r5,#0]
        0x080013ec:    292e        .)      CMP      r1,#0x2e
        0x080013ee:    d0c9        ..      BEQ      0x8001384 ; ee_printf + 220
        0x080013f0:    980a        ..      LDR      r0,[sp,#0x28]
        0x080013f2:    900d        ..      STR      r0,[sp,#0x34]
        0x080013f4:    e006        ..      B        0x8001404 ; ee_printf + 348
        0x080013f6:    970e        ..      STR      r7,[sp,#0x38]
        0x080013f8:    1c6d        m.      ADDS     r5,r5,#1
        0x080013fa:    9f0a        ..      LDR      r7,[sp,#0x28]
        0x080013fc:    17f8        ..      ASRS     r0,r7,#31
        0x080013fe:    4387        .C      BICS     r7,r7,r0
        0x08001400:    970d        ..      STR      r7,[sp,#0x34]
        0x08001402:    9f0e        ..      LDR      r7,[sp,#0x38]
        0x08001404:    2220         "      MOVS     r2,#0x20
        0x08001406:    4608        .F      MOV      r0,r1
        0x08001408:    9213        ..      STR      r2,[sp,#0x4c]
        0x0800140a:    4310        .C      ORRS     r0,r0,r2
        0x0800140c:    286c        l(      CMP      r0,#0x6c
        0x0800140e:    d102        ..      BNE      0x8001416 ; ee_printf + 366
        0x08001410:    7868        hx      LDRB     r0,[r5,#1]
        0x08001412:    1c6d        m.      ADDS     r5,r5,#1
        0x08001414:    e001        ..      B        0x800141a ; ee_printf + 370
        0x08001416:    4608        .F      MOV      r0,r1
        0x08001418:    990a        ..      LDR      r1,[sp,#0x28]
        0x0800141a:    4602        .F      MOV      r2,r0
        0x0800141c:    3a25        %:      SUBS     r2,r2,#0x25
        0x0800141e:    2a53        S*      CMP      r2,#0x53
        0x08001420:    d900        ..      BLS      0x8001424 ; ee_printf + 380
        0x08001422:    e182        ..      B        0x800172a ; 0x800172a
        0x08001424:    230a        .#      MOVS     r3,#0xa
        0x08001426:    9312        ..      STR      r3,[sp,#0x48]
        0x08001428:    0052        R.      LSLS     r2,r2,#1
        0x0800142a:    46c0        .F      MOV      r8,r8
        0x0800142c:    447a        zD      ADD      r2,r2,pc
        0x0800142e:    8892        ..      LDRH     r2,[r2,#4]
        0x08001430:    0052        R.      LSLS     r2,r2,#1
        0x08001432:    4497        .D      ADD      pc,pc,r2
    $d
        0x08001434:    017a0183    ..z.    DCD    24772995
        0x08001438:    017a017a    z.z.    DCD    24772986
        0x0800143c:    017a017a    z.z.    DCD    24772986
        0x08001440:    017a017a    z.z.    DCD    24772986
        0x08001444:    017a017a    z.z.    DCD    24772986
        0x08001448:    017a017a    z.z.    DCD    24772986
        0x0800144c:    017a017a    z.z.    DCD    24772986
        0x08001450:    017a017a    z.z.    DCD    24772986
        0x08001454:    017a017a    z.z.    DCD    24772986
        0x08001458:    017a017a    z.z.    DCD    24772986
        0x0800145c:    017a017a    z.z.    DCD    24772986
        0x08001460:    017a017a    z.z.    DCD    24772986
        0x08001464:    017a017a    z.z.    DCD    24772986
        0x08001468:    017a017a    z.z.    DCD    24772986
        0x0800146c:    017a00bd    ..z.    DCD    24772797
        0x08001470:    017a017a    z.z.    DCD    24772986
        0x08001474:    017a017a    z.z.    DCD    24772986
        0x08001478:    017a017a    z.z.    DCD    24772986
        0x0800147c:    017a017a    z.z.    DCD    24772986
        0x08001480:    017a017a    z.z.    DCD    24772986
        0x08001484:    017a017a    z.z.    DCD    24772986
        0x08001488:    017a017a    z.z.    DCD    24772986
        0x0800148c:    017a017a    z.z.    DCD    24772986
        0x08001490:    017a017a    z.z.    DCD    24772986
        0x08001494:    017a017a    z.z.    DCD    24772986
        0x08001498:    0121017a    z.!.    DCD    18940282
        0x0800149c:    017a017a    z.z.    DCD    24772986
        0x080014a0:    017a017a    z.z.    DCD    24772986
        0x080014a4:    017a017a    z.z.    DCD    24772986
        0x080014a8:    017a017a    z.z.    DCD    24772986
        0x080014ac:    017a00bf    ..z.    DCD    24772799
        0x080014b0:    0059013c    <.Y.    DCD    5833020
        0x080014b4:    017a017a    z.z.    DCD    24772986
        0x080014b8:    017a017a    z.z.    DCD    24772986
        0x080014bc:    017a0059    Y.z.    DCD    24772697
        0x080014c0:    017a017a    z.z.    DCD    24772986
        0x080014c4:    017a017a    z.z.    DCD    24772986
        0x080014c8:    005c014e    N.\.    DCD    6029646
        0x080014cc:    017a017a    z.z.    DCD    24772986
        0x080014d0:    017a006c    l.z.    DCD    24772716
        0x080014d4:    017a0150    P.z.    DCD    24772944
        0x080014d8:    0123017a    z.#.    DCD    19071354
    __arm_cp.13_10
        0x080014dc:    000004ac    ....    DCD    1196
    __arm_cp.13_11
        0x080014e0:    000004b0    ....    DCD    1200
    __arm_cp.13_12
        0x080014e4:    000004b4    ....    DCD    1204
    $t
        0x080014e8:    2002        .       MOVS     r0,#2
        0x080014ea:    4306        .C      ORRS     r6,r6,r0
        0x080014ec:    e0f3        ..      B        0x80016d6 ; 0x80016d6
        0x080014ee:    1c60        `.      ADDS     r0,r4,#1
        0x080014f0:    970e        ..      STR      r7,[sp,#0x38]
        0x080014f2:    d100        ..      BNE      0x80014f6 ; 0x80014f6
        0x080014f4:    2408        .$      MOVS     r4,#8
        0x080014f6:    4241        AB      RSBS     r1,r0,#0
        0x080014f8:    4141        AA      ADCS     r1,r1,r0
        0x080014fa:    2201        ."      MOVS     r2,#1
        0x080014fc:    06f0        ..      LSLS     r0,r6,#27
        0x080014fe:    d400        ..      BMI      0x8001502 ; 0x8001502
        0x08001500:    e22a        *.      B        0x8001958 ; 0x8001958
        0x08001502:    4617        .F      MOV      r7,r2
        0x08001504:    4396        .C      BICS     r6,r6,r2
        0x08001506:    07f0        ..      LSLS     r0,r6,#31
        0x08001508:    d000        ..      BEQ      0x800150c ; 0x800150c
        0x0800150a:    e229        ).      B        0x8001960 ; 0x8001960
        0x0800150c:    e22a        *.      B        0x8001964 ; 0x8001964
        0x0800150e:    4638        8F      MOV      r0,r7
        0x08001510:    c880        ..      LDM      r0!,{r7}
        0x08001512:    900e        ..      STR      r0,[sp,#0x38]
        0x08001514:    2f00        ./      CMP      r7,#0
        0x08001516:    940c        ..      STR      r4,[sp,#0x30]
        0x08001518:    d100        ..      BNE      0x800151c ; 0x800151c
        0x0800151a:    a7e8        ..      ADR      r7,{pc}+0x3a2 ; 0x80018bc
        0x0800151c:    980d        ..      LDR      r0,[sp,#0x34]
        0x0800151e:    2800        .(      CMP      r0,#0
        0x08001520:    463b        ;F      MOV      r3,r7
        0x08001522:    d101        ..      BNE      0x8001528 ; 0x8001528
        0x08001524:    f000fc3c    ..<.    BL       0x8001da0 ; 0x8001da0
        0x08001528:    7838        8x      LDRB     r0,[r7,#0]
        0x0800152a:    2800        .(      CMP      r0,#0
        0x0800152c:    463b        ;F      MOV      r3,r7
        0x0800152e:    d101        ..      BNE      0x8001534 ; 0x8001534
        0x08001530:    f000fc36    ..6.    BL       0x8001da0 ; 0x8001da0
        0x08001534:    990d        ..      LDR      r1,[sp,#0x34]
        0x08001536:    1e48        H.      SUBS     r0,r1,#1
        0x08001538:    1e8a        ..      SUBS     r2,r1,#2
        0x0800153a:    9213        ..      STR      r2,[sp,#0x4c]
        0x0800153c:    1eca        ..      SUBS     r2,r1,#3
        0x0800153e:    9212        ..      STR      r2,[sp,#0x48]
        0x08001540:    1f09        ..      SUBS     r1,r1,#4
        0x08001542:    9111        ..      STR      r1,[sp,#0x44]
        0x08001544:    2300        .#      MOVS     r3,#0
        0x08001546:    e004        ..      B        0x8001552 ; 0x8001552
        0x08001548:    1d1b        ..      ADDS     r3,r3,#4
        0x0800154a:    2c00        .,      CMP      r4,#0
        0x0800154c:    d001        ..      BEQ      0x8001552 ; 0x8001552
        0x0800154e:    f000fc26    ..&.    BL       0x8001d9e ; 0x8001d9e
        0x08001552:    1ac1        ..      SUBS     r1,r0,r3
        0x08001554:    424a        JB      RSBS     r2,r1,#0
        0x08001556:    414a        JA      ADCS     r2,r2,r1
        0x08001558:    18fc        ..      ADDS     r4,r7,r3
        0x0800155a:    7861        ax      LDRB     r1,[r4,#1]
        0x0800155c:    2900        .)      CMP      r1,#0
        0x0800155e:    990b        ..      LDR      r1,[sp,#0x2c]
        0x08001560:    d000        ..      BEQ      0x8001564 ; 0x8001564
        0x08001562:    4611        .F      MOV      r1,r2
        0x08001564:    2900        .)      CMP      r1,#0
        0x08001566:    d000        ..      BEQ      0x800156a ; 0x800156a
        0x08001568:    e34d        M.      B        0x8001c06 ; 0x8001c06
        0x0800156a:    9913        ..      LDR      r1,[sp,#0x4c]
        0x0800156c:    1ac9        ..      SUBS     r1,r1,r3
        0x0800156e:    424a        JB      RSBS     r2,r1,#0
        0x08001570:    414a        JA      ADCS     r2,r2,r1
        0x08001572:    78a1        .x      LDRB     r1,[r4,#2]
        0x08001574:    2900        .)      CMP      r1,#0
        0x08001576:    990b        ..      LDR      r1,[sp,#0x2c]
        0x08001578:    d000        ..      BEQ      0x800157c ; 0x800157c
        0x0800157a:    4611        .F      MOV      r1,r2
        0x0800157c:    2900        .)      CMP      r1,#0
        0x0800157e:    d000        ..      BEQ      0x8001582 ; 0x8001582
        0x08001580:    e343        C.      B        0x8001c0a ; 0x8001c0a
        0x08001582:    9912        ..      LDR      r1,[sp,#0x48]
        0x08001584:    1ac9        ..      SUBS     r1,r1,r3
        0x08001586:    424a        JB      RSBS     r2,r1,#0
        0x08001588:    414a        JA      ADCS     r2,r2,r1
        0x0800158a:    78e1        .x      LDRB     r1,[r4,#3]
        0x0800158c:    2900        .)      CMP      r1,#0
        0x0800158e:    990b        ..      LDR      r1,[sp,#0x2c]
        0x08001590:    d000        ..      BEQ      0x8001594 ; 0x8001594
        0x08001592:    4611        .F      MOV      r1,r2
        0x08001594:    2900        .)      CMP      r1,#0
        0x08001596:    d001        ..      BEQ      0x800159c ; 0x800159c
        0x08001598:    f000fbff    ....    BL       0x8001d9a ; 0x8001d9a
        0x0800159c:    9911        ..      LDR      r1,[sp,#0x44]
        0x0800159e:    1ac9        ..      SUBS     r1,r1,r3
        0x080015a0:    424a        JB      RSBS     r2,r1,#0
        0x080015a2:    414a        JA      ADCS     r2,r2,r1
        0x080015a4:    7921        !y      LDRB     r1,[r4,#4]
        0x080015a6:    2900        .)      CMP      r1,#0
        0x080015a8:    9c0b        ..      LDR      r4,[sp,#0x2c]
        0x080015aa:    d0cd        ..      BEQ      0x8001548 ; 0x8001548
        0x080015ac:    4614        .F      MOV      r4,r2
        0x080015ae:    e7cb        ..      B        0x8001548 ; 0x8001548
        0x080015b0:    2040        @       MOVS     r0,#0x40
        0x080015b2:    4306        .C      ORRS     r6,r6,r0
        0x080015b4:    cf01        ..      LDM      r7!,{r0}
        0x080015b6:    296c        l)      CMP      r1,#0x6c
        0x080015b8:    970e        ..      STR      r7,[sp,#0x38]
        0x080015ba:    940c        ..      STR      r4,[sp,#0x30]
        0x080015bc:    d160        `.      BNE      0x8001680 ; 0x8001680
        0x080015be:    0671        q.      LSLS     r1,r6,#25
        0x080015c0:    49dc        .I      LDR      r1,[pc,#880] ; [0x8001934] = 0x8005d1c
        0x080015c2:    d500        ..      BPL      0x80015c6 ; 0x80015c6
        0x080015c4:    49dc        .I      LDR      r1,[pc,#880] ; [0x8001938] = 0x8005caf
        0x080015c6:    7943        Cy      LDRB     r3,[r0,#5]
        0x080015c8:    220f        ."      MOVS     r2,#0xf
        0x080015ca:    091c        ..      LSRS     r4,r3,#4
        0x080015cc:    4013        .@      ANDS     r3,r3,r2
        0x080015ce:    5ccb        .\      LDRB     r3,[r1,r3]
        0x080015d0:    9306        ..      STR      r3,[sp,#0x18]
        0x080015d2:    5d0b        .]      LDRB     r3,[r1,r4]
        0x080015d4:    9307        ..      STR      r3,[sp,#0x1c]
        0x080015d6:    7903        .y      LDRB     r3,[r0,#4]
        0x080015d8:    091c        ..      LSRS     r4,r3,#4
        0x080015da:    4013        .@      ANDS     r3,r3,r2
        0x080015dc:    5ccb        .\      LDRB     r3,[r1,r3]
        0x080015de:    9308        ..      STR      r3,[sp,#0x20]
        0x080015e0:    5d0b        .]      LDRB     r3,[r1,r4]
        0x080015e2:    9311        ..      STR      r3,[sp,#0x44]
        0x080015e4:    78c3        .x      LDRB     r3,[r0,#3]
        0x080015e6:    091c        ..      LSRS     r4,r3,#4
        0x080015e8:    4013        .@      ANDS     r3,r3,r2
        0x080015ea:    5ccb        .\      LDRB     r3,[r1,r3]
        0x080015ec:    930d        ..      STR      r3,[sp,#0x34]
        0x080015ee:    5d0b        .]      LDRB     r3,[r1,r4]
        0x080015f0:    9312        ..      STR      r3,[sp,#0x48]
        0x080015f2:    7883        .x      LDRB     r3,[r0,#2]
        0x080015f4:    091c        ..      LSRS     r4,r3,#4
        0x080015f6:    4013        .@      ANDS     r3,r3,r2
        0x080015f8:    5ccb        .\      LDRB     r3,[r1,r3]
        0x080015fa:    9310        ..      STR      r3,[sp,#0x40]
        0x080015fc:    5d0f        .]      LDRB     r7,[r1,r4]
        0x080015fe:    7843        Cx      LDRB     r3,[r0,#1]
        0x08001600:    091c        ..      LSRS     r4,r3,#4
        0x08001602:    4013        .@      ANDS     r3,r3,r2
        0x08001604:    5ccb        .\      LDRB     r3,[r1,r3]
        0x08001606:    5d0c        .]      LDRB     r4,[r1,r4]
        0x08001608:    9413        ..      STR      r4,[sp,#0x4c]
        0x0800160a:    7800        .x      LDRB     r0,[r0,#0]
        0x0800160c:    4002        .@      ANDS     r2,r2,r0
        0x0800160e:    5c8a        .\      LDRB     r2,[r1,r2]
        0x08001610:    0900        ..      LSRS     r0,r0,#4
        0x08001612:    5c09        .\      LDRB     r1,[r1,r0]
        0x08001614:    06f0        ..      LSLS     r0,r6,#27
        0x08001616:    d500        ..      BPL      0x800161a ; 0x800161a
        0x08001618:    e1b4        ..      B        0x8001984 ; 0x8001984
        0x0800161a:    9304        ..      STR      r3,[sp,#0x10]
        0x0800161c:    9705        ..      STR      r7,[sp,#0x14]
        0x0800161e:    9c0c        ..      LDR      r4,[sp,#0x30]
        0x08001620:    2c12        .,      CMP      r4,#0x12
        0x08001622:    9e0f        ..      LDR      r6,[sp,#0x3c]
        0x08001624:    db0a        ..      BLT      0x800163c ; 0x800163c
        0x08001626:    3c11        .<      SUBS     r4,r4,#0x11
        0x08001628:    9202        ..      STR      r2,[sp,#8]
        0x0800162a:    2220         "      MOVS     r2,#0x20
        0x0800162c:    4630        0F      MOV      r0,r6
        0x0800162e:    910c        ..      STR      r1,[sp,#0x30]
        0x08001630:    4621        !F      MOV      r1,r4
        0x08001632:    f7fefe6b    ..k.    BL       __aeabi_memset ; 0x800030c
        0x08001636:    9a02        ..      LDR      r2,[sp,#8]
        0x08001638:    990c        ..      LDR      r1,[sp,#0x30]
        0x0800163a:    1936        6.      ADDS     r6,r6,r4
        0x0800163c:    9c12        ..      LDR      r4,[sp,#0x48]
        0x0800163e:    9f11        ..      LDR      r7,[sp,#0x44]
        0x08001640:    9807        ..      LDR      r0,[sp,#0x1c]
        0x08001642:    9b06        ..      LDR      r3,[sp,#0x18]
        0x08001644:    7433        3t      STRB     r3,[r6,#0x10]
        0x08001646:    73f0        .s      STRB     r0,[r6,#0xf]
        0x08001648:    203a        :       MOVS     r0,#0x3a
        0x0800164a:    73b0        .s      STRB     r0,[r6,#0xe]
        0x0800164c:    9b08        ..      LDR      r3,[sp,#0x20]
        0x0800164e:    7373        ss      STRB     r3,[r6,#0xd]
        0x08001650:    7337        7s      STRB     r7,[r6,#0xc]
        0x08001652:    72f0        .r      STRB     r0,[r6,#0xb]
        0x08001654:    9f0d        ..      LDR      r7,[sp,#0x34]
        0x08001656:    72b7        .r      STRB     r7,[r6,#0xa]
        0x08001658:    7274        tr      STRB     r4,[r6,#9]
        0x0800165a:    7230        0r      STRB     r0,[r6,#8]
        0x0800165c:    9b10        ..      LDR      r3,[sp,#0x40]
        0x0800165e:    71f3        .q      STRB     r3,[r6,#7]
        0x08001660:    9c05        ..      LDR      r4,[sp,#0x14]
        0x08001662:    71b4        .q      STRB     r4,[r6,#6]
        0x08001664:    7170        pq      STRB     r0,[r6,#5]
        0x08001666:    9b04        ..      LDR      r3,[sp,#0x10]
        0x08001668:    7133        3q      STRB     r3,[r6,#4]
        0x0800166a:    9b13        ..      LDR      r3,[sp,#0x4c]
        0x0800166c:    70f3        .p      STRB     r3,[r6,#3]
        0x0800166e:    70b0        .p      STRB     r0,[r6,#2]
        0x08001670:    7072        rp      STRB     r2,[r6,#1]
        0x08001672:    7031        1p      STRB     r1,[r6,#0]
        0x08001674:    3611        .6      ADDS     r6,r6,#0x11
        0x08001676:    e636        6.      B        0x80012e6 ; ee_printf + 62
        0x08001678:    2040        @       MOVS     r0,#0x40
        0x0800167a:    4306        .C      ORRS     r6,r6,r0
        0x0800167c:    2010        .       MOVS     r0,#0x10
        0x0800167e:    e029        ).      B        0x80016d4 ; 0x80016d4
        0x08001680:    7801        .x      LDRB     r1,[r0,#0]
        0x08001682:    060a        ..      LSLS     r2,r1,#24
        0x08001684:    d100        ..      BNE      0x8001688 ; 0x8001688
        0x08001686:    e1a3        ..      B        0x80019d0 ; 0x80019d0
        0x08001688:    b2cb        ..      UXTB     r3,r1
        0x0800168a:    2b64        d+      CMP      r3,#0x64
        0x0800168c:    d200        ..      BCS      0x8001690 ; 0x8001690
        0x0800168e:    e1a8        ..      B        0x80019e2 ; 0x80019e2
        0x08001690:    2229        )"      MOVS     r2,#0x29
        0x08001692:    435a        ZC      MULS     r2,r3,r2
        0x08001694:    0b12        ..      LSRS     r2,r2,#12
        0x08001696:    4ba7        .K      LDR      r3,[pc,#668] ; [0x8001934] = 0x8005d1c
        0x08001698:    5c9b        .\      LDRB     r3,[r3,r2]
        0x0800169a:    acff        ..      ADD      r4,sp,#0x3fc
        0x0800169c:    3458        X4      ADDS     r4,r4,#0x58
        0x0800169e:    7023        #p      STRB     r3,[r4,#0]
        0x080016a0:    2363        c#      MOVS     r3,#0x63
        0x080016a2:    43db        .C      MVNS     r3,r3
        0x080016a4:    4353        SC      MULS     r3,r2,r3
        0x080016a6:    1859        Y.      ADDS     r1,r3,r1
        0x080016a8:    2402        .$      MOVS     r4,#2
        0x080016aa:    9a03        ..      LDR      r2,[sp,#0xc]
        0x080016ac:    e19e        ..      B        0x80019ec ; 0x80019ec
        0x080016ae:    06f0        ..      LSLS     r0,r6,#27
        0x080016b0:    d500        ..      BPL      0x80016b4 ; 0x80016b4
        0x080016b2:    e18b        ..      B        0x80019cc ; 0x80019cc
        0x080016b4:    1e61        a.      SUBS     r1,r4,#1
        0x080016b6:    2c02        .,      CMP      r4,#2
        0x080016b8:    9e0f        ..      LDR      r6,[sp,#0x3c]
        0x080016ba:    da00        ..      BGE      0x80016be ; 0x80016be
        0x080016bc:    e1aa        ..      B        0x8001a14 ; 0x8001a14
        0x080016be:    2220         "      MOVS     r2,#0x20
        0x080016c0:    4630        0F      MOV      r0,r6
        0x080016c2:    f7fefe23    ..#.    BL       __aeabi_memset ; 0x800030c
        0x080016c6:    1936        6.      ADDS     r6,r6,r4
        0x080016c8:    1e70        p.      SUBS     r0,r6,#1
        0x080016ca:    cf02        ..      LDM      r7!,{r1}
        0x080016cc:    7001        .p      STRB     r1,[r0,#0]
        0x080016ce:    1c6d        m.      ADDS     r5,r5,#1
        0x080016d0:    e60b        ..      B        0x80012ea ; ee_printf + 66
        0x080016d2:    2008        .       MOVS     r0,#8
        0x080016d4:    9012        ..      STR      r0,[sp,#0x48]
        0x080016d6:    0670        p.      LSLS     r0,r6,#25
        0x080016d8:    4996        .I      LDR      r1,[pc,#600] ; [0x8001934] = 0x8005d1c
        0x080016da:    d500        ..      BPL      0x80016de ; 0x80016de
        0x080016dc:    4996        .I      LDR      r1,[pc,#600] ; [0x8001938] = 0x8005caf
        0x080016de:    2201        ."      MOVS     r2,#1
        0x080016e0:    06f0        ..      LSLS     r0,r6,#27
        0x080016e2:    9b12        ..      LDR      r3,[sp,#0x48]
        0x080016e4:    d500        ..      BPL      0x80016e8 ; 0x80016e8
        0x080016e6:    4396        .C      BICS     r6,r6,r2
        0x080016e8:    07f0        ..      LSLS     r0,r6,#31
        0x080016ea:    940c        ..      STR      r4,[sp,#0x30]
        0x080016ec:    9111        ..      STR      r1,[sp,#0x44]
        0x080016ee:    d001        ..      BEQ      0x80016f4 ; 0x80016f4
        0x080016f0:    2030        0       MOVS     r0,#0x30
        0x080016f2:    e000        ..      B        0x80016f6 ; 0x80016f6
        0x080016f4:    2020                MOVS     r0,#0x20
        0x080016f6:    9005        ..      STR      r0,[sp,#0x14]
        0x080016f8:    07b0        ..      LSLS     r0,r6,#30
        0x080016fa:    cf10        ..      LDM      r7!,{r4}
        0x080016fc:    2100        .!      MOVS     r1,#0
        0x080016fe:    9106        ..      STR      r1,[sp,#0x18]
        0x08001700:    2800        .(      CMP      r0,#0
        0x08001702:    d401        ..      BMI      0x8001708 ; 0x8001708
        0x08001704:    980b        ..      LDR      r0,[sp,#0x2c]
        0x08001706:    e021        !.      B        0x800174c ; 0x800174c
        0x08001708:    2c00        .,      CMP      r4,#0
        0x0800170a:    d408        ..      BMI      0x800171e ; 0x800171e
        0x0800170c:    0770        p.      LSLS     r0,r6,#29
        0x0800170e:    d417        ..      BMI      0x8001740 ; 0x8001740
        0x08001710:    0730        0.      LSLS     r0,r6,#28
        0x08001712:    d5f7        ..      BPL      0x8001704 ; 0x8001704
        0x08001714:    980c        ..      LDR      r0,[sp,#0x30]
        0x08001716:    1e40        @.      SUBS     r0,r0,#1
        0x08001718:    900c        ..      STR      r0,[sp,#0x30]
        0x0800171a:    2020                MOVS     r0,#0x20
        0x0800171c:    e014        ..      B        0x8001748 ; 0x8001748
        0x0800171e:    980c        ..      LDR      r0,[sp,#0x30]
        0x08001720:    1e40        @.      SUBS     r0,r0,#1
        0x08001722:    900c        ..      STR      r0,[sp,#0x30]
        0x08001724:    4264        dB      RSBS     r4,r4,#0
        0x08001726:    202d        -       MOVS     r0,#0x2d
        0x08001728:    e00e        ..      B        0x8001748 ; 0x8001748
        0x0800172a:    2025        %       MOVS     r0,#0x25
        0x0800172c:    9e0f        ..      LDR      r6,[sp,#0x3c]
        0x0800172e:    7030        0p      STRB     r0,[r6,#0]
        0x08001730:    1c76        v.      ADDS     r6,r6,#1
        0x08001732:    7828        (x      LDRB     r0,[r5,#0]
        0x08001734:    2800        .(      CMP      r0,#0
        0x08001736:    d100        ..      BNE      0x800173a ; 0x800173a
        0x08001738:    e150        P.      B        0x80019dc ; 0x80019dc
        0x0800173a:    960f        ..      STR      r6,[sp,#0x3c]
        0x0800173c:    9e0f        ..      LDR      r6,[sp,#0x3c]
        0x0800173e:    e5db        ..      B        0x80012f8 ; ee_printf + 80
        0x08001740:    980c        ..      LDR      r0,[sp,#0x30]
        0x08001742:    1e40        @.      SUBS     r0,r0,#1
        0x08001744:    900c        ..      STR      r0,[sp,#0x30]
        0x08001746:    202b        +       MOVS     r0,#0x2b
        0x08001748:    9006        ..      STR      r0,[sp,#0x18]
        0x0800174a:    2000        .       MOVS     r0,#0
        0x0800174c:    9007        ..      STR      r0,[sp,#0x1c]
        0x0800174e:    2120         !      MOVS     r1,#0x20
        0x08001750:    4031        1@      ANDS     r1,r1,r6
        0x08001752:    d009        ..      BEQ      0x8001768 ; 0x8001768
        0x08001754:    2b08        .+      CMP      r3,#8
        0x08001756:    d004        ..      BEQ      0x8001762 ; 0x8001762
        0x08001758:    2b10        .+      CMP      r3,#0x10
        0x0800175a:    d105        ..      BNE      0x8001768 ; 0x8001768
        0x0800175c:    980c        ..      LDR      r0,[sp,#0x30]
        0x0800175e:    1e80        ..      SUBS     r0,r0,#2
        0x08001760:    e001        ..      B        0x8001766 ; 0x8001766
        0x08001762:    980c        ..      LDR      r0,[sp,#0x30]
        0x08001764:    1e40        @.      SUBS     r0,r0,#1
        0x08001766:    900c        ..      STR      r0,[sp,#0x30]
        0x08001768:    9108        ..      STR      r1,[sp,#0x20]
        0x0800176a:    970e        ..      STR      r7,[sp,#0x38]
        0x0800176c:    2c00        .,      CMP      r4,#0
        0x0800176e:    d053        S.      BEQ      0x8001818 ; 0x8001818
        0x08001770:    2200        ."      MOVS     r2,#0
        0x08001772:    9213        ..      STR      r2,[sp,#0x4c]
        0x08001774:    4620         F      MOV      r0,r4
        0x08001776:    4619        .F      MOV      r1,r3
        0x08001778:    f7fefdf2    ....    BL       __aeabi_uidiv ; 0x8000360
        0x0800177c:    9b12        ..      LDR      r3,[sp,#0x48]
        0x0800177e:    9a13        ..      LDR      r2,[sp,#0x4c]
        0x08001780:    4607        .F      MOV      r7,r0
        0x08001782:    4618        .F      MOV      r0,r3
        0x08001784:    4378        xC      MULS     r0,r7,r0
        0x08001786:    1a20         .      SUBS     r0,r4,r0
        0x08001788:    9911        ..      LDR      r1,[sp,#0x44]
        0x0800178a:    5c08        .\      LDRB     r0,[r1,r0]
        0x0800178c:    a9ff        ..      ADD      r1,sp,#0x3fc
        0x0800178e:    3158        X1      ADDS     r1,r1,#0x58
        0x08001790:    5488        .T      STRB     r0,[r1,r2]
        0x08001792:    42a3        .B      CMP      r3,r4
        0x08001794:    d845        E.      BHI      0x8001822 ; 0x8001822
        0x08001796:    4638        8F      MOV      r0,r7
        0x08001798:    4619        .F      MOV      r1,r3
        0x0800179a:    f7fefde1    ....    BL       __aeabi_uidiv ; 0x8000360
        0x0800179e:    9b12        ..      LDR      r3,[sp,#0x48]
        0x080017a0:    9a13        ..      LDR      r2,[sp,#0x4c]
        0x080017a2:    4604        .F      MOV      r4,r0
        0x080017a4:    a8ff        ..      ADD      r0,sp,#0x3fc
        0x080017a6:    3058        X0      ADDS     r0,r0,#0x58
        0x080017a8:    1880        ..      ADDS     r0,r0,r2
        0x080017aa:    9010        ..      STR      r0,[sp,#0x40]
        0x080017ac:    4619        .F      MOV      r1,r3
        0x080017ae:    4361        aC      MULS     r1,r4,r1
        0x080017b0:    1a79        y.      SUBS     r1,r7,r1
        0x080017b2:    9811        ..      LDR      r0,[sp,#0x44]
        0x080017b4:    5c41        A\      LDRB     r1,[r0,r1]
        0x080017b6:    9810        ..      LDR      r0,[sp,#0x40]
        0x080017b8:    7041        Ap      STRB     r1,[r0,#1]
        0x080017ba:    42bb        .B      CMP      r3,r7
        0x080017bc:    d833        3.      BHI      0x8001826 ; 0x8001826
        0x080017be:    4620         F      MOV      r0,r4
        0x080017c0:    4619        .F      MOV      r1,r3
        0x080017c2:    f7fefdcd    ....    BL       __aeabi_uidiv ; 0x8000360
        0x080017c6:    9b12        ..      LDR      r3,[sp,#0x48]
        0x080017c8:    9a13        ..      LDR      r2,[sp,#0x4c]
        0x080017ca:    4607        .F      MOV      r7,r0
        0x080017cc:    a8ff        ..      ADD      r0,sp,#0x3fc
        0x080017ce:    3058        X0      ADDS     r0,r0,#0x58
        0x080017d0:    1880        ..      ADDS     r0,r0,r2
        0x080017d2:    9010        ..      STR      r0,[sp,#0x40]
        0x080017d4:    4619        .F      MOV      r1,r3
        0x080017d6:    4379        yC      MULS     r1,r7,r1
        0x080017d8:    1a61        a.      SUBS     r1,r4,r1
        0x080017da:    9811        ..      LDR      r0,[sp,#0x44]
        0x080017dc:    5c41        A\      LDRB     r1,[r0,r1]
        0x080017de:    9810        ..      LDR      r0,[sp,#0x40]
        0x080017e0:    7081        .p      STRB     r1,[r0,#2]
        0x080017e2:    42a3        .B      CMP      r3,r4
        0x080017e4:    d821        !.      BHI      0x800182a ; 0x800182a
        0x080017e6:    4638        8F      MOV      r0,r7
        0x080017e8:    4619        .F      MOV      r1,r3
        0x080017ea:    f7fefdb9    ....    BL       __aeabi_uidiv ; 0x8000360
        0x080017ee:    9b12        ..      LDR      r3,[sp,#0x48]
        0x080017f0:    9913        ..      LDR      r1,[sp,#0x4c]
        0x080017f2:    4602        .F      MOV      r2,r0
        0x080017f4:    a8ff        ..      ADD      r0,sp,#0x3fc
        0x080017f6:    3058        X0      ADDS     r0,r0,#0x58
        0x080017f8:    1840        @.      ADDS     r0,r0,r1
        0x080017fa:    9010        ..      STR      r0,[sp,#0x40]
        0x080017fc:    4608        .F      MOV      r0,r1
        0x080017fe:    4619        .F      MOV      r1,r3
        0x08001800:    4351        QC      MULS     r1,r2,r1
        0x08001802:    1a79        y.      SUBS     r1,r7,r1
        0x08001804:    9c11        ..      LDR      r4,[sp,#0x44]
        0x08001806:    5c61        a\      LDRB     r1,[r4,r1]
        0x08001808:    4614        .F      MOV      r4,r2
        0x0800180a:    4602        .F      MOV      r2,r0
        0x0800180c:    9810        ..      LDR      r0,[sp,#0x40]
        0x0800180e:    70c1        .p      STRB     r1,[r0,#3]
        0x08001810:    1d12        ..      ADDS     r2,r2,#4
        0x08001812:    42bb        .B      CMP      r3,r7
        0x08001814:    d9ad        ..      BLS      0x8001772 ; 0x8001772
        0x08001816:    e009        ..      B        0x800182c ; 0x800182c
        0x08001818:    a8ff        ..      ADD      r0,sp,#0x3fc
        0x0800181a:    3058        X0      ADDS     r0,r0,#0x58
        0x0800181c:    2130        0!      MOVS     r1,#0x30
        0x0800181e:    7001        .p      STRB     r1,[r0,#0]
        0x08001820:    e004        ..      B        0x800182c ; 0x800182c
        0x08001822:    1c52        R.      ADDS     r2,r2,#1
        0x08001824:    e002        ..      B        0x800182c ; 0x800182c
        0x08001826:    1c92        ..      ADDS     r2,r2,#2
        0x08001828:    e000        ..      B        0x800182c ; 0x800182c
        0x0800182a:    1cd2        ..      ADDS     r2,r2,#3
        0x0800182c:    980d        ..      LDR      r0,[sp,#0x34]
        0x0800182e:    4282        .B      CMP      r2,r0
        0x08001830:    4617        .F      MOV      r7,r2
        0x08001832:    dc00        ..      BGT      0x8001836 ; 0x8001836
        0x08001834:    9f0d        ..      LDR      r7,[sp,#0x34]
        0x08001836:    980c        ..      LDR      r0,[sp,#0x30]
        0x08001838:    1bc4        ..      SUBS     r4,r0,r7
        0x0800183a:    2011        .       MOVS     r0,#0x11
        0x0800183c:    4206        .B      TST      r6,r0
        0x0800183e:    9213        ..      STR      r2,[sp,#0x4c]
        0x08001840:    d111        ..      BNE      0x8001866 ; 0x8001866
        0x08001842:    1e60        `.      SUBS     r0,r4,#1
        0x08001844:    db0e        ..      BLT      0x8001864 ; 0x8001864
        0x08001846:    2220         "      MOVS     r2,#0x20
        0x08001848:    9711        ..      STR      r7,[sp,#0x44]
        0x0800184a:    4627        'F      MOV      r7,r4
        0x0800184c:    9c0f        ..      LDR      r4,[sp,#0x3c]
        0x0800184e:    4620         F      MOV      r0,r4
        0x08001850:    4639        9F      MOV      r1,r7
        0x08001852:    f7fefd5b    ..[.    BL       __aeabi_memset ; 0x800030c
        0x08001856:    9b12        ..      LDR      r3,[sp,#0x48]
        0x08001858:    9a13        ..      LDR      r2,[sp,#0x4c]
        0x0800185a:    19e4        ..      ADDS     r4,r4,r7
        0x0800185c:    9f11        ..      LDR      r7,[sp,#0x44]
        0x0800185e:    940f        ..      STR      r4,[sp,#0x3c]
        0x08001860:    9c0a        ..      LDR      r4,[sp,#0x28]
        0x08001862:    e000        ..      B        0x8001866 ; 0x8001866
        0x08001864:    4604        .F      MOV      r4,r0
        0x08001866:    9807        ..      LDR      r0,[sp,#0x1c]
        0x08001868:    2800        .(      CMP      r0,#0
        0x0800186a:    d104        ..      BNE      0x8001876 ; 0x8001876
        0x0800186c:    980f        ..      LDR      r0,[sp,#0x3c]
        0x0800186e:    9906        ..      LDR      r1,[sp,#0x18]
        0x08001870:    7001        .p      STRB     r1,[r0,#0]
        0x08001872:    1c40        @.      ADDS     r0,r0,#1
        0x08001874:    900f        ..      STR      r0,[sp,#0x3c]
        0x08001876:    9808        ..      LDR      r0,[sp,#0x20]
        0x08001878:    2800        .(      CMP      r0,#0
        0x0800187a:    d00f        ..      BEQ      0x800189c ; 0x800189c
        0x0800187c:    2b10        .+      CMP      r3,#0x10
        0x0800187e:    d006        ..      BEQ      0x800188e ; 0x800188e
        0x08001880:    2b08        .+      CMP      r3,#8
        0x08001882:    d10b        ..      BNE      0x800189c ; 0x800189c
        0x08001884:    2030        0       MOVS     r0,#0x30
        0x08001886:    990f        ..      LDR      r1,[sp,#0x3c]
        0x08001888:    7008        .p      STRB     r0,[r1,#0]
        0x0800188a:    1c49        I.      ADDS     r1,r1,#1
        0x0800188c:    e005        ..      B        0x800189a ; 0x800189a
        0x0800188e:    2078        x       MOVS     r0,#0x78
        0x08001890:    990f        ..      LDR      r1,[sp,#0x3c]
        0x08001892:    7048        Hp      STRB     r0,[r1,#1]
        0x08001894:    2030        0       MOVS     r0,#0x30
        0x08001896:    7008        .p      STRB     r0,[r1,#0]
        0x08001898:    1c89        ..      ADDS     r1,r1,#2
        0x0800189a:    910f        ..      STR      r1,[sp,#0x3c]
        0x0800189c:    06f0        ..      LSLS     r0,r6,#27
        0x0800189e:    d40b        ..      BMI      0x80018b8 ; 0x80018b8
        0x080018a0:    1e60        `.      SUBS     r0,r4,#1
        0x080018a2:    9e0f        ..      LDR      r6,[sp,#0x3c]
        0x080018a4:    db0e        ..      BLT      0x80018c4 ; 0x80018c4
        0x080018a6:    4630        0F      MOV      r0,r6
        0x080018a8:    4621        !F      MOV      r1,r4
        0x080018aa:    9a05        ..      LDR      r2,[sp,#0x14]
        0x080018ac:    f7fefd2e    ....    BL       __aeabi_memset ; 0x800030c
        0x080018b0:    9a13        ..      LDR      r2,[sp,#0x4c]
        0x080018b2:    1936        6.      ADDS     r6,r6,r4
        0x080018b4:    9c0a        ..      LDR      r4,[sp,#0x28]
        0x080018b6:    e006        ..      B        0x80018c6 ; 0x80018c6
        0x080018b8:    9e0f        ..      LDR      r6,[sp,#0x3c]
        0x080018ba:    e004        ..      B        0x80018c6 ; 0x80018c6
    $d
        0x080018bc:    4c554e3c    <NUL    DCD    1280659004
        0x080018c0:    00003e4c    L>..    DCD    15948
    $t
        0x080018c4:    4604        .F      MOV      r4,r0
        0x080018c6:    980d        ..      LDR      r0,[sp,#0x34]
        0x080018c8:    4290        .B      CMP      r0,r2
        0x080018ca:    9412        ..      STR      r4,[sp,#0x48]
        0x080018cc:    dd07        ..      BLE      0x80018de ; 0x80018de
        0x080018ce:    1abc        ..      SUBS     r4,r7,r2
        0x080018d0:    2230        0"      MOVS     r2,#0x30
        0x080018d2:    4630        0F      MOV      r0,r6
        0x080018d4:    4621        !F      MOV      r1,r4
        0x080018d6:    f7fefd19    ....    BL       __aeabi_memset ; 0x800030c
        0x080018da:    9a13        ..      LDR      r2,[sp,#0x4c]
        0x080018dc:    1936        6.      ADDS     r6,r6,r4
        0x080018de:    1e90        ..      SUBS     r0,r2,#2
        0x080018e0:    1f12        ..      SUBS     r2,r2,#4
        0x080018e2:    2100        .!      MOVS     r1,#0
        0x080018e4:    abff        ..      ADD      r3,sp,#0x3fc
        0x080018e6:    3358        X3      ADDS     r3,r3,#0x58
        0x080018e8:    189b        ..      ADDS     r3,r3,r2
        0x080018ea:    78db        .x      LDRB     r3,[r3,#3]
        0x080018ec:    5473        sT      STRB     r3,[r6,r1]
        0x080018ee:    1873        s.      ADDS     r3,r6,r1
        0x080018f0:    1d14        ..      ADDS     r4,r2,#4
        0x080018f2:    2c02        .,      CMP      r4,#2
        0x080018f4:    db1a        ..      BLT      0x800192c ; 0x800192c
        0x080018f6:    4637        7F      MOV      r7,r6
        0x080018f8:    aeff        ..      ADD      r6,sp,#0x3fc
        0x080018fa:    3658        X6      ADDS     r6,r6,#0x58
        0x080018fc:    18b6        ..      ADDS     r6,r6,r2
        0x080018fe:    78b6        .x      LDRB     r6,[r6,#2]
        0x08001900:    705e        ^p      STRB     r6,[r3,#1]
        0x08001902:    4288        .B      CMP      r0,r1
        0x08001904:    d014        ..      BEQ      0x8001930 ; 0x8001930
        0x08001906:    aeff        ..      ADD      r6,sp,#0x3fc
        0x08001908:    3658        X6      ADDS     r6,r6,#0x58
        0x0800190a:    18b6        ..      ADDS     r6,r6,r2
        0x0800190c:    7876        vx      LDRB     r6,[r6,#1]
        0x0800190e:    709e        .p      STRB     r6,[r3,#2]
        0x08001910:    2c04        .,      CMP      r4,#4
        0x08001912:    d313        ..      BCC      0x800193c ; 0x800193c
        0x08001914:    acff        ..      ADD      r4,sp,#0x3fc
        0x08001916:    3458        X4      ADDS     r4,r4,#0x58
        0x08001918:    5ca4        .\      LDRB     r4,[r4,r2]
        0x0800191a:    70dc        .p      STRB     r4,[r3,#3]
        0x0800191c:    1d09        ..      ADDS     r1,r1,#4
        0x0800191e:    1f12        ..      SUBS     r2,r2,#4
        0x08001920:    9b13        ..      LDR      r3,[sp,#0x4c]
        0x08001922:    428b        .B      CMP      r3,r1
        0x08001924:    463e        >F      MOV      r6,r7
        0x08001926:    d1dd        ..      BNE      0x80018e4 ; 0x80018e4
        0x08001928:    1870        p.      ADDS     r0,r6,r1
        0x0800192a:    e009        ..      B        0x8001940 ; 0x8001940
        0x0800192c:    1c58        X.      ADDS     r0,r3,#1
        0x0800192e:    e007        ..      B        0x8001940 ; 0x8001940
        0x08001930:    1c98        ..      ADDS     r0,r3,#2
        0x08001932:    e004        ..      B        0x800193e ; 0x800193e
    $d
        0x08001934:    08005d1c    .]..    DCD    134241564
    __arm_cp.13_15
        0x08001938:    08005caf    .\..    DCD    134241455
    $t
        0x0800193c:    1cd8        ..      ADDS     r0,r3,#3
        0x0800193e:    463e        >F      MOV      r6,r7
        0x08001940:    9c12        ..      LDR      r4,[sp,#0x48]
        0x08001942:    2c01        .,      CMP      r4,#1
        0x08001944:    da00        ..      BGE      0x8001948 ; 0x8001948
        0x08001946:    e4cd        ..      B        0x80012e4 ; ee_printf + 60
        0x08001948:    2220         "      MOVS     r2,#0x20
        0x0800194a:    4621        !F      MOV      r1,r4
        0x0800194c:    f7fefcde    ....    BL       __aeabi_memset ; 0x800030c
        0x08001950:    9813        ..      LDR      r0,[sp,#0x4c]
        0x08001952:    1820         .      ADDS     r0,r4,r0
        0x08001954:    1836        6.      ADDS     r6,r6,r0
        0x08001956:    e4c6        ..      B        0x80012e6 ; ee_printf + 62
        0x08001958:    4617        .F      MOV      r7,r2
        0x0800195a:    430e        .C      ORRS     r6,r6,r1
        0x0800195c:    07f0        ..      LSLS     r0,r6,#31
        0x0800195e:    d001        ..      BEQ      0x8001964 ; 0x8001964
        0x08001960:    2030        0       MOVS     r0,#0x30
        0x08001962:    9013        ..      STR      r0,[sp,#0x4c]
        0x08001964:    07b1        ..      LSLS     r1,r6,#30
        0x08001966:    9a0e        ..      LDR      r2,[sp,#0x38]
        0x08001968:    ca01        ..      LDM      r2!,{r0}
        0x0800196a:    920e        ..      STR      r2,[sp,#0x38]
        0x0800196c:    2200        ."      MOVS     r2,#0
        0x0800196e:    9208        ..      STR      r2,[sp,#0x20]
        0x08001970:    2900        .)      CMP      r1,#0
        0x08001972:    d401        ..      BMI      0x8001978 ; 0x8001978
        0x08001974:    990b        ..      LDR      r1,[sp,#0x2c]
        0x08001976:    e14e        N.      B        0x8001c16 ; 0x8001c16
        0x08001978:    2800        .(      CMP      r0,#0
        0x0800197a:    d543        C.      BPL      0x8001a04 ; 0x8001a04
        0x0800197c:    1e64        d.      SUBS     r4,r4,#1
        0x0800197e:    4240        @B      RSBS     r0,r0,#0
        0x08001980:    212d        -!      MOVS     r1,#0x2d
        0x08001982:    e146        F.      B        0x8001c12 ; 0x8001c12
        0x08001984:    9e0f        ..      LDR      r6,[sp,#0x3c]
        0x08001986:    9806        ..      LDR      r0,[sp,#0x18]
        0x08001988:    7430        0t      STRB     r0,[r6,#0x10]
        0x0800198a:    9807        ..      LDR      r0,[sp,#0x1c]
        0x0800198c:    73f0        .s      STRB     r0,[r6,#0xf]
        0x0800198e:    203a        :       MOVS     r0,#0x3a
        0x08001990:    73b0        .s      STRB     r0,[r6,#0xe]
        0x08001992:    9c08        ..      LDR      r4,[sp,#0x20]
        0x08001994:    7374        ts      STRB     r4,[r6,#0xd]
        0x08001996:    9c11        ..      LDR      r4,[sp,#0x44]
        0x08001998:    7334        4s      STRB     r4,[r6,#0xc]
        0x0800199a:    72f0        .r      STRB     r0,[r6,#0xb]
        0x0800199c:    9c0d        ..      LDR      r4,[sp,#0x34]
        0x0800199e:    72b4        .r      STRB     r4,[r6,#0xa]
        0x080019a0:    9c12        ..      LDR      r4,[sp,#0x48]
        0x080019a2:    7274        tr      STRB     r4,[r6,#9]
        0x080019a4:    7230        0r      STRB     r0,[r6,#8]
        0x080019a6:    9c10        ..      LDR      r4,[sp,#0x40]
        0x080019a8:    71f4        .q      STRB     r4,[r6,#7]
        0x080019aa:    71b7        .q      STRB     r7,[r6,#6]
        0x080019ac:    7170        pq      STRB     r0,[r6,#5]
        0x080019ae:    7133        3q      STRB     r3,[r6,#4]
        0x080019b0:    9b13        ..      LDR      r3,[sp,#0x4c]
        0x080019b2:    70f3        .p      STRB     r3,[r6,#3]
        0x080019b4:    70b0        .p      STRB     r0,[r6,#2]
        0x080019b6:    7072        rp      STRB     r2,[r6,#1]
        0x080019b8:    7031        1p      STRB     r1,[r6,#0]
        0x080019ba:    4630        0F      MOV      r0,r6
        0x080019bc:    3011        .0      ADDS     r0,r0,#0x11
        0x080019be:    9c0c        ..      LDR      r4,[sp,#0x30]
        0x080019c0:    2c12        .,      CMP      r4,#0x12
        0x080019c2:    da00        ..      BGE      0x80019c6 ; 0x80019c6
        0x080019c4:    e48e        ..      B        0x80012e4 ; ee_printf + 60
        0x080019c6:    4621        !F      MOV      r1,r4
        0x080019c8:    3911        .9      SUBS     r1,r1,#0x11
        0x080019ca:    e11a        ..      B        0x8001c02 ; 0x8001c02
        0x080019cc:    9e0f        ..      LDR      r6,[sp,#0x3c]
        0x080019ce:    e022        ".      B        0x8001a16 ; 0x8001a16
        0x080019d0:    a9ff        ..      ADD      r1,sp,#0x3fc
        0x080019d2:    3158        X1      ADDS     r1,r1,#0x58
        0x080019d4:    2230        0"      MOVS     r2,#0x30
        0x080019d6:    700a        .p      STRB     r2,[r1,#0]
        0x080019d8:    2400        .$      MOVS     r4,#0
        0x080019da:    e035        5.      B        0x8001a48 ; 0x8001a48
        0x080019dc:    1e6d        m.      SUBS     r5,r5,#1
        0x080019de:    1c6d        m.      ADDS     r5,r5,#1
        0x080019e0:    e483        ..      B        0x80012ea ; ee_printf + 66
        0x080019e2:    aaff        ..      ADD      r2,sp,#0x3fc
        0x080019e4:    3258        X2      ADDS     r2,r2,#0x58
        0x080019e6:    2b0a        .+      CMP      r3,#0xa
        0x080019e8:    d326        &.      BCC      0x8001a38 ; 0x8001a38
        0x080019ea:    2401        .$      MOVS     r4,#1
        0x080019ec:    b2cb        ..      UXTB     r3,r1
        0x080019ee:    27cd        .'      MOVS     r7,#0xcd
        0x080019f0:    435f        _C      MULS     r7,r3,r7
        0x080019f2:    0afb        ..      LSRS     r3,r7,#11
        0x080019f4:    4ffc        .O      LDR      r7,[pc,#1008] ; [0x8001de8] = 0x8005d1c
        0x080019f6:    5cff        .\      LDRB     r7,[r7,r3]
        0x080019f8:    7017        .p      STRB     r7,[r2,#0]
        0x080019fa:    2209        ."      MOVS     r2,#9
        0x080019fc:    43d2        .C      MVNS     r2,r2
        0x080019fe:    435a        ZC      MULS     r2,r3,r2
        0x08001a00:    1851        Q.      ADDS     r1,r2,r1
        0x08001a02:    e01a        ..      B        0x8001a3a ; 0x8001a3a
        0x08001a04:    0771        q.      LSLS     r1,r6,#29
        0x08001a06:    d500        ..      BPL      0x8001a0a ; 0x8001a0a
        0x08001a08:    e101        ..      B        0x8001c0e ; 0x8001c0e
        0x08001a0a:    0731        1.      LSLS     r1,r6,#28
        0x08001a0c:    d5b2        ..      BPL      0x8001974 ; 0x8001974
        0x08001a0e:    1e64        d.      SUBS     r4,r4,#1
        0x08001a10:    2120         !      MOVS     r1,#0x20
        0x08001a12:    e0fe        ..      B        0x8001c12 ; 0x8001c12
        0x08001a14:    460c        .F      MOV      r4,r1
        0x08001a16:    cf01        ..      LDM      r7!,{r0}
        0x08001a18:    7030        0p      STRB     r0,[r6,#0]
        0x08001a1a:    1c70        p.      ADDS     r0,r6,#1
        0x08001a1c:    2c02        .,      CMP      r4,#2
        0x08001a1e:    db07        ..      BLT      0x8001a30 ; 0x8001a30
        0x08001a20:    1e61        a.      SUBS     r1,r4,#1
        0x08001a22:    2220         "      MOVS     r2,#0x20
        0x08001a24:    f7fefc72    ..r.    BL       __aeabi_memset ; 0x800030c
        0x08001a28:    1936        6.      ADDS     r6,r6,r4
        0x08001a2a:    1c6d        m.      ADDS     r5,r5,#1
        0x08001a2c:    f7fffc5d    ..].    BL       0x80012ea ; ee_printf + 66
        0x08001a30:    4606        .F      MOV      r6,r0
        0x08001a32:    1c6d        m.      ADDS     r5,r5,#1
        0x08001a34:    f7fffc59    ..Y.    BL       0x80012ea ; ee_printf + 66
        0x08001a38:    2400        .$      MOVS     r4,#0
        0x08001a3a:    aaff        ..      ADD      r2,sp,#0x3fc
        0x08001a3c:    3258        X2      ADDS     r2,r2,#0x58
        0x08001a3e:    1912        ..      ADDS     r2,r2,r4
        0x08001a40:    b2c9        ..      UXTB     r1,r1
        0x08001a42:    4be9        .K      LDR      r3,[pc,#932] ; [0x8001de8] = 0x8005d1c
        0x08001a44:    5c59        Y\      LDRB     r1,[r3,r1]
        0x08001a46:    7011        .p      STRB     r1,[r2,#0]
        0x08001a48:    a9ff        ..      ADD      r1,sp,#0x3fc
        0x08001a4a:    3158        X1      ADDS     r1,r1,#0x58
        0x08001a4c:    1861        a.      ADDS     r1,r4,r1
        0x08001a4e:    222e        ."      MOVS     r2,#0x2e
        0x08001a50:    9213        ..      STR      r2,[sp,#0x4c]
        0x08001a52:    704a        Jp      STRB     r2,[r1,#1]
        0x08001a54:    1ca3        ..      ADDS     r3,r4,#2
        0x08001a56:    7847        Gx      LDRB     r7,[r0,#1]
        0x08001a58:    2230        0"      MOVS     r2,#0x30
        0x08001a5a:    0639        9.      LSLS     r1,r7,#24
        0x08001a5c:    9212        ..      STR      r2,[sp,#0x48]
        0x08001a5e:    d015        ..      BEQ      0x8001a8c ; 0x8001a8c
        0x08001a60:    b2f9        ..      UXTB     r1,r7
        0x08001a62:    2963        c)      CMP      r1,#0x63
        0x08001a64:    d914        ..      BLS      0x8001a90 ; 0x8001a90
        0x08001a66:    2229        )"      MOVS     r2,#0x29
        0x08001a68:    434a        JC      MULS     r2,r1,r2
        0x08001a6a:    0b11        ..      LSRS     r1,r2,#12
        0x08001a6c:    9110        ..      STR      r1,[sp,#0x40]
        0x08001a6e:    4ade        .J      LDR      r2,[pc,#888] ; [0x8001de8] = 0x8005d1c
        0x08001a70:    5c52        R\      LDRB     r2,[r2,r1]
        0x08001a72:    9211        ..      STR      r2,[sp,#0x44]
        0x08001a74:    aaff        ..      ADD      r2,sp,#0x3fc
        0x08001a76:    3258        X2      ADDS     r2,r2,#0x58
        0x08001a78:    9911        ..      LDR      r1,[sp,#0x44]
        0x08001a7a:    54d1        .T      STRB     r1,[r2,r3]
        0x08001a7c:    2263        c"      MOVS     r2,#0x63
        0x08001a7e:    43d2        .C      MVNS     r2,r2
        0x08001a80:    9910        ..      LDR      r1,[sp,#0x40]
        0x08001a82:    434a        JC      MULS     r2,r1,r2
        0x08001a84:    19d7        ..      ADDS     r7,r2,r7
        0x08001a86:    1ce3        ..      ADDS     r3,r4,#3
        0x08001a88:    2104        .!      MOVS     r1,#4
        0x08001a8a:    e004        ..      B        0x8001a96 ; 0x8001a96
        0x08001a8c:    4611        .F      MOV      r1,r2
        0x08001a8e:    e019        ..      B        0x8001ac4 ; 0x8001ac4
        0x08001a90:    2909        .)      CMP      r1,#9
        0x08001a92:    d914        ..      BLS      0x8001abe ; 0x8001abe
        0x08001a94:    2103        .!      MOVS     r1,#3
        0x08001a96:    9111        ..      STR      r1,[sp,#0x44]
        0x08001a98:    940d        ..      STR      r4,[sp,#0x34]
        0x08001a9a:    b2fa        ..      UXTB     r2,r7
        0x08001a9c:    21cd        .!      MOVS     r1,#0xcd
        0x08001a9e:    4351        QC      MULS     r1,r2,r1
        0x08001aa0:    0ac9        ..      LSRS     r1,r1,#11
        0x08001aa2:    4ad1        .J      LDR      r2,[pc,#836] ; [0x8001de8] = 0x8005d1c
        0x08001aa4:    5c52        R\      LDRB     r2,[r2,r1]
        0x08001aa6:    9210        ..      STR      r2,[sp,#0x40]
        0x08001aa8:    aaff        ..      ADD      r2,sp,#0x3fc
        0x08001aaa:    3258        X2      ADDS     r2,r2,#0x58
        0x08001aac:    9c10        ..      LDR      r4,[sp,#0x40]
        0x08001aae:    54d4        .T      STRB     r4,[r2,r3]
        0x08001ab0:    9a11        ..      LDR      r2,[sp,#0x44]
        0x08001ab2:    9b0d        ..      LDR      r3,[sp,#0x34]
        0x08001ab4:    18d3        ..      ADDS     r3,r2,r3
        0x08001ab6:    2209        ."      MOVS     r2,#9
        0x08001ab8:    43d2        .C      MVNS     r2,r2
        0x08001aba:    434a        JC      MULS     r2,r1,r2
        0x08001abc:    19d7        ..      ADDS     r7,r2,r7
        0x08001abe:    b2f9        ..      UXTB     r1,r7
        0x08001ac0:    4afa        .J      LDR      r2,[pc,#1000] ; [0x8001eac] = 0x8005d1c
        0x08001ac2:    5c51        Q\      LDRB     r1,[r2,r1]
        0x08001ac4:    aaff        ..      ADD      r2,sp,#0x3fc
        0x08001ac6:    3258        X2      ADDS     r2,r2,#0x58
        0x08001ac8:    54d1        .T      STRB     r1,[r2,r3]
        0x08001aca:    18d1        ..      ADDS     r1,r2,r3
        0x08001acc:    9a13        ..      LDR      r2,[sp,#0x4c]
        0x08001ace:    704a        Jp      STRB     r2,[r1,#1]
        0x08001ad0:    1c9c        ..      ADDS     r4,r3,#2
        0x08001ad2:    7887        .x      LDRB     r7,[r0,#2]
        0x08001ad4:    0639        9.      LSLS     r1,r7,#24
        0x08001ad6:    d016        ..      BEQ      0x8001b06 ; 0x8001b06
        0x08001ad8:    b2f9        ..      UXTB     r1,r7
        0x08001ada:    2963        c)      CMP      r1,#0x63
        0x08001adc:    d915        ..      BLS      0x8001b0a ; 0x8001b0a
        0x08001ade:    900d        ..      STR      r0,[sp,#0x34]
        0x08001ae0:    2229        )"      MOVS     r2,#0x29
        0x08001ae2:    434a        JC      MULS     r2,r1,r2
        0x08001ae4:    0b11        ..      LSRS     r1,r2,#12
        0x08001ae6:    9110        ..      STR      r1,[sp,#0x40]
        0x08001ae8:    4af0        .J      LDR      r2,[pc,#960] ; [0x8001eac] = 0x8005d1c
        0x08001aea:    5c52        R\      LDRB     r2,[r2,r1]
        0x08001aec:    9211        ..      STR      r2,[sp,#0x44]
        0x08001aee:    aaff        ..      ADD      r2,sp,#0x3fc
        0x08001af0:    3258        X2      ADDS     r2,r2,#0x58
        0x08001af2:    9911        ..      LDR      r1,[sp,#0x44]
        0x08001af4:    5511        .U      STRB     r1,[r2,r4]
        0x08001af6:    2263        c"      MOVS     r2,#0x63
        0x08001af8:    43d2        .C      MVNS     r2,r2
        0x08001afa:    9910        ..      LDR      r1,[sp,#0x40]
        0x08001afc:    434a        JC      MULS     r2,r1,r2
        0x08001afe:    19d7        ..      ADDS     r7,r2,r7
        0x08001b00:    1cdc        ..      ADDS     r4,r3,#3
        0x08001b02:    2104        .!      MOVS     r1,#4
        0x08001b04:    e005        ..      B        0x8001b12 ; 0x8001b12
        0x08001b06:    9912        ..      LDR      r1,[sp,#0x48]
        0x08001b08:    e019        ..      B        0x8001b3e ; 0x8001b3e
        0x08001b0a:    2909        .)      CMP      r1,#9
        0x08001b0c:    d914        ..      BLS      0x8001b38 ; 0x8001b38
        0x08001b0e:    900d        ..      STR      r0,[sp,#0x34]
        0x08001b10:    2103        .!      MOVS     r1,#3
        0x08001b12:    9111        ..      STR      r1,[sp,#0x44]
        0x08001b14:    b2fa        ..      UXTB     r2,r7
        0x08001b16:    21cd        .!      MOVS     r1,#0xcd
        0x08001b18:    4351        QC      MULS     r1,r2,r1
        0x08001b1a:    0ac9        ..      LSRS     r1,r1,#11
        0x08001b1c:    4ae3        .J      LDR      r2,[pc,#908] ; [0x8001eac] = 0x8005d1c
        0x08001b1e:    5c52        R\      LDRB     r2,[r2,r1]
        0x08001b20:    9210        ..      STR      r2,[sp,#0x40]
        0x08001b22:    aaff        ..      ADD      r2,sp,#0x3fc
        0x08001b24:    3258        X2      ADDS     r2,r2,#0x58
        0x08001b26:    9810        ..      LDR      r0,[sp,#0x40]
        0x08001b28:    5510        .U      STRB     r0,[r2,r4]
        0x08001b2a:    9a11        ..      LDR      r2,[sp,#0x44]
        0x08001b2c:    18d4        ..      ADDS     r4,r2,r3
        0x08001b2e:    2209        ."      MOVS     r2,#9
        0x08001b30:    43d2        .C      MVNS     r2,r2
        0x08001b32:    434a        JC      MULS     r2,r1,r2
        0x08001b34:    19d7        ..      ADDS     r7,r2,r7
        0x08001b36:    980d        ..      LDR      r0,[sp,#0x34]
        0x08001b38:    b2f9        ..      UXTB     r1,r7
        0x08001b3a:    4adc        .J      LDR      r2,[pc,#880] ; [0x8001eac] = 0x8005d1c
        0x08001b3c:    5c51        Q\      LDRB     r1,[r2,r1]
        0x08001b3e:    aaff        ..      ADD      r2,sp,#0x3fc
        0x08001b40:    3258        X2      ADDS     r2,r2,#0x58
        0x08001b42:    5511        .U      STRB     r1,[r2,r4]
        0x08001b44:    1911        ..      ADDS     r1,r2,r4
        0x08001b46:    9a13        ..      LDR      r2,[sp,#0x4c]
        0x08001b48:    704a        Jp      STRB     r2,[r1,#1]
        0x08001b4a:    1ca7        ..      ADDS     r7,r4,#2
        0x08001b4c:    78c0        .x      LDRB     r0,[r0,#3]
        0x08001b4e:    0601        ..      LSLS     r1,r0,#24
        0x08001b50:    d014        ..      BEQ      0x8001b7c ; 0x8001b7c
        0x08001b52:    b2c1        ..      UXTB     r1,r0
        0x08001b54:    2963        c)      CMP      r1,#0x63
        0x08001b56:    d913        ..      BLS      0x8001b80 ; 0x8001b80
        0x08001b58:    2229        )"      MOVS     r2,#0x29
        0x08001b5a:    434a        JC      MULS     r2,r1,r2
        0x08001b5c:    0b13        ..      LSRS     r3,r2,#12
        0x08001b5e:    9313        ..      STR      r3,[sp,#0x4c]
        0x08001b60:    49d2        .I      LDR      r1,[pc,#840] ; [0x8001eac] = 0x8005d1c
        0x08001b62:    5cca        .\      LDRB     r2,[r1,r3]
        0x08001b64:    abff        ..      ADD      r3,sp,#0x3fc
        0x08001b66:    3358        X3      ADDS     r3,r3,#0x58
        0x08001b68:    55da        .U      STRB     r2,[r3,r7]
        0x08001b6a:    2263        c"      MOVS     r2,#0x63
        0x08001b6c:    43d2        .C      MVNS     r2,r2
        0x08001b6e:    9b13        ..      LDR      r3,[sp,#0x4c]
        0x08001b70:    435a        ZC      MULS     r2,r3,r2
        0x08001b72:    1810        ..      ADDS     r0,r2,r0
        0x08001b74:    1ce7        ..      ADDS     r7,r4,#3
        0x08001b76:    2204        ."      MOVS     r2,#4
        0x08001b78:    9213        ..      STR      r2,[sp,#0x4c]
        0x08001b7a:    e006        ..      B        0x8001b8a ; 0x8001b8a
        0x08001b7c:    9912        ..      LDR      r1,[sp,#0x48]
        0x08001b7e:    e015        ..      B        0x8001bac ; 0x8001bac
        0x08001b80:    2909        .)      CMP      r1,#9
        0x08001b82:    d910        ..      BLS      0x8001ba6 ; 0x8001ba6
        0x08001b84:    2103        .!      MOVS     r1,#3
        0x08001b86:    9113        ..      STR      r1,[sp,#0x4c]
        0x08001b88:    49c8        .I      LDR      r1,[pc,#800] ; [0x8001eac] = 0x8005d1c
        0x08001b8a:    b2c2        ..      UXTB     r2,r0
        0x08001b8c:    23cd        .#      MOVS     r3,#0xcd
        0x08001b8e:    4353        SC      MULS     r3,r2,r3
        0x08001b90:    0ada        ..      LSRS     r2,r3,#11
        0x08001b92:    5c8b        .\      LDRB     r3,[r1,r2]
        0x08001b94:    a9ff        ..      ADD      r1,sp,#0x3fc
        0x08001b96:    3158        X1      ADDS     r1,r1,#0x58
        0x08001b98:    55cb        .U      STRB     r3,[r1,r7]
        0x08001b9a:    9913        ..      LDR      r1,[sp,#0x4c]
        0x08001b9c:    190f        ..      ADDS     r7,r1,r4
        0x08001b9e:    2109        .!      MOVS     r1,#9
        0x08001ba0:    43c9        .C      MVNS     r1,r1
        0x08001ba2:    4351        QC      MULS     r1,r2,r1
        0x08001ba4:    1808        ..      ADDS     r0,r1,r0
        0x08001ba6:    49c1        .I      LDR      r1,[pc,#772] ; [0x8001eac] = 0x8005d1c
        0x08001ba8:    b2c0        ..      UXTB     r0,r0
        0x08001baa:    5c09        .\      LDRB     r1,[r1,r0]
        0x08001bac:    a8ff        ..      ADD      r0,sp,#0x3fc
        0x08001bae:    3058        X0      ADDS     r0,r0,#0x58
        0x08001bb0:    55c1        .U      STRB     r1,[r0,r7]
        0x08001bb2:    1c7c        |.      ADDS     r4,r7,#1
        0x08001bb4:    06f0        ..      LSLS     r0,r6,#27
        0x08001bb6:    d412        ..      BMI      0x8001bde ; 0x8001bde
        0x08001bb8:    990c        ..      LDR      r1,[sp,#0x30]
        0x08001bba:    1e48        H.      SUBS     r0,r1,#1
        0x08001bbc:    428c        .B      CMP      r4,r1
        0x08001bbe:    9e0f        ..      LDR      r6,[sp,#0x3c]
        0x08001bc0:    da0f        ..      BGE      0x8001be2 ; 0x8001be2
        0x08001bc2:    1bc7        ..      SUBS     r7,r0,r7
        0x08001bc4:    2220         "      MOVS     r2,#0x20
        0x08001bc6:    4630        0F      MOV      r0,r6
        0x08001bc8:    4639        9F      MOV      r1,r7
        0x08001bca:    f7fefb9f    ....    BL       __aeabi_memset ; 0x800030c
        0x08001bce:    19f0        ..      ADDS     r0,r6,r7
        0x08001bd0:    a9ff        ..      ADD      r1,sp,#0x3fc
        0x08001bd2:    3158        X1      ADDS     r1,r1,#0x58
        0x08001bd4:    4622        "F      MOV      r2,r4
        0x08001bd6:    f7fefb58    ..X.    BL       __aeabi_memcpy ; 0x800028a
        0x08001bda:    980c        ..      LDR      r0,[sp,#0x30]
        0x08001bdc:    e6ba        ..      B        0x8001954 ; 0x8001954
        0x08001bde:    9e0f        ..      LDR      r6,[sp,#0x3c]
        0x08001be0:    e000        ..      B        0x8001be4 ; 0x8001be4
        0x08001be2:    900c        ..      STR      r0,[sp,#0x30]
        0x08001be4:    a9ff        ..      ADD      r1,sp,#0x3fc
        0x08001be6:    3158        X1      ADDS     r1,r1,#0x58
        0x08001be8:    4630        0F      MOV      r0,r6
        0x08001bea:    4622        "F      MOV      r2,r4
        0x08001bec:    f7fefb4d    ..M.    BL       __aeabi_memcpy ; 0x800028a
        0x08001bf0:    1930        0.      ADDS     r0,r6,r4
        0x08001bf2:    990c        ..      LDR      r1,[sp,#0x30]
        0x08001bf4:    428c        .B      CMP      r4,r1
        0x08001bf6:    db01        ..      BLT      0x8001bfc ; 0x8001bfc
        0x08001bf8:    f7fffb74    ..t.    BL       0x80012e4 ; ee_printf + 60
        0x08001bfc:    460c        .F      MOV      r4,r1
        0x08001bfe:    43f9        .C      MVNS     r1,r7
        0x08001c00:    1861        a.      ADDS     r1,r4,r1
        0x08001c02:    2220         "      MOVS     r2,#0x20
        0x08001c04:    e11f        ..      B        0x8001e46 ; 0x8001e46
        0x08001c06:    1c63        c.      ADDS     r3,r4,#1
        0x08001c08:    e0ca        ..      B        0x8001da0 ; 0x8001da0
        0x08001c0a:    1ca3        ..      ADDS     r3,r4,#2
        0x08001c0c:    e0c8        ..      B        0x8001da0 ; 0x8001da0
        0x08001c0e:    1e64        d.      SUBS     r4,r4,#1
        0x08001c10:    212b        +!      MOVS     r1,#0x2b
        0x08001c12:    9108        ..      STR      r1,[sp,#0x20]
        0x08001c14:    2100        .!      MOVS     r1,#0
        0x08001c16:    9111        ..      STR      r1,[sp,#0x44]
        0x08001c18:    2120         !      MOVS     r1,#0x20
        0x08001c1a:    4031        1@      ANDS     r1,r1,r6
        0x08001c1c:    9110        ..      STR      r1,[sp,#0x40]
        0x08001c1e:    d000        ..      BEQ      0x8001c22 ; 0x8001c22
        0x08001c20:    1ea4        ..      SUBS     r4,r4,#2
        0x08001c22:    940c        ..      STR      r4,[sp,#0x30]
        0x08001c24:    2800        .(      CMP      r0,#0
        0x08001c26:    d025        %.      BEQ      0x8001c74 ; 0x8001c74
        0x08001c28:    2700        .'      MOVS     r7,#0
        0x08001c2a:    4ca0        .L      LDR      r4,[pc,#640] ; [0x8001eac] = 0x8005d1c
        0x08001c2c:    210f        .!      MOVS     r1,#0xf
        0x08001c2e:    4602        .F      MOV      r2,r0
        0x08001c30:    400a        .@      ANDS     r2,r2,r1
        0x08001c32:    5ca2        .\      LDRB     r2,[r4,r2]
        0x08001c34:    abff        ..      ADD      r3,sp,#0x3fc
        0x08001c36:    3358        X3      ADDS     r3,r3,#0x58
        0x08001c38:    55da        .U      STRB     r2,[r3,r7]
        0x08001c3a:    0902        ..      LSRS     r2,r0,#4
        0x08001c3c:    d01f        ..      BEQ      0x8001c7e ; 0x8001c7e
        0x08001c3e:    abff        ..      ADD      r3,sp,#0x3fc
        0x08001c40:    3358        X3      ADDS     r3,r3,#0x58
        0x08001c42:    19db        ..      ADDS     r3,r3,r7
        0x08001c44:    400a        .@      ANDS     r2,r2,r1
        0x08001c46:    5ca2        .\      LDRB     r2,[r4,r2]
        0x08001c48:    705a        Zp      STRB     r2,[r3,#1]
        0x08001c4a:    0a02        ..      LSRS     r2,r0,#8
        0x08001c4c:    d019        ..      BEQ      0x8001c82 ; 0x8001c82
        0x08001c4e:    abff        ..      ADD      r3,sp,#0x3fc
        0x08001c50:    3358        X3      ADDS     r3,r3,#0x58
        0x08001c52:    19db        ..      ADDS     r3,r3,r7
        0x08001c54:    400a        .@      ANDS     r2,r2,r1
        0x08001c56:    5ca2        .\      LDRB     r2,[r4,r2]
        0x08001c58:    709a        .p      STRB     r2,[r3,#2]
        0x08001c5a:    0b02        ..      LSRS     r2,r0,#12
        0x08001c5c:    d013        ..      BEQ      0x8001c86 ; 0x8001c86
        0x08001c5e:    abff        ..      ADD      r3,sp,#0x3fc
        0x08001c60:    3358        X3      ADDS     r3,r3,#0x58
        0x08001c62:    19db        ..      ADDS     r3,r3,r7
        0x08001c64:    400a        .@      ANDS     r2,r2,r1
        0x08001c66:    5ca1        .\      LDRB     r1,[r4,r2]
        0x08001c68:    70d9        .p      STRB     r1,[r3,#3]
        0x08001c6a:    0c00        ..      LSRS     r0,r0,#16
        0x08001c6c:    1d3f        ?.      ADDS     r7,r7,#4
        0x08001c6e:    2800        .(      CMP      r0,#0
        0x08001c70:    d1dc        ..      BNE      0x8001c2c ; 0x8001c2c
        0x08001c72:    e009        ..      B        0x8001c88 ; 0x8001c88
        0x08001c74:    a8ff        ..      ADD      r0,sp,#0x3fc
        0x08001c76:    3058        X0      ADDS     r0,r0,#0x58
        0x08001c78:    2130        0!      MOVS     r1,#0x30
        0x08001c7a:    7001        .p      STRB     r1,[r0,#0]
        0x08001c7c:    e004        ..      B        0x8001c88 ; 0x8001c88
        0x08001c7e:    1c7f        ..      ADDS     r7,r7,#1
        0x08001c80:    e002        ..      B        0x8001c88 ; 0x8001c88
        0x08001c82:    1cbf        ..      ADDS     r7,r7,#2
        0x08001c84:    e000        ..      B        0x8001c88 ; 0x8001c88
        0x08001c86:    1cff        ..      ADDS     r7,r7,#3
        0x08001c88:    980d        ..      LDR      r0,[sp,#0x34]
        0x08001c8a:    4287        .B      CMP      r7,r0
        0x08001c8c:    463a        :F      MOV      r2,r7
        0x08001c8e:    463c        <F      MOV      r4,r7
        0x08001c90:    dc00        ..      BGT      0x8001c94 ; 0x8001c94
        0x08001c92:    9a0d        ..      LDR      r2,[sp,#0x34]
        0x08001c94:    980c        ..      LDR      r0,[sp,#0x30]
        0x08001c96:    1a83        ..      SUBS     r3,r0,r2
        0x08001c98:    2011        .       MOVS     r0,#0x11
        0x08001c9a:    4206        .B      TST      r6,r0
        0x08001c9c:    9412        ..      STR      r4,[sp,#0x48]
        0x08001c9e:    d110        ..      BNE      0x8001cc2 ; 0x8001cc2
        0x08001ca0:    1e58        X.      SUBS     r0,r3,#1
        0x08001ca2:    db0d        ..      BLT      0x8001cc0 ; 0x8001cc0
        0x08001ca4:    920c        ..      STR      r2,[sp,#0x30]
        0x08001ca6:    2220         "      MOVS     r2,#0x20
        0x08001ca8:    9c0f        ..      LDR      r4,[sp,#0x3c]
        0x08001caa:    4620         F      MOV      r0,r4
        0x08001cac:    4619        .F      MOV      r1,r3
        0x08001cae:    461f        .F      MOV      r7,r3
        0x08001cb0:    f7fefb2c    ..,.    BL       __aeabi_memset ; 0x800030c
        0x08001cb4:    9a0c        ..      LDR      r2,[sp,#0x30]
        0x08001cb6:    19e4        ..      ADDS     r4,r4,r7
        0x08001cb8:    940f        ..      STR      r4,[sp,#0x3c]
        0x08001cba:    9c12        ..      LDR      r4,[sp,#0x48]
        0x08001cbc:    9b0a        ..      LDR      r3,[sp,#0x28]
        0x08001cbe:    e000        ..      B        0x8001cc2 ; 0x8001cc2
        0x08001cc0:    4603        .F      MOV      r3,r0
        0x08001cc2:    9811        ..      LDR      r0,[sp,#0x44]
        0x08001cc4:    2800        .(      CMP      r0,#0
        0x08001cc6:    d104        ..      BNE      0x8001cd2 ; 0x8001cd2
        0x08001cc8:    980f        ..      LDR      r0,[sp,#0x3c]
        0x08001cca:    9908        ..      LDR      r1,[sp,#0x20]
        0x08001ccc:    7001        .p      STRB     r1,[r0,#0]
        0x08001cce:    1c40        @.      ADDS     r0,r0,#1
        0x08001cd0:    900f        ..      STR      r0,[sp,#0x3c]
        0x08001cd2:    9810        ..      LDR      r0,[sp,#0x40]
        0x08001cd4:    2800        .(      CMP      r0,#0
        0x08001cd6:    d006        ..      BEQ      0x8001ce6 ; 0x8001ce6
        0x08001cd8:    2078        x       MOVS     r0,#0x78
        0x08001cda:    990f        ..      LDR      r1,[sp,#0x3c]
        0x08001cdc:    7048        Hp      STRB     r0,[r1,#1]
        0x08001cde:    2030        0       MOVS     r0,#0x30
        0x08001ce0:    7008        .p      STRB     r0,[r1,#0]
        0x08001ce2:    1c89        ..      ADDS     r1,r1,#2
        0x08001ce4:    910f        ..      STR      r1,[sp,#0x3c]
        0x08001ce6:    06f0        ..      LSLS     r0,r6,#27
        0x08001ce8:    d40e        ..      BMI      0x8001d08 ; 0x8001d08
        0x08001cea:    1e58        X.      SUBS     r0,r3,#1
        0x08001cec:    9e0f        ..      LDR      r6,[sp,#0x3c]
        0x08001cee:    db0d        ..      BLT      0x8001d0c ; 0x8001d0c
        0x08001cf0:    4630        0F      MOV      r0,r6
        0x08001cf2:    4619        .F      MOV      r1,r3
        0x08001cf4:    4617        .F      MOV      r7,r2
        0x08001cf6:    9a13        ..      LDR      r2,[sp,#0x4c]
        0x08001cf8:    9313        ..      STR      r3,[sp,#0x4c]
        0x08001cfa:    f7fefb07    ....    BL       __aeabi_memset ; 0x800030c
        0x08001cfe:    463a        :F      MOV      r2,r7
        0x08001d00:    9813        ..      LDR      r0,[sp,#0x4c]
        0x08001d02:    1836        6.      ADDS     r6,r6,r0
        0x08001d04:    9b0a        ..      LDR      r3,[sp,#0x28]
        0x08001d06:    e002        ..      B        0x8001d0e ; 0x8001d0e
        0x08001d08:    9e0f        ..      LDR      r6,[sp,#0x3c]
        0x08001d0a:    e000        ..      B        0x8001d0e ; 0x8001d0e
        0x08001d0c:    4603        .F      MOV      r3,r0
        0x08001d0e:    9313        ..      STR      r3,[sp,#0x4c]
        0x08001d10:    980d        ..      LDR      r0,[sp,#0x34]
        0x08001d12:    42a0        .B      CMP      r0,r4
        0x08001d14:    dd08        ..      BLE      0x8001d28 ; 0x8001d28
        0x08001d16:    9812        ..      LDR      r0,[sp,#0x48]
        0x08001d18:    1a14        ..      SUBS     r4,r2,r0
        0x08001d1a:    2230        0"      MOVS     r2,#0x30
        0x08001d1c:    4630        0F      MOV      r0,r6
        0x08001d1e:    4621        !F      MOV      r1,r4
        0x08001d20:    f7fefaf4    ....    BL       __aeabi_memset ; 0x800030c
        0x08001d24:    1936        6.      ADDS     r6,r6,r4
        0x08001d26:    9c12        ..      LDR      r4,[sp,#0x48]
        0x08001d28:    1ea0        ..      SUBS     r0,r4,#2
        0x08001d2a:    1f22        ".      SUBS     r2,r4,#4
        0x08001d2c:    2100        .!      MOVS     r1,#0
        0x08001d2e:    abff        ..      ADD      r3,sp,#0x3fc
        0x08001d30:    3358        X3      ADDS     r3,r3,#0x58
        0x08001d32:    189b        ..      ADDS     r3,r3,r2
        0x08001d34:    78db        .x      LDRB     r3,[r3,#3]
        0x08001d36:    5473        sT      STRB     r3,[r6,r1]
        0x08001d38:    1873        s.      ADDS     r3,r6,r1
        0x08001d3a:    1d14        ..      ADDS     r4,r2,#4
        0x08001d3c:    2c02        .,      CMP      r4,#2
        0x08001d3e:    db1a        ..      BLT      0x8001d76 ; 0x8001d76
        0x08001d40:    4637        7F      MOV      r7,r6
        0x08001d42:    aeff        ..      ADD      r6,sp,#0x3fc
        0x08001d44:    3658        X6      ADDS     r6,r6,#0x58
        0x08001d46:    18b6        ..      ADDS     r6,r6,r2
        0x08001d48:    78b6        .x      LDRB     r6,[r6,#2]
        0x08001d4a:    705e        ^p      STRB     r6,[r3,#1]
        0x08001d4c:    4288        .B      CMP      r0,r1
        0x08001d4e:    d014        ..      BEQ      0x8001d7a ; 0x8001d7a
        0x08001d50:    aeff        ..      ADD      r6,sp,#0x3fc
        0x08001d52:    3658        X6      ADDS     r6,r6,#0x58
        0x08001d54:    18b6        ..      ADDS     r6,r6,r2
        0x08001d56:    7876        vx      LDRB     r6,[r6,#1]
        0x08001d58:    709e        .p      STRB     r6,[r3,#2]
        0x08001d5a:    2c04        .,      CMP      r4,#4
        0x08001d5c:    d30f        ..      BCC      0x8001d7e ; 0x8001d7e
        0x08001d5e:    acff        ..      ADD      r4,sp,#0x3fc
        0x08001d60:    3458        X4      ADDS     r4,r4,#0x58
        0x08001d62:    5ca4        .\      LDRB     r4,[r4,r2]
        0x08001d64:    70dc        .p      STRB     r4,[r3,#3]
        0x08001d66:    1d09        ..      ADDS     r1,r1,#4
        0x08001d68:    1f12        ..      SUBS     r2,r2,#4
        0x08001d6a:    9c12        ..      LDR      r4,[sp,#0x48]
        0x08001d6c:    428c        .B      CMP      r4,r1
        0x08001d6e:    463e        >F      MOV      r6,r7
        0x08001d70:    d1dd        ..      BNE      0x8001d2e ; 0x8001d2e
        0x08001d72:    1870        p.      ADDS     r0,r6,r1
        0x08001d74:    e006        ..      B        0x8001d84 ; 0x8001d84
        0x08001d76:    1c58        X.      ADDS     r0,r3,#1
        0x08001d78:    e003        ..      B        0x8001d82 ; 0x8001d82
        0x08001d7a:    1c98        ..      ADDS     r0,r3,#2
        0x08001d7c:    e000        ..      B        0x8001d80 ; 0x8001d80
        0x08001d7e:    1cd8        ..      ADDS     r0,r3,#3
        0x08001d80:    463e        >F      MOV      r6,r7
        0x08001d82:    9c12        ..      LDR      r4,[sp,#0x48]
        0x08001d84:    9913        ..      LDR      r1,[sp,#0x4c]
        0x08001d86:    2901        .)      CMP      r1,#1
        0x08001d88:    da01        ..      BGE      0x8001d8e ; 0x8001d8e
        0x08001d8a:    f7fffaab    ....    BL       0x80012e4 ; ee_printf + 60
        0x08001d8e:    2220         "      MOVS     r2,#0x20
        0x08001d90:    460f        .F      MOV      r7,r1
        0x08001d92:    f7fefabb    ....    BL       __aeabi_memset ; 0x800030c
        0x08001d96:    1938        8.      ADDS     r0,r7,r4
        0x08001d98:    e5dc        ..      B        0x8001954 ; 0x8001954
        0x08001d9a:    1ce3        ..      ADDS     r3,r4,#3
        0x08001d9c:    e000        ..      B        0x8001da0 ; 0x8001da0
        0x08001d9e:    18fb        ..      ADDS     r3,r7,r3
        0x08001da0:    1bdc        ..      SUBS     r4,r3,r7
        0x08001da2:    06f0        ..      LSLS     r0,r6,#27
        0x08001da4:    d416        ..      BMI      0x8001dd4 ; 0x8001dd4
        0x08001da6:    980c        ..      LDR      r0,[sp,#0x30]
        0x08001da8:    4284        .B      CMP      r4,r0
        0x08001daa:    da11        ..      BGE      0x8001dd0 ; 0x8001dd0
        0x08001dac:    19c0        ..      ADDS     r0,r0,r7
        0x08001dae:    1ac1        ..      SUBS     r1,r0,r3
        0x08001db0:    9112        ..      STR      r1,[sp,#0x48]
        0x08001db2:    2220         "      MOVS     r2,#0x20
        0x08001db4:    9e0f        ..      LDR      r6,[sp,#0x3c]
        0x08001db6:    4630        0F      MOV      r0,r6
        0x08001db8:    9313        ..      STR      r3,[sp,#0x4c]
        0x08001dba:    f7fefaa7    ....    BL       __aeabi_memset ; 0x800030c
        0x08001dbe:    9b13        ..      LDR      r3,[sp,#0x4c]
        0x08001dc0:    43f8        .C      MVNS     r0,r7
        0x08001dc2:    1818        ..      ADDS     r0,r3,r0
        0x08001dc4:    900c        ..      STR      r0,[sp,#0x30]
        0x08001dc6:    9812        ..      LDR      r0,[sp,#0x48]
        0x08001dc8:    1836        6.      ADDS     r6,r6,r0
        0x08001dca:    2c01        .,      CMP      r4,#1
        0x08001dcc:    da05        ..      BGE      0x8001dda ; 0x8001dda
        0x08001dce:    e030        0.      B        0x8001e32 ; 0x8001e32
        0x08001dd0:    1e40        @.      SUBS     r0,r0,#1
        0x08001dd2:    900c        ..      STR      r0,[sp,#0x30]
        0x08001dd4:    9e0f        ..      LDR      r6,[sp,#0x3c]
        0x08001dd6:    2c01        .,      CMP      r4,#1
        0x08001dd8:    db2b        +.      BLT      0x8001e32 ; 0x8001e32
        0x08001dda:    43f8        .C      MVNS     r0,r7
        0x08001ddc:    18c0        ..      ADDS     r0,r0,r3
        0x08001dde:    2803        .(      CMP      r0,#3
        0x08001de0:    d204        ..      BCS      0x8001dec ; 0x8001dec
        0x08001de2:    4638        8F      MOV      r0,r7
        0x08001de4:    e013        ..      B        0x8001e0e ; 0x8001e0e
        0x08001de6:    46c0        .F      MOV      r8,r8
    $d
        0x08001de8:    08005d1c    .]..    DCD    134241564
    $t
        0x08001dec:    4621        !F      MOV      r1,r4
        0x08001dee:    4830        0H      LDR      r0,[pc,#192] ; [0x8001eb0] = 0x7ffffffc
        0x08001df0:    4001        .@      ANDS     r1,r1,r0
        0x08001df2:    4638        8F      MOV      r0,r7
        0x08001df4:    7802        .x      LDRB     r2,[r0,#0]
        0x08001df6:    7032        2p      STRB     r2,[r6,#0]
        0x08001df8:    7842        Bx      LDRB     r2,[r0,#1]
        0x08001dfa:    7072        rp      STRB     r2,[r6,#1]
        0x08001dfc:    7882        .x      LDRB     r2,[r0,#2]
        0x08001dfe:    70b2        .p      STRB     r2,[r6,#2]
        0x08001e00:    78c2        .x      LDRB     r2,[r0,#3]
        0x08001e02:    70f2        .p      STRB     r2,[r6,#3]
        0x08001e04:    1d00        ..      ADDS     r0,r0,#4
        0x08001e06:    1f09        ..      SUBS     r1,r1,#4
        0x08001e08:    1d36        6.      ADDS     r6,r6,#4
        0x08001e0a:    2900        .)      CMP      r1,#0
        0x08001e0c:    d1f2        ..      BNE      0x8001df4 ; 0x8001df4
        0x08001e0e:    2103        .!      MOVS     r1,#3
        0x08001e10:    4021        !@      ANDS     r1,r1,r4
        0x08001e12:    d00e        ..      BEQ      0x8001e32 ; 0x8001e32
        0x08001e14:    7802        .x      LDRB     r2,[r0,#0]
        0x08001e16:    7032        2p      STRB     r2,[r6,#0]
        0x08001e18:    2901        .)      CMP      r1,#1
        0x08001e1a:    d101        ..      BNE      0x8001e20 ; 0x8001e20
        0x08001e1c:    1c76        v.      ADDS     r6,r6,#1
        0x08001e1e:    e008        ..      B        0x8001e32 ; 0x8001e32
        0x08001e20:    7842        Bx      LDRB     r2,[r0,#1]
        0x08001e22:    7072        rp      STRB     r2,[r6,#1]
        0x08001e24:    2902        .)      CMP      r1,#2
        0x08001e26:    d101        ..      BNE      0x8001e2c ; 0x8001e2c
        0x08001e28:    1cb6        ..      ADDS     r6,r6,#2
        0x08001e2a:    e002        ..      B        0x8001e32 ; 0x8001e32
        0x08001e2c:    7880        .x      LDRB     r0,[r0,#2]
        0x08001e2e:    70b0        .p      STRB     r0,[r6,#2]
        0x08001e30:    1cf6        ..      ADDS     r6,r6,#3
        0x08001e32:    990c        ..      LDR      r1,[sp,#0x30]
        0x08001e34:    428c        .B      CMP      r4,r1
        0x08001e36:    db01        ..      BLT      0x8001e3c ; 0x8001e3c
        0x08001e38:    f7fffa55    ..U.    BL       0x80012e6 ; ee_printf + 62
        0x08001e3c:    1af8        ..      SUBS     r0,r7,r3
        0x08001e3e:    1844        D.      ADDS     r4,r0,r1
        0x08001e40:    2220         "      MOVS     r2,#0x20
        0x08001e42:    4630        0F      MOV      r0,r6
        0x08001e44:    4621        !F      MOV      r1,r4
        0x08001e46:    f7fefa61    ..a.    BL       __aeabi_memset ; 0x800030c
        0x08001e4a:    1936        6.      ADDS     r6,r6,r4
        0x08001e4c:    f7fffa4b    ..K.    BL       0x80012e6 ; ee_printf + 62
        0x08001e50:    9809        ..      LDR      r0,[sp,#0x24]
        0x08001e52:    7030        0p      STRB     r0,[r6,#0]
        0x08001e54:    a815        ..      ADD      r0,sp,#0x54
        0x08001e56:    7802        .x      LDRB     r2,[r0,#0]
        0x08001e58:    2a00        .*      CMP      r2,#0
        0x08001e5a:    d020         .      BEQ      0x8001e9e ; 0x8001e9e
        0x08001e5c:    a815        ..      ADD      r0,sp,#0x54
        0x08001e5e:    4915        .I      LDR      r1,[pc,#84] ; [0x8001eb4] = 0x4000441c
        0x08001e60:    e003        ..      B        0x8001e6a ; 0x8001e6a
        0x08001e62:    7842        Bx      LDRB     r2,[r0,#1]
        0x08001e64:    1c40        @.      ADDS     r0,r0,#1
        0x08001e66:    2a00        .*      CMP      r2,#0
        0x08001e68:    d019        ..      BEQ      0x8001e9e ; 0x8001e9e
        0x08001e6a:    680b        .h      LDR      r3,[r1,#0]
        0x08001e6c:    061b        ..      LSLS     r3,r3,#24
        0x08001e6e:    d408        ..      BMI      0x8001e82 ; 0x8001e82
        0x08001e70:    680b        .h      LDR      r3,[r1,#0]
        0x08001e72:    061b        ..      LSLS     r3,r3,#24
        0x08001e74:    d405        ..      BMI      0x8001e82 ; 0x8001e82
        0x08001e76:    680b        .h      LDR      r3,[r1,#0]
        0x08001e78:    061b        ..      LSLS     r3,r3,#24
        0x08001e7a:    d402        ..      BMI      0x8001e82 ; 0x8001e82
        0x08001e7c:    680b        .h      LDR      r3,[r1,#0]
        0x08001e7e:    061b        ..      LSLS     r3,r3,#24
        0x08001e80:    d5f3        ..      BPL      0x8001e6a ; 0x8001e6a
        0x08001e82:    60ca        .`      STR      r2,[r1,#0xc]
        0x08001e84:    680a        .h      LDR      r2,[r1,#0]
        0x08001e86:    0652        R.      LSLS     r2,r2,#25
        0x08001e88:    d4eb        ..      BMI      0x8001e62 ; 0x8001e62
        0x08001e8a:    680a        .h      LDR      r2,[r1,#0]
        0x08001e8c:    0652        R.      LSLS     r2,r2,#25
        0x08001e8e:    d4e8        ..      BMI      0x8001e62 ; 0x8001e62
        0x08001e90:    680a        .h      LDR      r2,[r1,#0]
        0x08001e92:    0652        R.      LSLS     r2,r2,#25
        0x08001e94:    d4e5        ..      BMI      0x8001e62 ; 0x8001e62
        0x08001e96:    680a        .h      LDR      r2,[r1,#0]
        0x08001e98:    0652        R.      LSLS     r2,r2,#25
        0x08001e9a:    d5f3        ..      BPL      0x8001e84 ; 0x8001e84
        0x08001e9c:    e7e1        ..      B        0x8001e62 ; 0x8001e62
        0x08001e9e:    b07f        ..      ADD      sp,sp,#0x1fc
        0x08001ea0:    b07f        ..      ADD      sp,sp,#0x1fc
        0x08001ea2:    b028        (.      ADD      sp,sp,#0xa0
        0x08001ea4:    bcf0        ..      POP      {r4-r7}
        0x08001ea6:    bc01        ..      POP      {r0}
        0x08001ea8:    b003        ..      ADD      sp,sp,#0xc
        0x08001eaa:    4700        .G      BX       r0
    $d
        0x08001eac:    08005d1c    .]..    DCD    134241564
    __arm_cp.13_3
        0x08001eb0:    7ffffffc    ....    DCD    2147483644
    __arm_cp.13_4
        0x08001eb4:    4000441c    .D.@    DCD    1073759260
    $t
    main
        0x08001eb8:    b570        p.      PUSH     {r4-r6,lr}
        0x08001eba:    4efc        .N      LDR      r6,[pc,#1008] ; [0x80022ac] = 0xfffff788
        0x08001ebc:    44b5        .D      ADD      sp,sp,r6
        0x08001ebe:    48fc        .H      LDR      r0,[pc,#1008] ; [0x80022b0] = 0x83c
        0x08001ec0:    4468        hD      ADD      r0,sp,r0
        0x08001ec2:    900d        ..      STR      r0,[sp,#0x34]
        0x08001ec4:    48fb        .H      LDR      r0,[pc,#1004] ; [0x80022b4] = 0x850
        0x08001ec6:    4468        hD      ADD      r0,sp,r0
        0x08001ec8:    9018        ..      STR      r0,[sp,#0x60]
        0x08001eca:    48fb        .H      LDR      r0,[pc,#1004] ; [0x80022b8] = 0x40022000
        0x08001ecc:    6801        .h      LDR      r1,[r0,#0]
        0x08001ece:    2307        .#      MOVS     r3,#7
        0x08001ed0:    4319        .C      ORRS     r1,r1,r3
        0x08001ed2:    6001        .`      STR      r1,[r0,#0]
        0x08001ed4:    02d9        ..      LSLS     r1,r3,#11
        0x08001ed6:    48f9        .H      LDR      r0,[pc,#996] ; [0x80022bc] = 0x40021000
        0x08001ed8:    6802        .h      LDR      r2,[r0,#0]
        0x08001eda:    438a        .C      BICS     r2,r2,r1
        0x08001edc:    6002        .`      STR      r2,[r0,#0]
        0x08001ede:    49f8        .I      LDR      r1,[pc,#992] ; [0x80022c0] = 0x834
        0x08001ee0:    4469        iD      ADD      r1,sp,r1
        0x08001ee2:    3140        @1      ADDS     r1,r1,#0x40
        0x08001ee4:    9106        ..      STR      r1,[sp,#0x18]
        0x08001ee6:    6881        .h      LDR      r1,[r0,#8]
        0x08001ee8:    0689        ..      LSLS     r1,r1,#26
        0x08001eea:    0f49        I.      LSRS     r1,r1,#29
        0x08001eec:    4df5        .M      LDR      r5,[pc,#980] ; [0x80022c4] = 0x2dc6c00
        0x08001eee:    2901        .)      CMP      r1,#1
        0x08001ef0:    9307        ..      STR      r3,[sp,#0x1c]
        0x08001ef2:    d00d        ..      BEQ      0x8001f10 ; main + 88
        0x08001ef4:    2904        .)      CMP      r1,#4
        0x08001ef6:    d004        ..      BEQ      0x8001f02 ; main + 74
        0x08001ef8:    2903        .)      CMP      r1,#3
        0x08001efa:    d105        ..      BNE      0x8001f08 ; main + 80
        0x08001efc:    217d        }!      MOVS     r1,#0x7d
        0x08001efe:    020d        ..      LSLS     r5,r1,#8
        0x08001f00:    e006        ..      B        0x8001f10 ; main + 88
        0x08001f02:    2101        .!      MOVS     r1,#1
        0x08001f04:    03cd        ..      LSLS     r5,r1,#15
        0x08001f06:    e003        ..      B        0x8001f10 ; main + 88
        0x08001f08:    6801        .h      LDR      r1,[r0,#0]
        0x08001f0a:    0489        ..      LSLS     r1,r1,#18
        0x08001f0c:    0f49        I.      LSRS     r1,r1,#29
        0x08001f0e:    40cd        .@      LSRS     r5,r5,r1
        0x08001f10:    6881        .h      LDR      r1,[r0,#8]
        0x08001f12:    6b42        Bk      LDR      r2,[r0,#0x34]
        0x08001f14:    2401        .$      MOVS     r4,#1
        0x08001f16:    4322        "C      ORRS     r2,r2,r4
        0x08001f18:    6342        Bc      STR      r2,[r0,#0x34]
        0x08001f1a:    0462        b.      LSLS     r2,r4,#17
        0x08001f1c:    6bc3        .k      LDR      r3,[r0,#0x3c]
        0x08001f1e:    4313        .C      ORRS     r3,r3,r2
        0x08001f20:    63c3        .c      STR      r3,[r0,#0x3c]
        0x08001f22:    2005        .       MOVS     r0,#5
        0x08001f24:    9008        ..      STR      r0,[sp,#0x20]
        0x08001f26:    0700        ..      LSLS     r0,r0,#28
        0x08001f28:    6802        .h      LDR      r2,[r0,#0]
        0x08001f2a:    23f0        .#      MOVS     r3,#0xf0
        0x08001f2c:    439a        .C      BICS     r2,r2,r3
        0x08001f2e:    6002        .`      STR      r2,[r0,#0]
        0x08001f30:    6802        .h      LDR      r2,[r0,#0]
        0x08001f32:    23a0        .#      MOVS     r3,#0xa0
        0x08001f34:    4313        .C      ORRS     r3,r3,r2
        0x08001f36:    6003        .`      STR      r3,[r0,#0]
        0x08001f38:    22ff        ."      MOVS     r2,#0xff
        0x08001f3a:    9213        ..      STR      r2,[sp,#0x4c]
        0x08001f3c:    0212        ..      LSLS     r2,r2,#8
        0x08001f3e:    6a03        .j      LDR      r3,[r0,#0x20]
        0x08001f40:    4393        .C      BICS     r3,r3,r2
        0x08001f42:    6203        .b      STR      r3,[r0,#0x20]
        0x08001f44:    2211        ."      MOVS     r2,#0x11
        0x08001f46:    0212        ..      LSLS     r2,r2,#8
        0x08001f48:    6a03        .j      LDR      r3,[r0,#0x20]
        0x08001f4a:    4313        .C      ORRS     r3,r3,r2
        0x08001f4c:    6203        .b      STR      r3,[r0,#0x20]
        0x08001f4e:    4fde        .O      LDR      r7,[pc,#888] ; [0x80022c8] = 0x40004400
        0x08001f50:    2600        .&      MOVS     r6,#0
        0x08001f52:    603e        >`      STR      r6,[r7,#0]
        0x08001f54:    607e        ~`      STR      r6,[r7,#4]
        0x08001f56:    60be        .`      STR      r6,[r7,#8]
        0x08001f58:    0988        ..      LSRS     r0,r1,#6
        0x08001f5a:    213c        <!      MOVS     r1,#0x3c
        0x08001f5c:    4001        .@      ANDS     r1,r1,r0
        0x08001f5e:    a0db        ..      ADR      r0,{pc}+0x36e ; 0x80022cc
        0x08001f60:    5840        @X      LDR      r0,[r0,r1]
        0x08001f62:    40c5        .@      LSRS     r5,r5,r0
        0x08001f64:    20e1        .       MOVS     r0,#0xe1
        0x08001f66:    0241        A.      LSLS     r1,r0,#9
        0x08001f68:    9504        ..      STR      r5,[sp,#0x10]
        0x08001f6a:    4628        (F      MOV      r0,r5
        0x08001f6c:    f7fef9f8    ....    BL       __aeabi_uidiv ; 0x8000360
        0x08001f70:    60f8        .`      STR      r0,[r7,#0xc]
        0x08001f72:    6838        8h      LDR      r0,[r7,#0]
        0x08001f74:    210c        .!      MOVS     r1,#0xc
        0x08001f76:    910f        ..      STR      r1,[sp,#0x3c]
        0x08001f78:    4308        .C      ORRS     r0,r0,r1
        0x08001f7a:    6038        8`      STR      r0,[r7,#0]
        0x08001f7c:    6838        8h      LDR      r0,[r7,#0]
        0x08001f7e:    4320         C      ORRS     r0,r0,r4
        0x08001f80:    6038        8`      STR      r0,[r7,#0]
        0x08001f82:    a0e2        ..      ADR      r0,{pc}+0x38a ; 0x800230c
        0x08001f84:    f7fff990    ....    BL       ee_printf ; 0x80012a8
        0x08001f88:    48e7        .H      LDR      r0,[pc,#924] ; [0x8002328] = 0x2000006c
        0x08001f8a:    6800        .h      LDR      r0,[r0,#0]
        0x08001f8c:    49cc        .I      LDR      r1,[pc,#816] ; [0x80022c0] = 0x834
        0x08001f8e:    4469        iD      ADD      r1,sp,r1
        0x08001f90:    9010        ..      STR      r0,[sp,#0x40]
        0x08001f92:    8008        ..      STRH     r0,[r1,#0]
        0x08001f94:    9806        ..      LDR      r0,[sp,#0x18]
        0x08001f96:    7084        .p      STRB     r4,[r0,#2]
        0x08001f98:    48e4        .H      LDR      r0,[pc,#912] ; [0x800232c] = 0x20000070
        0x08001f9a:    6803        .h      LDR      r3,[r0,#0]
        0x08001f9c:    804b        K.      STRH     r3,[r1,#2]
        0x08001f9e:    48e4        .H      LDR      r0,[pc,#912] ; [0x8002330] = 0x20000000
        0x08001fa0:    6800        .h      LDR      r0,[r0,#0]
        0x08001fa2:    8088        ..      STRH     r0,[r1,#4]
        0x08001fa4:    49e3        .I      LDR      r1,[pc,#908] ; [0x8002334] = 0x20000004
        0x08001fa6:    6809        .h      LDR      r1,[r1,#0]
        0x08001fa8:    9a18        ..      LDR      r2,[sp,#0x60]
        0x08001faa:    6011        .`      STR      r1,[r2,#0]
        0x08001fac:    49e2        .I      LDR      r1,[pc,#904] ; [0x8002338] = 0x20000074
        0x08001fae:    6809        .h      LDR      r1,[r1,#0]
        0x08001fb0:    2900        .)      CMP      r1,#0
        0x08001fb2:    9f07        ..      LDR      r7,[sp,#0x1c]
        0x08001fb4:    d000        ..      BEQ      0x8001fb8 ; main + 256
        0x08001fb6:    460f        .F      MOV      r7,r1
        0x08001fb8:    6057        W`      STR      r7,[r2,#4]
        0x08001fba:    9910        ..      LDR      r1,[sp,#0x40]
        0x08001fbc:    0409        ..      LSLS     r1,r1,#16
        0x08001fbe:    9a0d        ..      LDR      r2,[sp,#0x34]
        0x08001fc0:    d103        ..      BNE      0x8001fca ; main + 274
        0x08001fc2:    0419        ..      LSLS     r1,r3,#16
        0x08001fc4:    d101        ..      BNE      0x8001fca ; main + 274
        0x08001fc6:    0401        ..      LSLS     r1,r0,#16
        0x08001fc8:    d008        ..      BEQ      0x8001fdc ; main + 292
        0x08001fca:    9910        ..      LDR      r1,[sp,#0x40]
        0x08001fcc:    b289        ..      UXTH     r1,r1
        0x08001fce:    2901        .)      CMP      r1,#1
        0x08001fd0:    d10c        ..      BNE      0x8001fec ; main + 308
        0x08001fd2:    0419        ..      LSLS     r1,r3,#16
        0x08001fd4:    d10a        ..      BNE      0x8001fec ; main + 308
        0x08001fd6:    0400        ..      LSLS     r0,r0,#16
        0x08001fd8:    d108        ..      BNE      0x8001fec ; main + 308
        0x08001fda:    4ed8        .N      LDR      r6,[pc,#864] ; [0x800233c] = 0x3415
        0x08001fdc:    48b8        .H      LDR      r0,[pc,#736] ; [0x80022c0] = 0x834
        0x08001fde:    4468        hD      ADD      r0,sp,r0
        0x08001fe0:    2166        f!      MOVS     r1,#0x66
        0x08001fe2:    8081        ..      STRH     r1,[r0,#4]
        0x08001fe4:    8046        F.      STRH     r6,[r0,#2]
        0x08001fe6:    8006        ..      STRH     r6,[r0,#0]
        0x08001fe8:    4633        3F      MOV      r3,r6
        0x08001fea:    9610        ..      STR      r6,[sp,#0x40]
        0x08001fec:    9302        ..      STR      r3,[sp,#8]
        0x08001fee:    2500        .%      MOVS     r5,#0
        0x08001ff0:    9806        ..      LDR      r0,[sp,#0x18]
        0x08001ff2:    8005        ..      STRH     r5,[r0,#0]
        0x08001ff4:    a819        ..      ADD      r0,sp,#0x64
        0x08001ff6:    6010        .`      STR      r0,[r2,#0]
        0x08001ff8:    463e        >F      MOV      r6,r7
        0x08001ffa:    4026        &@      ANDS     r6,r6,r4
        0x08001ffc:    07b8        ..      LSLS     r0,r7,#30
        0x08001ffe:    0fc0        ..      LSRS     r0,r0,#31
        0x08002000:    1980        ..      ADDS     r0,r0,r6
        0x08002002:    0779        y.      LSLS     r1,r7,#29
        0x08002004:    0fc9        ..      LSRS     r1,r1,#31
        0x08002006:    1809        ..      ADDS     r1,r1,r0
        0x08002008:    2007        .       MOVS     r0,#7
        0x0800200a:    900c        ..      STR      r0,[sp,#0x30]
        0x0800200c:    0200        ..      LSLS     r0,r0,#8
        0x0800200e:    900b        ..      STR      r0,[sp,#0x2c]
        0x08002010:    30d0        .0      ADDS     r0,r0,#0xd0
        0x08002012:    f7fef9a5    ....    BL       __aeabi_uidiv ; 0x8000360
        0x08002016:    990d        ..      LDR      r1,[sp,#0x34]
        0x08002018:    9011        ..      STR      r0,[sp,#0x44]
        0x0800201a:    460a        .F      MOV      r2,r1
        0x0800201c:    6108        .a      STR      r0,[r1,#0x10]
        0x0800201e:    2e00        ..      CMP      r6,#0
        0x08002020:    d002        ..      BEQ      0x8002028 ; main + 368
        0x08002022:    a819        ..      ADD      r0,sp,#0x64
        0x08002024:    6050        P`      STR      r0,[r2,#4]
        0x08002026:    4625        %F      MOV      r5,r4
        0x08002028:    2002        .       MOVS     r0,#2
        0x0800202a:    9018        ..      STR      r0,[sp,#0x60]
        0x0800202c:    4639        9F      MOV      r1,r7
        0x0800202e:    4001        .@      ANDS     r1,r1,r0
        0x08002030:    9103        ..      STR      r1,[sp,#0xc]
        0x08002032:    d006        ..      BEQ      0x8002042 ; main + 394
        0x08002034:    9811        ..      LDR      r0,[sp,#0x44]
        0x08002036:    4368        hC      MULS     r0,r5,r0
        0x08002038:    b280        ..      UXTH     r0,r0
        0x0800203a:    a919        ..      ADD      r1,sp,#0x64
        0x0800203c:    1808        ..      ADDS     r0,r1,r0
        0x0800203e:    6090        .`      STR      r0,[r2,#8]
        0x08002040:    1c6d        m.      ADDS     r5,r5,#1
        0x08002042:    2004        .       MOVS     r0,#4
        0x08002044:    9009        ..      STR      r0,[sp,#0x24]
        0x08002046:    4007        .@      ANDS     r7,r7,r0
        0x08002048:    9707        ..      STR      r7,[sp,#0x1c]
        0x0800204a:    d004        ..      BEQ      0x8002056 ; main + 414
        0x0800204c:    9811        ..      LDR      r0,[sp,#0x44]
        0x0800204e:    4345        EC      MULS     r5,r0,r5
        0x08002050:    a819        ..      ADD      r0,sp,#0x64
        0x08002052:    1940        @.      ADDS     r0,r0,r5
        0x08002054:    60d0        .`      STR      r0,[r2,#0xc]
        0x08002056:    2500        .%      MOVS     r5,#0
        0x08002058:    43ef        .C      MVNS     r7,r5
        0x0800205a:    2e00        ..      CMP      r6,#0
        0x0800205c:    9705        ..      STR      r7,[sp,#0x14]
        0x0800205e:    d100        ..      BNE      0x8002062 ; main + 426
        0x08002060:    e1cd        ..      B        0x80023fe ; 0x80023fe
        0x08002062:    2114        .!      MOVS     r1,#0x14
        0x08002064:    9811        ..      LDR      r0,[sp,#0x44]
        0x08002066:    f7fef97b    ..{.    BL       __aeabi_uidiv ; 0x8000360
        0x0800206a:    1e83        ..      SUBS     r3,r0,#2
        0x0800206c:    00d8        ..      LSLS     r0,r3,#3
        0x0800206e:    4cb4        .L      LDR      r4,[pc,#720] ; [0x8002340] = 0x7fff
        0x08002070:    4622        "F      MOV      r2,r4
        0x08002072:    3281        .2      ADDS     r2,r2,#0x81
        0x08002074:    a919        ..      ADD      r1,sp,#0x64
        0x08002076:    520a        .R      STRH     r2,[r1,r0]
        0x08002078:    180e        ..      ADDS     r6,r1,r0
        0x0800207a:    8075        u.      STRH     r5,[r6,#2]
        0x0800207c:    80f4        ..      STRH     r4,[r6,#6]
        0x0800207e:    80b7        ..      STRH     r7,[r6,#4]
        0x08002080:    951b        ..      STR      r5,[sp,#0x6c]
        0x08002082:    4608        .F      MOV      r0,r1
        0x08002084:    3008        .0      ADDS     r0,r0,#8
        0x08002086:    9017        ..      STR      r0,[sp,#0x5c]
        0x08002088:    9019        ..      STR      r0,[sp,#0x64]
        0x0800208a:    961a        ..      STR      r6,[sp,#0x68]
        0x0800208c:    1d30        0.      ADDS     r0,r6,#4
        0x0800208e:    901c        ..      STR      r0,[sp,#0x70]
        0x08002090:    0098        ..      LSLS     r0,r3,#2
        0x08002092:    1830        0.      ADDS     r0,r6,r0
        0x08002094:    9016        ..      STR      r0,[sp,#0x58]
        0x08002096:    2003        .       MOVS     r0,#3
        0x08002098:    9301        ..      STR      r3,[sp,#4]
        0x0800209a:    900a        ..      STR      r0,[sp,#0x28]
        0x0800209c:    4383        .C      BICS     r3,r3,r0
        0x0800209e:    930e        ..      STR      r3,[sp,#0x38]
        0x080020a0:    4632        2F      MOV      r2,r6
        0x080020a2:    3208        .2      ADDS     r2,r2,#8
        0x080020a4:    3110        .1      ADDS     r1,r1,#0x10
        0x080020a6:    9813        ..      LDR      r0,[sp,#0x4c]
        0x080020a8:    3002        .0      ADDS     r0,#2
        0x080020aa:    9013        ..      STR      r0,[sp,#0x4c]
        0x080020ac:    9612        ..      STR      r6,[sp,#0x48]
        0x080020ae:    e006        ..      B        0x80020be ; main + 518
        0x080020b0:    4622        "F      MOV      r2,r4
        0x080020b2:    4601        .F      MOV      r1,r0
        0x080020b4:    1d2d        -.      ADDS     r5,r5,#4
        0x080020b6:    980e        ..      LDR      r0,[sp,#0x38]
        0x080020b8:    42a8        .B      CMP      r0,r5
        0x080020ba:    d100        ..      BNE      0x80020be ; main + 518
        0x080020bc:    e084        ..      B        0x80021c8 ; main + 784
        0x080020be:    4608        .F      MOV      r0,r1
        0x080020c0:    3008        .0      ADDS     r0,r0,#8
        0x080020c2:    42b0        .B      CMP      r0,r6
        0x080020c4:    d217        ..      BCS      0x80020f6 ; main + 574
        0x080020c6:    1d14        ..      ADDS     r4,r2,#4
        0x080020c8:    9f16        ..      LDR      r7,[sp,#0x58]
        0x080020ca:    42bc        .B      CMP      r4,r7
        0x080020cc:    d213        ..      BCS      0x80020f6 ; main + 574
        0x080020ce:    462e        .F      MOV      r6,r5
        0x080020d0:    9b09        ..      LDR      r3,[sp,#0x24]
        0x080020d2:    401e        .@      ANDS     r6,r6,r3
        0x080020d4:    9f10        ..      LDR      r7,[sp,#0x40]
        0x080020d6:    406f        o@      EORS     r7,r7,r5
        0x080020d8:    073f        ?.      LSLS     r7,r7,#28
        0x080020da:    0e7f        ..      LSRS     r7,r7,#25
        0x080020dc:    19be        ..      ADDS     r6,r7,r6
        0x080020de:    9f13        ..      LDR      r7,[sp,#0x4c]
        0x080020e0:    437e        ~C      MULS     r6,r7,r6
        0x080020e2:    9b17        ..      LDR      r3,[sp,#0x5c]
        0x080020e4:    600b        .`      STR      r3,[r1,#0]
        0x080020e6:    604a        J`      STR      r2,[r1,#4]
        0x080020e8:    4f95        .O      LDR      r7,[pc,#596] ; [0x8002340] = 0x7fff
        0x080020ea:    8057        W.      STRH     r7,[r2,#2]
        0x080020ec:    8016        ..      STRH     r6,[r2,#0]
        0x080020ee:    9e12        ..      LDR      r6,[sp,#0x48]
        0x080020f0:    9119        ..      STR      r1,[sp,#0x64]
        0x080020f2:    9117        ..      STR      r1,[sp,#0x5c]
        0x080020f4:    e001        ..      B        0x80020fa ; main + 578
        0x080020f6:    4614        .F      MOV      r4,r2
        0x080020f8:    4608        .F      MOV      r0,r1
        0x080020fa:    2701        .'      MOVS     r7,#1
        0x080020fc:    4601        .F      MOV      r1,r0
        0x080020fe:    3108        .1      ADDS     r1,r1,#8
        0x08002100:    42b1        .B      CMP      r1,r6
        0x08002102:    d21b        ..      BCS      0x800213c ; main + 644
        0x08002104:    1d22        ".      ADDS     r2,r4,#4
        0x08002106:    9b16        ..      LDR      r3,[sp,#0x58]
        0x08002108:    429a        .B      CMP      r2,r3
        0x0800210a:    d217        ..      BCS      0x800213c ; main + 644
        0x0800210c:    9715        ..      STR      r7,[sp,#0x54]
        0x0800210e:    462f        /F      MOV      r7,r5
        0x08002110:    9b15        ..      LDR      r3,[sp,#0x54]
        0x08002112:    431f        .C      ORRS     r7,r7,r3
        0x08002114:    9b10        ..      LDR      r3,[sp,#0x40]
        0x08002116:    407b        {@      EORS     r3,r3,r7
        0x08002118:    9e08        ..      LDR      r6,[sp,#0x20]
        0x0800211a:    4037        7@      ANDS     r7,r7,r6
        0x0800211c:    071b        ..      LSLS     r3,r3,#28
        0x0800211e:    0e5b        [.      LSRS     r3,r3,#25
        0x08002120:    19db        ..      ADDS     r3,r3,r7
        0x08002122:    9f15        ..      LDR      r7,[sp,#0x54]
        0x08002124:    9e13        ..      LDR      r6,[sp,#0x4c]
        0x08002126:    4373        sC      MULS     r3,r6,r3
        0x08002128:    9e17        ..      LDR      r6,[sp,#0x5c]
        0x0800212a:    6006        .`      STR      r6,[r0,#0]
        0x0800212c:    6044        D`      STR      r4,[r0,#4]
        0x0800212e:    4e84        .N      LDR      r6,[pc,#528] ; [0x8002340] = 0x7fff
        0x08002130:    8066        f.      STRH     r6,[r4,#2]
        0x08002132:    9e12        ..      LDR      r6,[sp,#0x48]
        0x08002134:    8023        #.      STRH     r3,[r4,#0]
        0x08002136:    9019        ..      STR      r0,[sp,#0x64]
        0x08002138:    9017        ..      STR      r0,[sp,#0x5c]
        0x0800213a:    e001        ..      B        0x8002140 ; main + 648
        0x0800213c:    4622        "F      MOV      r2,r4
        0x0800213e:    4601        .F      MOV      r1,r0
        0x08002140:    2006        .       MOVS     r0,#6
        0x08002142:    9014        ..      STR      r0,[sp,#0x50]
        0x08002144:    4608        .F      MOV      r0,r1
        0x08002146:    3008        .0      ADDS     r0,r0,#8
        0x08002148:    42b0        .B      CMP      r0,r6
        0x0800214a:    d21b        ..      BCS      0x8002184 ; main + 716
        0x0800214c:    1d14        ..      ADDS     r4,r2,#4
        0x0800214e:    9b16        ..      LDR      r3,[sp,#0x58]
        0x08002150:    429c        .B      CMP      r4,r3
        0x08002152:    d217        ..      BCS      0x8002184 ; main + 716
        0x08002154:    462b        +F      MOV      r3,r5
        0x08002156:    9715        ..      STR      r7,[sp,#0x54]
        0x08002158:    9f18        ..      LDR      r7,[sp,#0x60]
        0x0800215a:    433b        ;C      ORRS     r3,r3,r7
        0x0800215c:    9f10        ..      LDR      r7,[sp,#0x40]
        0x0800215e:    405f        _@      EORS     r7,r7,r3
        0x08002160:    9e14        ..      LDR      r6,[sp,#0x50]
        0x08002162:    4033        3@      ANDS     r3,r3,r6
        0x08002164:    073f        ?.      LSLS     r7,r7,#28
        0x08002166:    0e7f        ..      LSRS     r7,r7,#25
        0x08002168:    18fb        ..      ADDS     r3,r7,r3
        0x0800216a:    9f15        ..      LDR      r7,[sp,#0x54]
        0x0800216c:    9e13        ..      LDR      r6,[sp,#0x4c]
        0x0800216e:    4373        sC      MULS     r3,r6,r3
        0x08002170:    9e17        ..      LDR      r6,[sp,#0x5c]
        0x08002172:    600e        .`      STR      r6,[r1,#0]
        0x08002174:    604a        J`      STR      r2,[r1,#4]
        0x08002176:    4e72        rN      LDR      r6,[pc,#456] ; [0x8002340] = 0x7fff
        0x08002178:    8056        V.      STRH     r6,[r2,#2]
        0x0800217a:    9e12        ..      LDR      r6,[sp,#0x48]
        0x0800217c:    8013        ..      STRH     r3,[r2,#0]
        0x0800217e:    9119        ..      STR      r1,[sp,#0x64]
        0x08002180:    9117        ..      STR      r1,[sp,#0x5c]
        0x08002182:    e001        ..      B        0x8002188 ; main + 720
        0x08002184:    4614        .F      MOV      r4,r2
        0x08002186:    4608        .F      MOV      r0,r1
        0x08002188:    4601        .F      MOV      r1,r0
        0x0800218a:    3108        .1      ADDS     r1,r1,#8
        0x0800218c:    42b1        .B      CMP      r1,r6
        0x0800218e:    d28f        ..      BCS      0x80020b0 ; main + 504
        0x08002190:    1d22        ".      ADDS     r2,r4,#4
        0x08002192:    9b16        ..      LDR      r3,[sp,#0x58]
        0x08002194:    429a        .B      CMP      r2,r3
        0x08002196:    d28b        ..      BCS      0x80020b0 ; main + 504
        0x08002198:    462b        +F      MOV      r3,r5
        0x0800219a:    9e0a        ..      LDR      r6,[sp,#0x28]
        0x0800219c:    4333        3C      ORRS     r3,r3,r6
        0x0800219e:    9715        ..      STR      r7,[sp,#0x54]
        0x080021a0:    9f10        ..      LDR      r7,[sp,#0x40]
        0x080021a2:    405f        _@      EORS     r7,r7,r3
        0x080021a4:    9e0c        ..      LDR      r6,[sp,#0x30]
        0x080021a6:    4033        3@      ANDS     r3,r3,r6
        0x080021a8:    073f        ?.      LSLS     r7,r7,#28
        0x080021aa:    0e7f        ..      LSRS     r7,r7,#25
        0x080021ac:    18fb        ..      ADDS     r3,r7,r3
        0x080021ae:    9f15        ..      LDR      r7,[sp,#0x54]
        0x080021b0:    9e13        ..      LDR      r6,[sp,#0x4c]
        0x080021b2:    4373        sC      MULS     r3,r6,r3
        0x080021b4:    9e17        ..      LDR      r6,[sp,#0x5c]
        0x080021b6:    6006        .`      STR      r6,[r0,#0]
        0x080021b8:    6044        D`      STR      r4,[r0,#4]
        0x080021ba:    4e61        aN      LDR      r6,[pc,#388] ; [0x8002340] = 0x7fff
        0x080021bc:    8066        f.      STRH     r6,[r4,#2]
        0x080021be:    9e12        ..      LDR      r6,[sp,#0x48]
        0x080021c0:    8023        #.      STRH     r3,[r4,#0]
        0x080021c2:    9019        ..      STR      r0,[sp,#0x64]
        0x080021c4:    9017        ..      STR      r0,[sp,#0x5c]
        0x080021c6:    e775        u.      B        0x80020b4 ; main + 508
        0x080021c8:    9801        ..      LDR      r0,[sp,#4]
        0x080021ca:    9b0a        ..      LDR      r3,[sp,#0x28]
        0x080021cc:    4003        .@      ANDS     r3,r3,r0
        0x080021ce:    930a        ..      STR      r3,[sp,#0x28]
        0x080021d0:    d04b        K.      BEQ      0x800226a ; main + 946
        0x080021d2:    4608        .F      MOV      r0,r1
        0x080021d4:    3008        .0      ADDS     r0,r0,#8
        0x080021d6:    42b0        .B      CMP      r0,r6
        0x080021d8:    d21a        ..      BCS      0x8002210 ; main + 856
        0x080021da:    9015        ..      STR      r0,[sp,#0x54]
        0x080021dc:    1d10        ..      ADDS     r0,r2,#4
        0x080021de:    9b16        ..      LDR      r3,[sp,#0x58]
        0x080021e0:    4298        .B      CMP      r0,r3
        0x080021e2:    d215        ..      BCS      0x8002210 ; main + 856
        0x080021e4:    462c        ,F      MOV      r4,r5
        0x080021e6:    9b09        ..      LDR      r3,[sp,#0x24]
        0x080021e8:    401c        .@      ANDS     r4,r4,r3
        0x080021ea:    463b        ;F      MOV      r3,r7
        0x080021ec:    9f10        ..      LDR      r7,[sp,#0x40]
        0x080021ee:    406f        o@      EORS     r7,r7,r5
        0x080021f0:    073f        ?.      LSLS     r7,r7,#28
        0x080021f2:    0e7f        ..      LSRS     r7,r7,#25
        0x080021f4:    193c        <.      ADDS     r4,r7,r4
        0x080021f6:    461f        .F      MOV      r7,r3
        0x080021f8:    9b13        ..      LDR      r3,[sp,#0x4c]
        0x080021fa:    435c        \C      MULS     r4,r3,r4
        0x080021fc:    9b17        ..      LDR      r3,[sp,#0x5c]
        0x080021fe:    600b        .`      STR      r3,[r1,#0]
        0x08002200:    604a        J`      STR      r2,[r1,#4]
        0x08002202:    4b4f        OK      LDR      r3,[pc,#316] ; [0x8002340] = 0x7fff
        0x08002204:    8053        S.      STRH     r3,[r2,#2]
        0x08002206:    8014        ..      STRH     r4,[r2,#0]
        0x08002208:    9119        ..      STR      r1,[sp,#0x64]
        0x0800220a:    9117        ..      STR      r1,[sp,#0x5c]
        0x0800220c:    9b15        ..      LDR      r3,[sp,#0x54]
        0x0800220e:    e001        ..      B        0x8002214 ; main + 860
        0x08002210:    4610        .F      MOV      r0,r2
        0x08002212:    460b        .F      MOV      r3,r1
        0x08002214:    990a        ..      LDR      r1,[sp,#0x28]
        0x08002216:    2901        .)      CMP      r1,#1
        0x08002218:    d027        '.      BEQ      0x800226a ; main + 946
        0x0800221a:    461c        .F      MOV      r4,r3
        0x0800221c:    3408        .4      ADDS     r4,r4,#8
        0x0800221e:    42b4        .B      CMP      r4,r6
        0x08002220:    d21d        ..      BCS      0x800225e ; main + 934
        0x08002222:    1d01        ..      ADDS     r1,r0,#4
        0x08002224:    9a16        ..      LDR      r2,[sp,#0x58]
        0x08002226:    4291        .B      CMP      r1,r2
        0x08002228:    d219        ..      BCS      0x800225e ; main + 934
        0x0800222a:    462a        *F      MOV      r2,r5
        0x0800222c:    433a        :C      ORRS     r2,r2,r7
        0x0800222e:    9e08        ..      LDR      r6,[sp,#0x20]
        0x08002230:    4016        .@      ANDS     r6,r6,r2
        0x08002232:    9315        ..      STR      r3,[sp,#0x54]
        0x08002234:    9b10        ..      LDR      r3,[sp,#0x40]
        0x08002236:    405a        Z@      EORS     r2,r2,r3
        0x08002238:    0712        ..      LSLS     r2,r2,#28
        0x0800223a:    0e52        R.      LSRS     r2,r2,#25
        0x0800223c:    1992        ..      ADDS     r2,r2,r6
        0x0800223e:    9e12        ..      LDR      r6,[sp,#0x48]
        0x08002240:    9b13        ..      LDR      r3,[sp,#0x4c]
        0x08002242:    435a        ZC      MULS     r2,r3,r2
        0x08002244:    9b17        ..      LDR      r3,[sp,#0x5c]
        0x08002246:    910e        ..      STR      r1,[sp,#0x38]
        0x08002248:    9915        ..      LDR      r1,[sp,#0x54]
        0x0800224a:    600b        .`      STR      r3,[r1,#0]
        0x0800224c:    6048        H`      STR      r0,[r1,#4]
        0x0800224e:    990e        ..      LDR      r1,[sp,#0x38]
        0x08002250:    4b3b        ;K      LDR      r3,[pc,#236] ; [0x8002340] = 0x7fff
        0x08002252:    8043        C.      STRH     r3,[r0,#2]
        0x08002254:    8002        ..      STRH     r2,[r0,#0]
        0x08002256:    9815        ..      LDR      r0,[sp,#0x54]
        0x08002258:    9019        ..      STR      r0,[sp,#0x64]
        0x0800225a:    9017        ..      STR      r0,[sp,#0x5c]
        0x0800225c:    e001        ..      B        0x8002262 ; main + 938
        0x0800225e:    4601        .F      MOV      r1,r0
        0x08002260:    461c        .F      MOV      r4,r3
        0x08002262:    980a        ..      LDR      r0,[sp,#0x28]
        0x08002264:    2802        .(      CMP      r0,#2
        0x08002266:    d000        ..      BEQ      0x800226a ; main + 946
        0x08002268:    e1a2        ..      B        0x80025b0 ; 0x80025b0
        0x0800226a:    9c17        ..      LDR      r4,[sp,#0x5c]
        0x0800226c:    6825        %h      LDR      r5,[r4,#0]
        0x0800226e:    2d00        .-      CMP      r5,#0
        0x08002270:    d018        ..      BEQ      0x80022a4 ; main + 1004
        0x08002272:    2105        .!      MOVS     r1,#5
        0x08002274:    9801        ..      LDR      r0,[sp,#4]
        0x08002276:    f7fef873    ..s.    BL       __aeabi_uidiv ; 0x8000360
        0x0800227a:    4932        2I      LDR      r1,[pc,#200] ; [0x8002344] = 0x3fff
        0x0800227c:    9e0b        ..      LDR      r6,[sp,#0x2c]
        0x0800227e:    e006        ..      B        0x800228e ; main + 982
        0x08002280:    6864        dh      LDR      r4,[r4,#4]
        0x08002282:    8067        g.      STRH     r7,[r4,#2]
        0x08002284:    6815        .h      LDR      r5,[r2,#0]
        0x08002286:    2d00        .-      CMP      r5,#0
        0x08002288:    4614        .F      MOV      r4,r2
        0x0800228a:    461f        .F      MOV      r7,r3
        0x0800228c:    d00a        ..      BEQ      0x80022a4 ; main + 1004
        0x0800228e:    462a        *F      MOV      r2,r5
        0x08002290:    1c7b        {.      ADDS     r3,r7,#1
        0x08002292:    4287        .B      CMP      r7,r0
        0x08002294:    d3f4        ..      BCC      0x8002280 ; main + 968
        0x08002296:    9d10        ..      LDR      r5,[sp,#0x40]
        0x08002298:    406f        o@      EORS     r7,r7,r5
        0x0800229a:    400f        .@      ANDS     r7,r7,r1
        0x0800229c:    021d        ..      LSLS     r5,r3,#8
        0x0800229e:    4035        5@      ANDS     r5,r5,r6
        0x080022a0:    432f        /C      ORRS     r7,r7,r5
        0x080022a2:    e7ed        ..      B        0x8002280 ; main + 968
        0x080022a4:    2501        .%      MOVS     r5,#1
        0x080022a6:    ac19        ..      ADD      r4,sp,#0x64
        0x080022a8:    e056        V.      B        0x8002358 ; 0x8002358
        0x080022aa:    46c0        .F      MOV      r8,r8
    $d
    __arm_cp.0_64
        0x080022ac:    fffff788    ....    DCD    4294965128
    __arm_cp.0_65
        0x080022b0:    0000083c    <...    DCD    2108
    __arm_cp.0_66
        0x080022b4:    00000850    P...    DCD    2128
    __arm_cp.0_67
        0x080022b8:    40022000    . .@    DCD    1073881088
    __arm_cp.0_68
        0x080022bc:    40021000    ...@    DCD    1073876992
        0x080022c0:    00000834    4...    DCD    2100
    __arm_cp.0_70
        0x080022c4:    02dc6c00    .l..    DCD    48000000
    __arm_cp.0_71
        0x080022c8:    40004400    .D.@    DCD    1073759232
    AHBPrescTable
        0x080022cc:    00000000    ....    DCD    0
        0x080022d0:    00000000    ....    DCD    0
        0x080022d4:    00000000    ....    DCD    0
        0x080022d8:    00000000    ....    DCD    0
        0x080022dc:    00000000    ....    DCD    0
        0x080022e0:    00000000    ....    DCD    0
        0x080022e4:    00000000    ....    DCD    0
        0x080022e8:    00000000    ....    DCD    0
        0x080022ec:    00000001    ....    DCD    1
        0x080022f0:    00000002    ....    DCD    2
        0x080022f4:    00000003    ....    DCD    3
        0x080022f8:    00000004    ....    DCD    4
        0x080022fc:    00000006    ....    DCD    6
        0x08002300:    00000007    ....    DCD    7
        0x08002304:    00000008    ....    DCD    8
        0x08002308:    00000009    ....    DCD    9
        0x0800230c:    43202a2a    ** C    DCD    1126181418
        0x08002310:    4d65726f    oreM    DCD    1298494063
        0x08002314:    206b7261    ark     DCD    543912545
        0x08002318:    74736554    Test    DCD    1953719636
        0x0800231c:    61745320     Sta    DCD    1635013408
        0x08002320:    0a0d7472    rt..    DCD    168653938
        0x08002324:    00000000    ....    DCD    0
    __arm_cp.0_74
        0x08002328:    2000006c    l..     DCD    536871020
    __arm_cp.0_75
        0x0800232c:    20000070    p..     DCD    536871024
    __arm_cp.0_76
        0x08002330:    20000000    ...     DCD    536870912
    __arm_cp.0_77
        0x08002334:    20000004    ...     DCD    536870916
    __arm_cp.0_78
        0x08002338:    20000074    t..     DCD    536871028
    __arm_cp.0_79
        0x0800233c:    00003415    .4..    DCD    13333
        0x08002340:    00007fff    ....    DCD    32767
    __arm_cp.0_81
        0x08002344:    00003fff    .?..    DCD    16383
    $t
        0x08002348:    2000        .       MOVS     r0,#0
        0x0800234a:    6038        8`      STR      r0,[r7,#0]
        0x0800234c:    006d        m.      LSLS     r5,r5,#1
        0x0800234e:    9812        ..      LDR      r0,[sp,#0x48]
        0x08002350:    2800        .(      CMP      r0,#0
        0x08002352:    9816        ..      LDR      r0,[sp,#0x58]
        0x08002354:    4604        .F      MOV      r4,r0
        0x08002356:    d04f        O.      BEQ      0x80023f8 ; 0x80023f8
        0x08002358:    1e68        h.      SUBS     r0,r5,#1
        0x0800235a:    9017        ..      STR      r0,[sp,#0x5c]
        0x0800235c:    2000        .       MOVS     r0,#0
        0x0800235e:    9015        ..      STR      r0,[sp,#0x54]
        0x08002360:    4607        .F      MOV      r7,r0
        0x08002362:    9013        ..      STR      r0,[sp,#0x4c]
        0x08002364:    9016        ..      STR      r0,[sp,#0x58]
        0x08002366:    9514        ..      STR      r5,[sp,#0x50]
        0x08002368:    e002        ..      B        0x8002370 ; 0x8002370
        0x0800236a:    2c00        .,      CMP      r4,#0
        0x0800236c:    9d14        ..      LDR      r5,[sp,#0x50]
        0x0800236e:    d0eb        ..      BEQ      0x8002348 ; 0x8002348
        0x08002370:    4623        #F      MOV      r3,r4
        0x08002372:    9815        ..      LDR      r0,[sp,#0x54]
        0x08002374:    9012        ..      STR      r0,[sp,#0x48]
        0x08002376:    1c40        @.      ADDS     r0,r0,#1
        0x08002378:    9015        ..      STR      r0,[sp,#0x54]
        0x0800237a:    9813        ..      LDR      r0,[sp,#0x4c]
        0x0800237c:    6824        $h      LDR      r4,[r4,#0]
        0x0800237e:    2c00        .,      CMP      r4,#0
        0x08002380:    d00a        ..      BEQ      0x8002398 ; 0x8002398
        0x08002382:    9917        ..      LDR      r1,[sp,#0x5c]
        0x08002384:    4281        .B      CMP      r1,r0
        0x08002386:    d005        ..      BEQ      0x8002394 ; 0x8002394
        0x08002388:    6824        $h      LDR      r4,[r4,#0]
        0x0800238a:    1c80        ..      ADDS     r0,r0,#2
        0x0800238c:    2c00        .,      CMP      r4,#0
        0x0800238e:    d004        ..      BEQ      0x800239a ; 0x800239a
        0x08002390:    4285        .B      CMP      r5,r0
        0x08002392:    d1f3        ..      BNE      0x800237c ; 0x800237c
        0x08002394:    4628        (F      MOV      r0,r5
        0x08002396:    e00c        ..      B        0x80023b2 ; 0x80023b2
        0x08002398:    1c40        @.      ADDS     r0,r0,#1
        0x0800239a:    2400        .$      MOVS     r4,#0
        0x0800239c:    e009        ..      B        0x80023b2 ; 0x80023b2
        0x0800239e:    1e40        @.      SUBS     r0,r0,#1
        0x080023a0:    681a        .h      LDR      r2,[r3,#0]
        0x080023a2:    4621        !F      MOV      r1,r4
        0x080023a4:    461e        .F      MOV      r6,r3
        0x080023a6:    2f00        ./      CMP      r7,#0
        0x080023a8:    d024        $.      BEQ      0x80023f4 ; 0x80023f4
        0x080023aa:    603e        >`      STR      r6,[r7,#0]
        0x080023ac:    4613        .F      MOV      r3,r2
        0x080023ae:    460c        .F      MOV      r4,r1
        0x080023b0:    4637        7F      MOV      r7,r6
        0x080023b2:    2800        .(      CMP      r0,#0
        0x080023b4:    dc05        ..      BGT      0x80023c2 ; 0x80023c2
        0x080023b6:    2d01        .-      CMP      r5,#1
        0x080023b8:    dbd7        ..      BLT      0x800236a ; 0x800236a
        0x080023ba:    2c00        .,      CMP      r4,#0
        0x080023bc:    d0d5        ..      BEQ      0x800236a ; 0x800236a
        0x080023be:    2800        .(      CMP      r0,#0
        0x080023c0:    d011        ..      BEQ      0x80023e6 ; 0x80023e6
        0x080023c2:    2d00        .-      CMP      r5,#0
        0x080023c4:    d0eb        ..      BEQ      0x800239e ; 0x800239e
        0x080023c6:    2c00        .,      CMP      r4,#0
        0x080023c8:    d0e9        ..      BEQ      0x800239e ; 0x800239e
        0x080023ca:    6859        Yh      LDR      r1,[r3,#4]
        0x080023cc:    784a        Jx      LDRB     r2,[r1,#1]
        0x080023ce:    700a        .p      STRB     r2,[r1,#0]
        0x080023d0:    6862        bh      LDR      r2,[r4,#4]
        0x080023d2:    7856        Vx      LDRB     r6,[r2,#1]
        0x080023d4:    7016        .p      STRB     r6,[r2,#0]
        0x080023d6:    9e18        ..      LDR      r6,[sp,#0x60]
        0x080023d8:    5f92        ._      LDRSH    r2,[r2,r6]
        0x080023da:    5f89        ._      LDRSH    r1,[r1,r6]
        0x080023dc:    4291        .B      CMP      r1,r2
        0x080023de:    ddde        ..      BLE      0x800239e ; 0x800239e
        0x080023e0:    1e6d        m.      SUBS     r5,r5,#1
        0x080023e2:    6821        !h      LDR      r1,[r4,#0]
        0x080023e4:    e002        ..      B        0x80023ec ; 0x80023ec
        0x080023e6:    1e6d        m.      SUBS     r5,r5,#1
        0x080023e8:    6821        !h      LDR      r1,[r4,#0]
        0x080023ea:    2000        .       MOVS     r0,#0
        0x080023ec:    461a        .F      MOV      r2,r3
        0x080023ee:    4626        &F      MOV      r6,r4
        0x080023f0:    2f00        ./      CMP      r7,#0
        0x080023f2:    d1da        ..      BNE      0x80023aa ; 0x80023aa
        0x080023f4:    9616        ..      STR      r6,[sp,#0x58]
        0x080023f6:    e7d9        ..      B        0x80023ac ; 0x80023ac
        0x080023f8:    9a0d        ..      LDR      r2,[sp,#0x34]
        0x080023fa:    61d0        .a      STR      r0,[r2,#0x1c]
        0x080023fc:    9f05        ..      LDR      r7,[sp,#0x14]
        0x080023fe:    9803        ..      LDR      r0,[sp,#0xc]
        0x08002400:    2800        .(      CMP      r0,#0
        0x08002402:    9d11        ..      LDR      r5,[sp,#0x44]
        0x08002404:    d100        ..      BNE      0x8002408 ; 0x8002408
        0x08002406:    e10f        ..      B        0x8002628 ; 0x8002628
        0x08002408:    9810        ..      LDR      r0,[sp,#0x40]
        0x0800240a:    b200        ..      SXTH     r0,r0
        0x0800240c:    9902        ..      LDR      r1,[sp,#8]
        0x0800240e:    040c        ..      LSLS     r4,r1,#16
        0x08002410:    4304        .C      ORRS     r4,r4,r0
        0x08002412:    2c01        .,      CMP      r4,#1
        0x08002414:    d800        ..      BHI      0x8002418 ; 0x8002418
        0x08002416:    2401        .$      MOVS     r4,#1
        0x08002418:    2100        .!      MOVS     r1,#0
        0x0800241a:    2320         #      MOVS     r3,#0x20
        0x0800241c:    980d        ..      LDR      r0,[sp,#0x34]
        0x0800241e:    6880        .h      LDR      r0,[r0,#8]
        0x08002420:    9017        ..      STR      r0,[sp,#0x5c]
        0x08002422:    1c4a        J.      ADDS     r2,r1,#1
        0x08002424:    4618        .F      MOV      r0,r3
        0x08002426:    3818        .8      SUBS     r0,r0,#0x18
        0x08002428:    4350        PC      MULS     r0,r2,r0
        0x0800242a:    42a8        .B      CMP      r0,r5
        0x0800242c:    d216        ..      BCS      0x800245c ; 0x800245c
        0x0800242e:    1c88        ..      ADDS     r0,r1,#2
        0x08002430:    461d        .F      MOV      r5,r3
        0x08002432:    3d10        .=      SUBS     r5,r5,#0x10
        0x08002434:    4345        EC      MULS     r5,r0,r5
        0x08002436:    9e11        ..      LDR      r6,[sp,#0x44]
        0x08002438:    42b5        .B      CMP      r5,r6
        0x0800243a:    9d11        ..      LDR      r5,[sp,#0x44]
        0x0800243c:    d21f        ..      BCS      0x800247e ; 0x800247e
        0x0800243e:    1ccd        ..      ADDS     r5,r1,#3
        0x08002440:    461e        .F      MOV      r6,r3
        0x08002442:    3e08        .>      SUBS     r6,r6,#8
        0x08002444:    436e        nC      MULS     r6,r5,r6
        0x08002446:    9d11        ..      LDR      r5,[sp,#0x44]
        0x08002448:    42ae        .B      CMP      r6,r5
        0x0800244a:    d21a        ..      BCS      0x8002482 ; 0x8002482
        0x0800244c:    1d09        ..      ADDS     r1,r1,#4
        0x0800244e:    4608        .F      MOV      r0,r1
        0x08002450:    4358        XC      MULS     r0,r3,r0
        0x08002452:    3320         3      ADDS     r3,r3,#0x20
        0x08002454:    42a8        .B      CMP      r0,r5
        0x08002456:    d3e4        ..      BCC      0x8002422 ; 0x8002422
        0x08002458:    1e4e        N.      SUBS     r6,r1,#1
        0x0800245a:    e013        ..      B        0x8002484 ; 0x8002484
        0x0800245c:    9817        ..      LDR      r0,[sp,#0x5c]
        0x0800245e:    1e40        @.      SUBS     r0,r0,#1
        0x08002460:    2203        ."      MOVS     r2,#3
        0x08002462:    4390        .C      BICS     r0,r0,r2
        0x08002464:    1d02        ..      ADDS     r2,r0,#4
        0x08002466:    4608        .F      MOV      r0,r1
        0x08002468:    4348        HC      MULS     r0,r1,r0
        0x0800246a:    9014        ..      STR      r0,[sp,#0x50]
        0x0800246c:    0040        @.      LSLS     r0,r0,#1
        0x0800246e:    9216        ..      STR      r2,[sp,#0x58]
        0x08002470:    1813        ..      ADDS     r3,r2,r0
        0x08002472:    2900        .)      CMP      r1,#0
        0x08002474:    d100        ..      BNE      0x8002478 ; 0x8002478
        0x08002476:    e2e7        ..      B        0x8002a48 ; 0x8002a48
        0x08002478:    460e        .F      MOV      r6,r1
        0x0800247a:    9a14        ..      LDR      r2,[sp,#0x50]
        0x0800247c:    e00c        ..      B        0x8002498 ; 0x8002498
        0x0800247e:    4616        .F      MOV      r6,r2
        0x08002480:    e000        ..      B        0x8002484 ; 0x8002484
        0x08002482:    4606        .F      MOV      r6,r0
        0x08002484:    9817        ..      LDR      r0,[sp,#0x5c]
        0x08002486:    1e40        @.      SUBS     r0,r0,#1
        0x08002488:    2103        .!      MOVS     r1,#3
        0x0800248a:    4388        .C      BICS     r0,r0,r1
        0x0800248c:    1d01        ..      ADDS     r1,r0,#4
        0x0800248e:    4632        2F      MOV      r2,r6
        0x08002490:    4372        rC      MULS     r2,r6,r2
        0x08002492:    0050        P.      LSLS     r0,r2,#1
        0x08002494:    9116        ..      STR      r1,[sp,#0x58]
        0x08002496:    180b        ..      ADDS     r3,r1,r0
        0x08002498:    9612        ..      STR      r6,[sp,#0x48]
        0x0800249a:    2101        .!      MOVS     r1,#1
        0x0800249c:    2a01        .*      CMP      r2,#1
        0x0800249e:    9217        ..      STR      r2,[sp,#0x5c]
        0x080024a0:    d800        ..      BHI      0x80024a4 ; 0x80024a4
        0x080024a2:    9117        ..      STR      r1,[sp,#0x5c]
        0x080024a4:    2003        .       MOVS     r0,#3
        0x080024a6:    9e17        ..      LDR      r6,[sp,#0x5c]
        0x080024a8:    4006        .@      ANDS     r6,r6,r0
        0x080024aa:    9613        ..      STR      r6,[sp,#0x4c]
        0x080024ac:    9214        ..      STR      r2,[sp,#0x50]
        0x080024ae:    2a04        .*      CMP      r2,#4
        0x080024b0:    9315        ..      STR      r3,[sp,#0x54]
        0x080024b2:    d201        ..      BCS      0x80024b8 ; 0x80024b8
        0x080024b4:    2200        ."      MOVS     r2,#0
        0x080024b6:    e047        G.      B        0x8002548 ; 0x8002548
        0x080024b8:    9917        ..      LDR      r1,[sp,#0x5c]
        0x080024ba:    4381        .C      BICS     r1,r1,r0
        0x080024bc:    9117        ..      STR      r1,[sp,#0x5c]
        0x080024be:    2500        .%      MOVS     r5,#0
        0x080024c0:    4629        )F      MOV      r1,r5
        0x080024c2:    4bfe        .K      LDR      r3,[pc,#1016] ; [0x80028bc] = 0xffff0000
        0x080024c4:    1c48        H.      ADDS     r0,r1,#1
        0x080024c6:    4344        DC      MULS     r4,r0,r4
        0x080024c8:    17e2        ..      ASRS     r2,r4,#31
        0x080024ca:    0c12        ..      LSRS     r2,r2,#16
        0x080024cc:    18a2        ..      ADDS     r2,r4,r2
        0x080024ce:    401a        .@      ANDS     r2,r2,r3
        0x080024d0:    1aa2        ..      SUBS     r2,r4,r2
        0x080024d2:    1880        ..      ADDS     r0,r0,r2
        0x080024d4:    9e15        ..      LDR      r6,[sp,#0x54]
        0x080024d6:    5370        pS      STRH     r0,[r6,r5]
        0x080024d8:    18a8        ..      ADDS     r0,r5,r2
        0x080024da:    1c80        ..      ADDS     r0,r0,#2
        0x080024dc:    b2c0        ..      UXTB     r0,r0
        0x080024de:    9f16        ..      LDR      r7,[sp,#0x58]
        0x080024e0:    5378        xS      STRH     r0,[r7,r5]
        0x080024e2:    1c88        ..      ADDS     r0,r1,#2
        0x080024e4:    4350        PC      MULS     r0,r2,r0
        0x080024e6:    17c2        ..      ASRS     r2,r0,#31
        0x080024e8:    0c12        ..      LSRS     r2,r2,#16
        0x080024ea:    1882        ..      ADDS     r2,r0,r2
        0x080024ec:    401a        .@      ANDS     r2,r2,r3
        0x080024ee:    1a82        ..      SUBS     r2,r0,r2
        0x080024f0:    1888        ..      ADDS     r0,r1,r2
        0x080024f2:    1c84        ..      ADDS     r4,r0,#2
        0x080024f4:    1970        p.      ADDS     r0,r6,r5
        0x080024f6:    8044        D.      STRH     r4,[r0,#2]
        0x080024f8:    18ac        ..      ADDS     r4,r5,r2
        0x080024fa:    1d24        $.      ADDS     r4,r4,#4
        0x080024fc:    b2e4        ..      UXTB     r4,r4
        0x080024fe:    197e        ~.      ADDS     r6,r7,r5
        0x08002500:    8074        t.      STRH     r4,[r6,#2]
        0x08002502:    1ccc        ..      ADDS     r4,r1,#3
        0x08002504:    4362        bC      MULS     r2,r4,r2
        0x08002506:    17d7        ..      ASRS     r7,r2,#31
        0x08002508:    0c3f        ?.      LSRS     r7,r7,#16
        0x0800250a:    19d7        ..      ADDS     r7,r2,r7
        0x0800250c:    401f        .@      ANDS     r7,r7,r3
        0x0800250e:    1bd7        ..      SUBS     r7,r2,r7
        0x08002510:    19e2        ..      ADDS     r2,r4,r7
        0x08002512:    8082        ..      STRH     r2,[r0,#4]
        0x08002514:    19ea        ..      ADDS     r2,r5,r7
        0x08002516:    1d92        ..      ADDS     r2,r2,#6
        0x08002518:    b2d2        ..      UXTB     r2,r2
        0x0800251a:    80b2        ..      STRH     r2,[r6,#4]
        0x0800251c:    1d0a        ..      ADDS     r2,r1,#4
        0x0800251e:    4357        WC      MULS     r7,r2,r7
        0x08002520:    17fc        ..      ASRS     r4,r7,#31
        0x08002522:    0c24        $.      LSRS     r4,r4,#16
        0x08002524:    193c        <.      ADDS     r4,r7,r4
        0x08002526:    401c        .@      ANDS     r4,r4,r3
        0x08002528:    1b3c        <.      SUBS     r4,r7,r4
        0x0800252a:    1909        ..      ADDS     r1,r1,r4
        0x0800252c:    1d09        ..      ADDS     r1,r1,#4
        0x0800252e:    80c1        ..      STRH     r1,[r0,#6]
        0x08002530:    3508        .5      ADDS     r5,r5,#8
        0x08002532:    1928        (.      ADDS     r0,r5,r4
        0x08002534:    b2c0        ..      UXTB     r0,r0
        0x08002536:    80f0        ..      STRH     r0,[r6,#6]
        0x08002538:    9817        ..      LDR      r0,[sp,#0x5c]
        0x0800253a:    4290        .B      CMP      r0,r2
        0x0800253c:    4611        .F      MOV      r1,r2
        0x0800253e:    d1c1        ..      BNE      0x80024c4 ; 0x80024c4
        0x08002540:    1c51        Q.      ADDS     r1,r2,#1
        0x08002542:    9f05        ..      LDR      r7,[sp,#0x14]
        0x08002544:    9d11        ..      LDR      r5,[sp,#0x44]
        0x08002546:    9b15        ..      LDR      r3,[sp,#0x54]
        0x08002548:    9e13        ..      LDR      r6,[sp,#0x4c]
        0x0800254a:    2e00        ..      CMP      r6,#0
        0x0800254c:    d015        ..      BEQ      0x800257a ; 0x800257a
        0x0800254e:    434c        LC      MULS     r4,r1,r4
        0x08002550:    17e0        ..      ASRS     r0,r4,#31
        0x08002552:    0c00        ..      LSRS     r0,r0,#16
        0x08002554:    1820         .      ADDS     r0,r4,r0
        0x08002556:    4bd9        .K      LDR      r3,[pc,#868] ; [0x80028bc] = 0xffff0000
        0x08002558:    4018        .@      ANDS     r0,r0,r3
        0x0800255a:    1a20         .      SUBS     r0,r4,r0
        0x0800255c:    1844        D.      ADDS     r4,r0,r1
        0x0800255e:    0052        R.      LSLS     r2,r2,#1
        0x08002560:    9b15        ..      LDR      r3,[sp,#0x54]
        0x08002562:    529c        .R      STRH     r4,[r3,r2]
        0x08002564:    9117        ..      STR      r1,[sp,#0x5c]
        0x08002566:    1864        d.      ADDS     r4,r4,r1
        0x08002568:    b2e4        ..      UXTB     r4,r4
        0x0800256a:    9b16        ..      LDR      r3,[sp,#0x58]
        0x0800256c:    529c        .R      STRH     r4,[r3,r2]
        0x0800256e:    2e01        ..      CMP      r6,#1
        0x08002570:    d107        ..      BNE      0x8002582 ; 0x8002582
        0x08002572:    461c        .F      MOV      r4,r3
        0x08002574:    9a15        ..      LDR      r2,[sp,#0x54]
        0x08002576:    9b0d        ..      LDR      r3,[sp,#0x34]
        0x08002578:    e049        I.      B        0x800260e ; 0x800260e
        0x0800257a:    461a        .F      MOV      r2,r3
        0x0800257c:    9b0d        ..      LDR      r3,[sp,#0x34]
        0x0800257e:    9c16        ..      LDR      r4,[sp,#0x58]
        0x08002580:    e045        E.      B        0x800260e ; 0x800260e
        0x08002582:    9917        ..      LDR      r1,[sp,#0x5c]
        0x08002584:    1c4c        L.      ADDS     r4,r1,#1
        0x08002586:    4360        `C      MULS     r0,r4,r0
        0x08002588:    17c5        ..      ASRS     r5,r0,#31
        0x0800258a:    0c2d        -.      LSRS     r5,r5,#16
        0x0800258c:    1945        E.      ADDS     r5,r0,r5
        0x0800258e:    4ecb        .N      LDR      r6,[pc,#812] ; [0x80028bc] = 0xffff0000
        0x08002590:    4035        5@      ANDS     r5,r5,r6
        0x08002592:    1b40        @.      SUBS     r0,r0,r5
        0x08002594:    1905        ..      ADDS     r5,r0,r4
        0x08002596:    1c96        ..      ADDS     r6,r2,#2
        0x08002598:    9b15        ..      LDR      r3,[sp,#0x54]
        0x0800259a:    539d        .S      STRH     r5,[r3,r6]
        0x0800259c:    192c        ,.      ADDS     r4,r5,r4
        0x0800259e:    b2e4        ..      UXTB     r4,r4
        0x080025a0:    9d16        ..      LDR      r5,[sp,#0x58]
        0x080025a2:    53ac        .S      STRH     r4,[r5,r6]
        0x080025a4:    9c16        ..      LDR      r4,[sp,#0x58]
        0x080025a6:    9d13        ..      LDR      r5,[sp,#0x4c]
        0x080025a8:    2d02        .-      CMP      r5,#2
        0x080025aa:    d11e        ..      BNE      0x80025ea ; 0x80025ea
        0x080025ac:    461a        .F      MOV      r2,r3
        0x080025ae:    e02c        ,.      B        0x800260a ; 0x800260a
        0x080025b0:    4620         F      MOV      r0,r4
        0x080025b2:    3008        .0      ADDS     r0,r0,#8
        0x080025b4:    42b0        .B      CMP      r0,r6
        0x080025b6:    d300        ..      BCC      0x80025ba ; 0x80025ba
        0x080025b8:    e657        W.      B        0x800226a ; main + 946
        0x080025ba:    1d08        ..      ADDS     r0,r1,#4
        0x080025bc:    9a16        ..      LDR      r2,[sp,#0x58]
        0x080025be:    4290        .B      CMP      r0,r2
        0x080025c0:    d300        ..      BCC      0x80025c4 ; 0x80025c4
        0x080025c2:    e652        R.      B        0x800226a ; main + 946
        0x080025c4:    9817        ..      LDR      r0,[sp,#0x5c]
        0x080025c6:    c403        ..      STM      r4!,{r0,r1}
        0x080025c8:    48bd        .H      LDR      r0,[pc,#756] ; [0x80028c0] = 0x7fff
        0x080025ca:    8048        H.      STRH     r0,[r1,#2]
        0x080025cc:    9818        ..      LDR      r0,[sp,#0x60]
        0x080025ce:    4305        .C      ORRS     r5,r5,r0
        0x080025d0:    9a14        ..      LDR      r2,[sp,#0x50]
        0x080025d2:    402a        *@      ANDS     r2,r2,r5
        0x080025d4:    9810        ..      LDR      r0,[sp,#0x40]
        0x080025d6:    4045        E@      EORS     r5,r5,r0
        0x080025d8:    0728        (.      LSLS     r0,r5,#28
        0x080025da:    0e40        @.      LSRS     r0,r0,#25
        0x080025dc:    1880        ..      ADDS     r0,r0,r2
        0x080025de:    9a13        ..      LDR      r2,[sp,#0x4c]
        0x080025e0:    4342        BC      MULS     r2,r0,r2
        0x080025e2:    800a        ..      STRH     r2,[r1,#0]
        0x080025e4:    3c08        .<      SUBS     r4,r4,#8
        0x080025e6:    9419        ..      STR      r4,[sp,#0x64]
        0x080025e8:    e640        @.      B        0x800226c ; main + 948
        0x080025ea:    1c89        ..      ADDS     r1,r1,#2
        0x080025ec:    4348        HC      MULS     r0,r1,r0
        0x080025ee:    17c4        ..      ASRS     r4,r0,#31
        0x080025f0:    0c24        $.      LSRS     r4,r4,#16
        0x080025f2:    1904        ..      ADDS     r4,r0,r4
        0x080025f4:    4db1        .M      LDR      r5,[pc,#708] ; [0x80028bc] = 0xffff0000
        0x080025f6:    402c        ,@      ANDS     r4,r4,r5
        0x080025f8:    1b00        ..      SUBS     r0,r0,r4
        0x080025fa:    9c16        ..      LDR      r4,[sp,#0x58]
        0x080025fc:    1840        @.      ADDS     r0,r0,r1
        0x080025fe:    1d15        ..      ADDS     r5,r2,#4
        0x08002600:    461a        .F      MOV      r2,r3
        0x08002602:    5358        XS      STRH     r0,[r3,r5]
        0x08002604:    1840        @.      ADDS     r0,r0,r1
        0x08002606:    b2c0        ..      UXTB     r0,r0
        0x08002608:    5360        `S      STRH     r0,[r4,r5]
        0x0800260a:    9b0d        ..      LDR      r3,[sp,#0x34]
        0x0800260c:    9d11        ..      LDR      r5,[sp,#0x44]
        0x0800260e:    9e12        ..      LDR      r6,[sp,#0x48]
        0x08002610:    9814        ..      LDR      r0,[sp,#0x50]
        0x08002612:    0040        @.      LSLS     r0,r0,#1
        0x08002614:    1810        ..      ADDS     r0,r2,r0
        0x08002616:    1e40        @.      SUBS     r0,r0,#1
        0x08002618:    2103        .!      MOVS     r1,#3
        0x0800261a:    4388        .C      BICS     r0,r0,r1
        0x0800261c:    1d00        ..      ADDS     r0,r0,#4
        0x0800261e:    621e        .b      STR      r6,[r3,#0x20]
        0x08002620:    625c        \b      STR      r4,[r3,#0x24]
        0x08002622:    629a        .b      STR      r2,[r3,#0x28]
        0x08002624:    62d8        .b      STR      r0,[r3,#0x2c]
        0x08002626:    461a        .F      MOV      r2,r3
        0x08002628:    9807        ..      LDR      r0,[sp,#0x1c]
        0x0800262a:    2800        .(      CMP      r0,#0
        0x0800262c:    d057        W.      BEQ      0x80026de ; 0x80026de
        0x0800262e:    48a5        .H      LDR      r0,[pc,#660] ; [0x80028c4] = 0x834
        0x08002630:    4468        hD      ADD      r0,sp,r0
        0x08002632:    8807        ..      LDRH     r7,[r0,#0]
        0x08002634:    1e68        h.      SUBS     r0,r5,#1
        0x08002636:    9014        ..      STR      r0,[sp,#0x50]
        0x08002638:    2600        .&      MOVS     r6,#0
        0x0800263a:    68d0        .h      LDR      r0,[r2,#0xc]
        0x0800263c:    9013        ..      STR      r0,[sp,#0x4c]
        0x0800263e:    4634        4F      MOV      r4,r6
        0x08002640:    4633        3F      MOV      r3,r6
        0x08002642:    e016        ..      B        0x8002672 ; 0x8002672
        0x08002644:    202c        ,       MOVS     r0,#0x2c
        0x08002646:    5528        (U      STRB     r0,[r5,r4]
        0x08002648:    9816        ..      LDR      r0,[sp,#0x58]
        0x0800264a:    1900        ..      ADDS     r0,r0,r4
        0x0800264c:    1c43        C.      ADDS     r3,r0,#1
        0x0800264e:    9d11        ..      LDR      r5,[sp,#0x44]
        0x08002650:    9f17        ..      LDR      r7,[sp,#0x5c]
        0x08002652:    1c7f        ..      ADDS     r7,r7,#1
        0x08002654:    0878        x.      LSRS     r0,r7,#1
        0x08002656:    990f        ..      LDR      r1,[sp,#0x3c]
        0x08002658:    4008        .@      ANDS     r0,r0,r1
        0x0800265a:    0779        y.      LSLS     r1,r7,#29
        0x0800265c:    0ec9        ..      LSRS     r1,r1,#27
        0x0800265e:    4afd        .J      LDR      r2,[pc,#1012] ; [0x8002a54] = 0x8005800
        0x08002660:    5852        RX      LDR      r2,[r2,r1]
        0x08002662:    5816        .X      LDR      r6,[r2,r0]
        0x08002664:    a0fc        ..      ADR      r0,{pc}+0x3f4 ; 0x8002a58
        0x08002666:    5844        DX      LDR      r4,[r0,r1]
        0x08002668:    1918        ..      ADDS     r0,r3,r4
        0x0800266a:    1c40        @.      ADDS     r0,r0,#1
        0x0800266c:    9914        ..      LDR      r1,[sp,#0x50]
        0x0800266e:    4288        .B      CMP      r0,r1
        0x08002670:    d22b        +.      BCS      0x80026ca ; 0x80026ca
        0x08002672:    9717        ..      STR      r7,[sp,#0x5c]
        0x08002674:    2c00        .,      CMP      r4,#0
        0x08002676:    d0eb        ..      BEQ      0x8002650 ; 0x8002650
        0x08002678:    2203        ."      MOVS     r2,#3
        0x0800267a:    9813        ..      LDR      r0,[sp,#0x4c]
        0x0800267c:    9316        ..      STR      r3,[sp,#0x58]
        0x0800267e:    18c5        ..      ADDS     r5,r0,r3
        0x08002680:    2c04        .,      CMP      r4,#4
        0x08002682:    9215        ..      STR      r2,[sp,#0x54]
        0x08002684:    d201        ..      BCS      0x800268a ; 0x800268a
        0x08002686:    2200        ."      MOVS     r2,#0
        0x08002688:    e00f        ..      B        0x80026aa ; 0x80026aa
        0x0800268a:    4627        'F      MOV      r7,r4
        0x0800268c:    4397        .C      BICS     r7,r7,r2
        0x0800268e:    2200        ."      MOVS     r2,#0
        0x08002690:    5cb3        .\      LDRB     r3,[r6,r2]
        0x08002692:    54ab        .T      STRB     r3,[r5,r2]
        0x08002694:    18ab        ..      ADDS     r3,r5,r2
        0x08002696:    18b0        ..      ADDS     r0,r6,r2
        0x08002698:    7841        Ax      LDRB     r1,[r0,#1]
        0x0800269a:    7059        Yp      STRB     r1,[r3,#1]
        0x0800269c:    7881        .x      LDRB     r1,[r0,#2]
        0x0800269e:    7099        .p      STRB     r1,[r3,#2]
        0x080026a0:    78c0        .x      LDRB     r0,[r0,#3]
        0x080026a2:    70d8        .p      STRB     r0,[r3,#3]
        0x080026a4:    1d12        ..      ADDS     r2,r2,#4
        0x080026a6:    4297        .B      CMP      r7,r2
        0x080026a8:    d1f2        ..      BNE      0x8002690 ; 0x8002690
        0x080026aa:    9b15        ..      LDR      r3,[sp,#0x54]
        0x080026ac:    4023        #@      ANDS     r3,r3,r4
        0x080026ae:    d0c9        ..      BEQ      0x8002644 ; 0x8002644
        0x080026b0:    5cb0        .\      LDRB     r0,[r6,r2]
        0x080026b2:    54a8        .T      STRB     r0,[r5,r2]
        0x080026b4:    2b01        .+      CMP      r3,#1
        0x080026b6:    d0c5        ..      BEQ      0x8002644 ; 0x8002644
        0x080026b8:    1c50        P.      ADDS     r0,r2,#1
        0x080026ba:    5c31        1\      LDRB     r1,[r6,r0]
        0x080026bc:    5429        )T      STRB     r1,[r5,r0]
        0x080026be:    2b02        .+      CMP      r3,#2
        0x080026c0:    d0c0        ..      BEQ      0x8002644 ; 0x8002644
        0x080026c2:    1c90        ..      ADDS     r0,r2,#2
        0x080026c4:    5c31        1\      LDRB     r1,[r6,r0]
        0x080026c6:    5429        )T      STRB     r1,[r5,r0]
        0x080026c8:    e7bc        ..      B        0x8002644 ; 0x8002644
        0x080026ca:    429d        .B      CMP      r5,r3
        0x080026cc:    9f05        ..      LDR      r7,[sp,#0x14]
        0x080026ce:    9a0d        ..      LDR      r2,[sp,#0x34]
        0x080026d0:    d905        ..      BLS      0x80026de ; 0x80026de
        0x080026d2:    9813        ..      LDR      r0,[sp,#0x4c]
        0x080026d4:    18c0        ..      ADDS     r0,r0,r3
        0x080026d6:    1ae9        ..      SUBS     r1,r5,r3
        0x080026d8:    f7fdfe3d    ..=.    BL       __aeabi_memclr ; 0x8000356
        0x080026dc:    9a0d        ..      LDR      r2,[sp,#0x34]
        0x080026de:    4de6        .M      LDR      r5,[pc,#920] ; [0x8002a78] = 0xffffff
        0x080026e0:    6950        Pi      LDR      r0,[r2,#0x14]
        0x080026e2:    2800        .(      CMP      r0,#0
        0x080026e4:    d007        ..      BEQ      0x80026f6 ; 0x80026f6
        0x080026e6:    207d        }       MOVS     r0,#0x7d
        0x080026e8:    00c1        ..      LSLS     r1,r0,#3
        0x080026ea:    9804        ..      LDR      r0,[sp,#0x10]
        0x080026ec:    f7fdfe38    ..8.    BL       __aeabi_uidiv ; 0x8000360
        0x080026f0:    9b0d        ..      LDR      r3,[sp,#0x34]
        0x080026f2:    1e40        @.      SUBS     r0,r0,#1
        0x080026f4:    e06a        j.      B        0x80027cc ; 0x80027cc
        0x080026f6:    2001        .       MOVS     r0,#1
        0x080026f8:    9015        ..      STR      r0,[sp,#0x54]
        0x080026fa:    6150        Pa      STR      r0,[r2,#0x14]
        0x080026fc:    207d        }       MOVS     r0,#0x7d
        0x080026fe:    00c1        ..      LSLS     r1,r0,#3
        0x08002700:    9804        ..      LDR      r0,[sp,#0x10]
        0x08002702:    9116        ..      STR      r1,[sp,#0x58]
        0x08002704:    f7fdfe2c    ..,.    BL       __aeabi_uidiv ; 0x8000360
        0x08002708:    1e40        @.      SUBS     r0,r0,#1
        0x0800270a:    9017        ..      STR      r0,[sp,#0x5c]
        0x0800270c:    2003        .       MOVS     r0,#3
        0x0800270e:    0780        ..      LSLS     r0,r0,#30
        0x08002710:    9014        ..      STR      r0,[sp,#0x50]
        0x08002712:    4bda        .K      LDR      r3,[pc,#872] ; [0x8002a7c] = 0xe000e010
        0x08002714:    4adb        .J      LDR      r2,[pc,#876] ; [0x8002a84] = 0x20000068
        0x08002716:    e00b        ..      B        0x8002730 ; 0x8002730
        0x08002718:    4bd8        .K      LDR      r3,[pc,#864] ; [0x8002a7c] = 0xe000e010
        0x0800271a:    6818        .h      LDR      r0,[r3,#0]
        0x0800271c:    9915        ..      LDR      r1,[sp,#0x54]
        0x0800271e:    4388        .C      BICS     r0,r0,r1
        0x08002720:    6018        .`      STR      r0,[r3,#0]
        0x08002722:    609c        .`      STR      r4,[r3,#8]
        0x08002724:    4ad7        .J      LDR      r2,[pc,#860] ; [0x8002a84] = 0x20000068
        0x08002726:    6810        .h      LDR      r0,[r2,#0]
        0x08002728:    9916        ..      LDR      r1,[sp,#0x58]
        0x0800272a:    4288        .B      CMP      r0,r1
        0x0800272c:    4dd2        .M      LDR      r5,[pc,#840] ; [0x8002a78] = 0xffffff
        0x0800272e:    d240        @.      BCS      0x80027b2 ; 0x80027b2
        0x08002730:    2400        .$      MOVS     r4,#0
        0x08002732:    6014        .`      STR      r4,[r2,#0]
        0x08002734:    200a        .       MOVS     r0,#0xa
        0x08002736:    9a0d        ..      LDR      r2,[sp,#0x34]
        0x08002738:    6951        Qi      LDR      r1,[r2,#0x14]
        0x0800273a:    4341        AC      MULS     r1,r0,r1
        0x0800273c:    6151        Qa      STR      r1,[r2,#0x14]
        0x0800273e:    9817        ..      LDR      r0,[sp,#0x5c]
        0x08002740:    42a8        .B      CMP      r0,r5
        0x08002742:    d835        5.      BHI      0x80027b0 ; 0x80027b0
        0x08002744:    6058        X`      STR      r0,[r3,#4]
        0x08002746:    4ece        .N      LDR      r6,[pc,#824] ; [0x8002a80] = 0xe000ed20
        0x08002748:    6830        0h      LDR      r0,[r6,#0]
        0x0800274a:    4028        (@      ANDS     r0,r0,r5
        0x0800274c:    9914        ..      LDR      r1,[sp,#0x50]
        0x0800274e:    4308        .C      ORRS     r0,r0,r1
        0x08002750:    6030        0`      STR      r0,[r6,#0]
        0x08002752:    609c        .`      STR      r4,[r3,#8]
        0x08002754:    980c        ..      LDR      r0,[sp,#0x30]
        0x08002756:    6018        .`      STR      r0,[r3,#0]
        0x08002758:    6314        .c      STR      r4,[r2,#0x30]
        0x0800275a:    6354        Tc      STR      r4,[r2,#0x34]
        0x0800275c:    6956        Vi      LDR      r6,[r2,#0x14]
        0x0800275e:    2e00        ..      CMP      r6,#0
        0x08002760:    d0da        ..      BEQ      0x8002718 ; 0x8002718
        0x08002762:    4df1        .M      LDR      r5,[pc,#964] ; [0x8002b28] = 0x834
        0x08002764:    446d        mD      ADD      r5,sp,r5
        0x08002766:    2101        .!      MOVS     r1,#1
        0x08002768:    4628        (F      MOV      r0,r5
        0x0800276a:    f7fdfec3    ....    BL       core_bench_list ; 0x80004f4
        0x0800276e:    8f29        ).      LDRH     r1,[r5,#0x38]
        0x08002770:    f7fefc3e    ..>.    BL       crcu16 ; 0x8000ff0
        0x08002774:    8728        (.      STRH     r0,[r5,#0x38]
        0x08002776:    4628        (F      MOV      r0,r5
        0x08002778:    4639        9F      MOV      r1,r7
        0x0800277a:    f7fdfebb    ....    BL       core_bench_list ; 0x80004f4
        0x0800277e:    8f29        ).      LDRH     r1,[r5,#0x38]
        0x08002780:    f7fefc36    ..6.    BL       crcu16 ; 0x8000ff0
        0x08002784:    8768        h.      STRH     r0,[r5,#0x3a]
        0x08002786:    8728        (.      STRH     r0,[r5,#0x38]
        0x08002788:    1e76        v.      SUBS     r6,r6,#1
        0x0800278a:    d0c5        ..      BEQ      0x8002718 ; 0x8002718
        0x0800278c:    4de6        .M      LDR      r5,[pc,#920] ; [0x8002b28] = 0x834
        0x0800278e:    446d        mD      ADD      r5,sp,r5
        0x08002790:    2101        .!      MOVS     r1,#1
        0x08002792:    4628        (F      MOV      r0,r5
        0x08002794:    f7fdfeae    ....    BL       core_bench_list ; 0x80004f4
        0x08002798:    8f29        ).      LDRH     r1,[r5,#0x38]
        0x0800279a:    f7fefc29    ..).    BL       crcu16 ; 0x8000ff0
        0x0800279e:    8728        (.      STRH     r0,[r5,#0x38]
        0x080027a0:    4628        (F      MOV      r0,r5
        0x080027a2:    4639        9F      MOV      r1,r7
        0x080027a4:    f7fdfea6    ....    BL       core_bench_list ; 0x80004f4
        0x080027a8:    8f29        ).      LDRH     r1,[r5,#0x38]
        0x080027aa:    f7fefc21    ..!.    BL       crcu16 ; 0x8000ff0
        0x080027ae:    e7ea        ..      B        0x8002786 ; 0x8002786
        0x080027b0:    e7fe        ..      B        0x80027b0 ; 0x80027b0
        0x080027b2:    9916        ..      LDR      r1,[sp,#0x58]
        0x080027b4:    f7fdfdd4    ....    BL       __aeabi_uidiv ; 0x8000360
        0x080027b8:    4601        .F      MOV      r1,r0
        0x080027ba:    200a        .       MOVS     r0,#0xa
        0x080027bc:    f7fdfdd0    ....    BL       __aeabi_uidiv ; 0x8000360
        0x080027c0:    1c40        @.      ADDS     r0,r0,#1
        0x080027c2:    9b0d        ..      LDR      r3,[sp,#0x34]
        0x080027c4:    6959        Yi      LDR      r1,[r3,#0x14]
        0x080027c6:    4341        AC      MULS     r1,r0,r1
        0x080027c8:    6159        Ya      STR      r1,[r3,#0x14]
        0x080027ca:    9817        ..      LDR      r0,[sp,#0x5c]
        0x080027cc:    49ad        .I      LDR      r1,[pc,#692] ; [0x8002a84] = 0x20000068
        0x080027ce:    2600        .&      MOVS     r6,#0
        0x080027d0:    600e        .`      STR      r6,[r1,#0]
        0x080027d2:    42a8        .B      CMP      r0,r5
        0x080027d4:    d900        ..      BLS      0x80027d8 ; 0x80027d8
        0x080027d6:    e7fe        ..      B        0x80027d6 ; 0x80027d6
        0x080027d8:    4ca8        .L      LDR      r4,[pc,#672] ; [0x8002a7c] = 0xe000e010
        0x080027da:    6060        ``      STR      r0,[r4,#4]
        0x080027dc:    48a8        .H      LDR      r0,[pc,#672] ; [0x8002a80] = 0xe000ed20
        0x080027de:    6801        .h      LDR      r1,[r0,#0]
        0x080027e0:    4029        )@      ANDS     r1,r1,r5
        0x080027e2:    2203        ."      MOVS     r2,#3
        0x080027e4:    9215        ..      STR      r2,[sp,#0x54]
        0x080027e6:    0792        ..      LSLS     r2,r2,#30
        0x080027e8:    1889        ..      ADDS     r1,r1,r2
        0x080027ea:    6001        .`      STR      r1,[r0,#0]
        0x080027ec:    60a6        .`      STR      r6,[r4,#8]
        0x080027ee:    980c        ..      LDR      r0,[sp,#0x30]
        0x080027f0:    6020         `      STR      r0,[r4,#0]
        0x080027f2:    631e        .c      STR      r6,[r3,#0x30]
        0x080027f4:    635e        ^c      STR      r6,[r3,#0x34]
        0x080027f6:    695c        \i      LDR      r4,[r3,#0x14]
        0x080027f8:    2c00        .,      CMP      r4,#0
        0x080027fa:    d026        &.      BEQ      0x800284a ; 0x800284a
        0x080027fc:    4dca        .M      LDR      r5,[pc,#808] ; [0x8002b28] = 0x834
        0x080027fe:    446d        mD      ADD      r5,sp,r5
        0x08002800:    2101        .!      MOVS     r1,#1
        0x08002802:    4628        (F      MOV      r0,r5
        0x08002804:    f7fdfe76    ..v.    BL       core_bench_list ; 0x80004f4
        0x08002808:    8f29        ).      LDRH     r1,[r5,#0x38]
        0x0800280a:    f7fefbf1    ....    BL       crcu16 ; 0x8000ff0
        0x0800280e:    8728        (.      STRH     r0,[r5,#0x38]
        0x08002810:    4628        (F      MOV      r0,r5
        0x08002812:    4639        9F      MOV      r1,r7
        0x08002814:    f7fdfe6e    ..n.    BL       core_bench_list ; 0x80004f4
        0x08002818:    8f29        ).      LDRH     r1,[r5,#0x38]
        0x0800281a:    f7fefbe9    ....    BL       crcu16 ; 0x8000ff0
        0x0800281e:    8768        h.      STRH     r0,[r5,#0x3a]
        0x08002820:    8728        (.      STRH     r0,[r5,#0x38]
        0x08002822:    1e64        d.      SUBS     r4,r4,#1
        0x08002824:    d011        ..      BEQ      0x800284a ; 0x800284a
        0x08002826:    4dc0        .M      LDR      r5,[pc,#768] ; [0x8002b28] = 0x834
        0x08002828:    446d        mD      ADD      r5,sp,r5
        0x0800282a:    2101        .!      MOVS     r1,#1
        0x0800282c:    4628        (F      MOV      r0,r5
        0x0800282e:    f7fdfe61    ..a.    BL       core_bench_list ; 0x80004f4
        0x08002832:    8f29        ).      LDRH     r1,[r5,#0x38]
        0x08002834:    f7fefbdc    ....    BL       crcu16 ; 0x8000ff0
        0x08002838:    8728        (.      STRH     r0,[r5,#0x38]
        0x0800283a:    4628        (F      MOV      r0,r5
        0x0800283c:    4639        9F      MOV      r1,r7
        0x0800283e:    f7fdfe59    ..Y.    BL       core_bench_list ; 0x80004f4
        0x08002842:    8f29        ).      LDRH     r1,[r5,#0x38]
        0x08002844:    f7fefbd4    ....    BL       crcu16 ; 0x8000ff0
        0x08002848:    e7ea        ..      B        0x8002820 ; 0x8002820
        0x0800284a:    498c        .I      LDR      r1,[pc,#560] ; [0x8002a7c] = 0xe000e010
        0x0800284c:    6808        .h      LDR      r0,[r1,#0]
        0x0800284e:    2501        .%      MOVS     r5,#1
        0x08002850:    43a8        .C      BICS     r0,r0,r5
        0x08002852:    6008        .`      STR      r0,[r1,#0]
        0x08002854:    608e        .`      STR      r6,[r1,#8]
        0x08002856:    4cb4        .L      LDR      r4,[pc,#720] ; [0x8002b28] = 0x834
        0x08002858:    446c        lD      ADD      r4,sp,r4
        0x0800285a:    5fa0        ._      LDRSH    r0,[r4,r6]
        0x0800285c:    4989        .I      LDR      r1,[pc,#548] ; [0x8002a84] = 0x20000068
        0x0800285e:    6809        .h      LDR      r1,[r1,#0]
        0x08002860:    9116        ..      STR      r1,[sp,#0x58]
        0x08002862:    4631        1F      MOV      r1,r6
        0x08002864:    f7fefb4e    ..N.    BL       crc16 ; 0x8000f04
        0x08002868:    4601        .F      MOV      r1,r0
        0x0800286a:    9818        ..      LDR      r0,[sp,#0x60]
        0x0800286c:    5e20         ^      LDRSH    r0,[r4,r0]
        0x0800286e:    f7fefb49    ..I.    BL       crc16 ; 0x8000f04
        0x08002872:    4601        .F      MOV      r1,r0
        0x08002874:    9809        ..      LDR      r0,[sp,#0x24]
        0x08002876:    5e20         ^      LDRSH    r0,[r4,r0]
        0x08002878:    f7fefb44    ..D.    BL       crc16 ; 0x8000f04
        0x0800287c:    4601        .F      MOV      r1,r0
        0x0800287e:    2018        .       MOVS     r0,#0x18
        0x08002880:    5e20         ^      LDRSH    r0,[r4,r0]
        0x08002882:    f7fefb3f    ..?.    BL       crc16 ; 0x8000f04
        0x08002886:    4981        .I      LDR      r1,[pc,#516] ; [0x8002a8c] = 0x7b04
        0x08002888:    4288        .B      CMP      r0,r1
        0x0800288a:    9017        ..      STR      r0,[sp,#0x5c]
        0x0800288c:    dd0a        ..      BLE      0x80028a4 ; 0x80028a4
        0x0800288e:    4980        .I      LDR      r1,[pc,#512] ; [0x8002a90] = 0xe9f5
        0x08002890:    4288        .B      CMP      r0,r1
        0x08002892:    d010        ..      BEQ      0x80028b6 ; 0x80028b6
        0x08002894:    497f        .I      LDR      r1,[pc,#508] ; [0x8002a94] = 0x8a02
        0x08002896:    4288        .B      CMP      r0,r1
        0x08002898:    d016        ..      BEQ      0x80028c8 ; 0x80028c8
        0x0800289a:    497f        .I      LDR      r1,[pc,#508] ; [0x8002a98] = 0x7b05
        0x0800289c:    4288        .B      CMP      r0,r1
        0x0800289e:    d15b        [.      BNE      0x8002958 ; 0x8002958
        0x080028a0:    4883        .H      LDR      r0,[pc,#524] ; [0x8002ab0] = 0x800595a
        0x080028a2:    e016        ..      B        0x80028d2 ; 0x80028d2
        0x080028a4:    497d        }I      LDR      r1,[pc,#500] ; [0x8002a9c] = 0x18f2
        0x080028a6:    4288        .B      CMP      r0,r1
        0x080028a8:    d011        ..      BEQ      0x80028ce ; 0x80028ce
        0x080028aa:    497d        }I      LDR      r1,[pc,#500] ; [0x8002aa0] = 0x4eaf
        0x080028ac:    4288        .B      CMP      r0,r1
        0x080028ae:    d153        S.      BNE      0x8002958 ; 0x8002958
        0x080028b0:    487e        ~H      LDR      r0,[pc,#504] ; [0x8002aac] = 0x8005986
        0x080028b2:    9d18        ..      LDR      r5,[sp,#0x60]
        0x080028b4:    e00d        ..      B        0x80028d2 ; 0x80028d2
        0x080028b6:    487c        |H      LDR      r0,[pc,#496] ; [0x8002aa8] = 0x80058d4
        0x080028b8:    9d15        ..      LDR      r5,[sp,#0x54]
        0x080028ba:    e00a        ..      B        0x80028d2 ; 0x80028d2
    $d
    __arm_cp.0_82
        0x080028bc:    ffff0000    ....    DCD    4294901760
    __arm_cp.0_83
        0x080028c0:    00007fff    ....    DCD    32767
        0x080028c4:    00000834    4...    DCD    2100
    $t
        0x080028c8:    486f        oH      LDR      r0,[pc,#444] ; [0x8002a88] = 0x8005901
        0x080028ca:    4635        5F      MOV      r5,r6
        0x080028cc:    e001        ..      B        0x80028d2 ; 0x80028d2
        0x080028ce:    4875        uH      LDR      r0,[pc,#468] ; [0x8002aa4] = 0x800592e
        0x080028d0:    9d09        ..      LDR      r5,[sp,#0x24]
        0x080028d2:    f7fefce9    ....    BL       ee_printf ; 0x80012a8
        0x080028d6:    9806        ..      LDR      r0,[sp,#0x18]
        0x080028d8:    8006        ..      STRH     r6,[r0,#0]
        0x080028da:    006c        l.      LSLS     r4,r5,#1
        0x080028dc:    980d        ..      LDR      r0,[sp,#0x34]
        0x080028de:    6980        .i      LDR      r0,[r0,#0x18]
        0x080028e0:    07c1        ..      LSLS     r1,r0,#31
        0x080028e2:    d010        ..      BEQ      0x8002906 ; 0x8002906
        0x080028e4:    4975        uI      LDR      r1,[pc,#468] ; [0x8002abc] = 0x8005850
        0x080028e6:    5b0b        .[      LDRH     r3,[r1,r4]
        0x080028e8:    498f        .I      LDR      r1,[pc,#572] ; [0x8002b28] = 0x834
        0x080028ea:    4469        iD      ADD      r1,sp,r1
        0x080028ec:    8f4a        J.      LDRH     r2,[r1,#0x3a]
        0x080028ee:    429a        .B      CMP      r2,r3
        0x080028f0:    d009        ..      BEQ      0x8002906 ; 0x8002906
        0x080028f2:    4873        sH      LDR      r0,[pc,#460] ; [0x8002ac0] = 0x8005bea
        0x080028f4:    2100        .!      MOVS     r1,#0
        0x080028f6:    f7fefcd7    ....    BL       ee_printf ; 0x80012a8
        0x080028fa:    9906        ..      LDR      r1,[sp,#0x18]
        0x080028fc:    8808        ..      LDRH     r0,[r1,#0]
        0x080028fe:    1c46        F.      ADDS     r6,r0,#1
        0x08002900:    800e        ..      STRH     r6,[r1,#0]
        0x08002902:    980d        ..      LDR      r0,[sp,#0x34]
        0x08002904:    6980        .i      LDR      r0,[r0,#0x18]
        0x08002906:    0781        ..      LSLS     r1,r0,#30
        0x08002908:    d511        ..      BPL      0x800292e ; 0x800292e
        0x0800290a:    496b        kI      LDR      r1,[pc,#428] ; [0x8002ab8] = 0x800585a
        0x0800290c:    1909        ..      ADDS     r1,r1,r4
        0x0800290e:    880b        ..      LDRH     r3,[r1,#0]
        0x08002910:    4985        .I      LDR      r1,[pc,#532] ; [0x8002b28] = 0x834
        0x08002912:    4469        iD      ADD      r1,sp,r1
        0x08002914:    8f8a        ..      LDRH     r2,[r1,#0x3c]
        0x08002916:    429a        .B      CMP      r2,r3
        0x08002918:    d009        ..      BEQ      0x800292e ; 0x800292e
        0x0800291a:    486a        jH      LDR      r0,[pc,#424] ; [0x8002ac4] = 0x8005c19
        0x0800291c:    2100        .!      MOVS     r1,#0
        0x0800291e:    f7fefcc3    ....    BL       ee_printf ; 0x80012a8
        0x08002922:    9906        ..      LDR      r1,[sp,#0x18]
        0x08002924:    8808        ..      LDRH     r0,[r1,#0]
        0x08002926:    1c46        F.      ADDS     r6,r0,#1
        0x08002928:    800e        ..      STRH     r6,[r1,#0]
        0x0800292a:    980d        ..      LDR      r0,[sp,#0x34]
        0x0800292c:    6980        .i      LDR      r0,[r0,#0x18]
        0x0800292e:    0740        @.      LSLS     r0,r0,#29
        0x08002930:    d401        ..      BMI      0x8002936 ; 0x8002936
        0x08002932:    4637        7F      MOV      r7,r6
        0x08002934:    e010        ..      B        0x8002958 ; 0x8002958
        0x08002936:    485f        _H      LDR      r0,[pc,#380] ; [0x8002ab4] = 0x8005874
        0x08002938:    1900        ..      ADDS     r0,r0,r4
        0x0800293a:    8803        ..      LDRH     r3,[r0,#0]
        0x0800293c:    487a        zH      LDR      r0,[pc,#488] ; [0x8002b28] = 0x834
        0x0800293e:    4468        hD      ADD      r0,sp,r0
        0x08002940:    8fc2        ..      LDRH     r2,[r0,#0x3e]
        0x08002942:    429a        .B      CMP      r2,r3
        0x08002944:    4637        7F      MOV      r7,r6
        0x08002946:    d007        ..      BEQ      0x8002958 ; 0x8002958
        0x08002948:    485f        _H      LDR      r0,[pc,#380] ; [0x8002ac8] = 0x8005bba
        0x0800294a:    2100        .!      MOVS     r1,#0
        0x0800294c:    f7fefcac    ....    BL       ee_printf ; 0x80012a8
        0x08002950:    9906        ..      LDR      r1,[sp,#0x18]
        0x08002952:    8808        ..      LDRH     r0,[r1,#0]
        0x08002954:    1c47        G.      ADDS     r7,r0,#1
        0x08002956:    800f        ..      STRH     r7,[r1,#0]
        0x08002958:    980d        ..      LDR      r0,[sp,#0x34]
        0x0800295a:    6901        .i      LDR      r1,[r0,#0x10]
        0x0800295c:    485b        [H      LDR      r0,[pc,#364] ; [0x8002acc] = 0x8005b17
        0x0800295e:    f7fefca3    ....    BL       ee_printf ; 0x80012a8
        0x08002962:    485b        [H      LDR      r0,[pc,#364] ; [0x8002ad0] = 0x8005aff
        0x08002964:    9c16        ..      LDR      r4,[sp,#0x58]
        0x08002966:    4621        !F      MOV      r1,r4
        0x08002968:    f7fefc9e    ....    BL       ee_printf ; 0x80012a8
        0x0800296c:    207d        }       MOVS     r0,#0x7d
        0x0800296e:    00c1        ..      LSLS     r1,r0,#3
        0x08002970:    4620         F      MOV      r0,r4
        0x08002972:    f7fdfcf5    ....    BL       __aeabi_uidiv ; 0x8000360
        0x08002976:    4606        .F      MOV      r6,r0
        0x08002978:    4856        VH      LDR      r0,[pc,#344] ; [0x8002ad4] = 0x8005a7a
        0x0800297a:    4631        1F      MOV      r1,r6
        0x0800297c:    f7fefc94    ....    BL       ee_printf ; 0x80012a8
        0x08002980:    08e0        ..      LSRS     r0,r4,#3
        0x08002982:    287d        }(      CMP      r0,#0x7d
        0x08002984:    d30b        ..      BCC      0x800299e ; 0x800299e
        0x08002986:    980d        ..      LDR      r0,[sp,#0x34]
        0x08002988:    6940        @i      LDR      r0,[r0,#0x14]
        0x0800298a:    4631        1F      MOV      r1,r6
        0x0800298c:    f7fdfce8    ....    BL       __aeabi_uidiv ; 0x8000360
        0x08002990:    4601        .F      MOV      r1,r0
        0x08002992:    4851        QH      LDR      r0,[pc,#324] ; [0x8002ad8] = 0x8005a63
        0x08002994:    f7fefc88    ....    BL       ee_printf ; 0x80012a8
        0x08002998:    4850        PH      LDR      r0,[pc,#320] ; [0x8002adc] = 0x270f
        0x0800299a:    4284        .B      CMP      r4,r0
        0x0800299c:    d803        ..      BHI      0x80029a6 ; 0x80029a6
        0x0800299e:    4850        PH      LDR      r0,[pc,#320] ; [0x8002ae0] = 0x8005896
        0x080029a0:    f7fefc82    ....    BL       ee_printf ; 0x80012a8
        0x080029a4:    1c7f        ..      ADDS     r7,r7,#1
        0x080029a6:    9c0d        ..      LDR      r4,[sp,#0x34]
        0x080029a8:    6961        ai      LDR      r1,[r4,#0x14]
        0x080029aa:    484e        NH      LDR      r0,[pc,#312] ; [0x8002ae4] = 0x8005ae7
        0x080029ac:    f7fefc7c    ..|.    BL       ee_printf ; 0x80012a8
        0x080029b0:    484d        MH      LDR      r0,[pc,#308] ; [0x8002ae8] = 0x8005ad0
        0x080029b2:    494e        NI      LDR      r1,[pc,#312] ; [0x8002aec] = 0x8005d00
        0x080029b4:    f7fefc78    ..x.    BL       ee_printf ; 0x80012a8
        0x080029b8:    484d        MH      LDR      r0,[pc,#308] ; [0x8002af0] = 0x8005aa2
        0x080029ba:    494e        NI      LDR      r1,[pc,#312] ; [0x8002af4] = 0x8005ce6
        0x080029bc:    f7fefc74    ..t.    BL       ee_printf ; 0x80012a8
        0x080029c0:    484d        MH      LDR      r0,[pc,#308] ; [0x8002af8] = 0x8005ab9
        0x080029c2:    a14e        N.      ADR      r1,{pc}+0x13a ; 0x8002afc
        0x080029c4:    f7fefc70    ..p.    BL       ee_printf ; 0x80012a8
        0x080029c8:    484e        NH      LDR      r0,[pc,#312] ; [0x8002b04] = 0x8005b2f
        0x080029ca:    9917        ..      LDR      r1,[sp,#0x5c]
        0x080029cc:    f7fefc6c    ..l.    BL       ee_printf ; 0x80012a8
        0x080029d0:    69a0        .i      LDR      r0,[r4,#0x18]
        0x080029d2:    07c1        ..      LSLS     r1,r0,#31
        0x080029d4:    d118        ..      BNE      0x8002a08 ; 0x8002a08
        0x080029d6:    0781        ..      LSLS     r1,r0,#30
        0x080029d8:    d421        !.      BMI      0x8002a1e ; 0x8002a1e
        0x080029da:    0740        @.      LSLS     r0,r0,#29
        0x080029dc:    d506        ..      BPL      0x80029ec ; 0x80029ec
        0x080029de:    4852        RH      LDR      r0,[pc,#328] ; [0x8002b28] = 0x834
        0x080029e0:    4468        hD      ADD      r0,sp,r0
        0x080029e2:    8fc2        ..      LDRH     r2,[r0,#0x3e]
        0x080029e4:    484a        JH      LDR      r0,[pc,#296] ; [0x8002b10] = 0x8005b66
        0x080029e6:    2100        .!      MOVS     r1,#0
        0x080029e8:    f7fefc5e    ..^.    BL       ee_printf ; 0x80012a8
        0x080029ec:    484e        NH      LDR      r0,[pc,#312] ; [0x8002b28] = 0x834
        0x080029ee:    4468        hD      ADD      r0,sp,r0
        0x080029f0:    8f02        ..      LDRH     r2,[r0,#0x38]
        0x080029f2:    4848        HH      LDR      r0,[pc,#288] ; [0x8002b14] = 0x8005b82
        0x080029f4:    2100        .!      MOVS     r1,#0
        0x080029f6:    f7fefc57    ..W.    BL       ee_printf ; 0x80012a8
        0x080029fa:    b238        8.      SXTH     r0,r7
        0x080029fc:    2800        .(      CMP      r0,#0
        0x080029fe:    dc19        ..      BGT      0x8002a34 ; 0x8002a34
        0x08002a00:    4846        FH      LDR      r0,[pc,#280] ; [0x8002b1c] = 0x80059b7
        0x08002a02:    0439        9.      LSLS     r1,r7,#16
        0x08002a04:    d019        ..      BEQ      0x8002a3a ; 0x8002a3a
        0x08002a06:    e019        ..      B        0x8002a3c ; 0x8002a3c
        0x08002a08:    4847        GH      LDR      r0,[pc,#284] ; [0x8002b28] = 0x834
        0x08002a0a:    4468        hD      ADD      r0,sp,r0
        0x08002a0c:    8f42        B.      LDRH     r2,[r0,#0x3a]
        0x08002a0e:    483e        >H      LDR      r0,[pc,#248] ; [0x8002b08] = 0x8005b4a
        0x08002a10:    2100        .!      MOVS     r1,#0
        0x08002a12:    f7fefc49    ..I.    BL       ee_printf ; 0x80012a8
        0x08002a16:    9c0d        ..      LDR      r4,[sp,#0x34]
        0x08002a18:    69a0        .i      LDR      r0,[r4,#0x18]
        0x08002a1a:    0781        ..      LSLS     r1,r0,#30
        0x08002a1c:    d5dd        ..      BPL      0x80029da ; 0x80029da
        0x08002a1e:    4842        BH      LDR      r0,[pc,#264] ; [0x8002b28] = 0x834
        0x08002a20:    4468        hD      ADD      r0,sp,r0
        0x08002a22:    8f82        ..      LDRH     r2,[r0,#0x3c]
        0x08002a24:    4839        9H      LDR      r0,[pc,#228] ; [0x8002b0c] = 0x8005b9e
        0x08002a26:    2100        .!      MOVS     r1,#0
        0x08002a28:    f7fefc3e    ..>.    BL       ee_printf ; 0x80012a8
        0x08002a2c:    69a0        .i      LDR      r0,[r4,#0x18]
        0x08002a2e:    0740        @.      LSLS     r0,r0,#29
        0x08002a30:    d4d5        ..      BMI      0x80029de ; 0x80029de
        0x08002a32:    e7db        ..      B        0x80029ec ; 0x80029ec
        0x08002a34:    4838        8H      LDR      r0,[pc,#224] ; [0x8002b18] = 0x8005a91
        0x08002a36:    0439        9.      LSLS     r1,r7,#16
        0x08002a38:    d100        ..      BNE      0x8002a3c ; 0x8002a3c
        0x08002a3a:    4839        9H      LDR      r0,[pc,#228] ; [0x8002b20] = 0x8005a1a
        0x08002a3c:    f7fefc34    ..4.    BL       ee_printf ; 0x80012a8
        0x08002a40:    4838        8H      LDR      r0,[pc,#224] ; [0x8002b24] = 0x800587e
        0x08002a42:    f7fefc31    ..1.    BL       ee_printf ; 0x80012a8
        0x08002a46:    e7fe        ..      B        0x8002a46 ; 0x8002a46
        0x08002a48:    461a        .F      MOV      r2,r3
        0x08002a4a:    2600        .&      MOVS     r6,#0
        0x08002a4c:    9614        ..      STR      r6,[sp,#0x50]
        0x08002a4e:    9b0d        ..      LDR      r3,[sp,#0x34]
        0x08002a50:    9c16        ..      LDR      r4,[sp,#0x58]
        0x08002a52:    e5dd        ..      B        0x8002610 ; 0x8002610
    $d
    __arm_cp.0_15
        0x08002a54:    08005800    .X..    DCD    134240256
        0x08002a58:    00000004    ....    DCD    4
        0x08002a5c:    00000004    ....    DCD    4
        0x08002a60:    00000004    ....    DCD    4
        0x08002a64:    00000008    ....    DCD    8
        0x08002a68:    00000008    ....    DCD    8
        0x08002a6c:    00000008    ....    DCD    8
        0x08002a70:    00000008    ....    DCD    8
        0x08002a74:    00000008    ....    DCD    8
    __arm_cp.0_17
        0x08002a78:    00ffffff    ....    DCD    16777215
    __arm_cp.0_18
        0x08002a7c:    e000e010    ....    DCD    3758153744
    __arm_cp.0_19
        0x08002a80:    e000ed20     ...    DCD    3758157088
    __arm_cp.0_20
        0x08002a84:    20000068    h..     DCD    536871016
    __arm_cp.0_21
        0x08002a88:    08005901    .Y..    DCD    134240513
    __arm_cp.0_22
        0x08002a8c:    00007b04    .{..    DCD    31492
    __arm_cp.0_23
        0x08002a90:    0000e9f5    ....    DCD    59893
    __arm_cp.0_24
        0x08002a94:    00008a02    ....    DCD    35330
    __arm_cp.0_25
        0x08002a98:    00007b05    .{..    DCD    31493
    __arm_cp.0_26
        0x08002a9c:    000018f2    ....    DCD    6386
    __arm_cp.0_27
        0x08002aa0:    00004eaf    .N..    DCD    20143
    __arm_cp.0_28
        0x08002aa4:    0800592e    .Y..    DCD    134240558
    __arm_cp.0_29
        0x08002aa8:    080058d4    .X..    DCD    134240468
    __arm_cp.0_30
        0x08002aac:    08005986    .Y..    DCD    134240646
    __arm_cp.0_31
        0x08002ab0:    0800595a    ZY..    DCD    134240602
    __arm_cp.0_32
        0x08002ab4:    08005874    tX..    DCD    134240372
    __arm_cp.0_33
        0x08002ab8:    0800585a    ZX..    DCD    134240346
    __arm_cp.0_34
        0x08002abc:    08005850    PX..    DCD    134240336
    __arm_cp.0_35
        0x08002ac0:    08005bea    .[..    DCD    134241258
    __arm_cp.0_36
        0x08002ac4:    08005c19    .\..    DCD    134241305
    __arm_cp.0_37
        0x08002ac8:    08005bba    .[..    DCD    134241210
    __arm_cp.0_38
        0x08002acc:    08005b17    .[..    DCD    134241047
    __arm_cp.0_39
        0x08002ad0:    08005aff    .Z..    DCD    134241023
    __arm_cp.0_40
        0x08002ad4:    08005a7a    zZ..    DCD    134240890
    __arm_cp.0_41
        0x08002ad8:    08005a63    cZ..    DCD    134240867
    __arm_cp.0_42
        0x08002adc:    0000270f    .'..    DCD    9999
    __arm_cp.0_43
        0x08002ae0:    08005896    .X..    DCD    134240406
    __arm_cp.0_44
        0x08002ae4:    08005ae7    .Z..    DCD    134240999
    __arm_cp.0_45
        0x08002ae8:    08005ad0    .Z..    DCD    134240976
    __arm_cp.0_46
        0x08002aec:    08005d00    .]..    DCD    134241536
    __arm_cp.0_47
        0x08002af0:    08005aa2    .Z..    DCD    134240930
    __arm_cp.0_48
        0x08002af4:    08005ce6    .\..    DCD    134241510
    __arm_cp.0_49
        0x08002af8:    08005ab9    .Z..    DCD    134240953
        0x08002afc:    43415453    STAC    DCD    1128354899
        0x08002b00:    0000004b    K...    DCD    75
    __arm_cp.0_51
        0x08002b04:    08005b2f    /[..    DCD    134241071
    __arm_cp.0_52
        0x08002b08:    08005b4a    J[..    DCD    134241098
    __arm_cp.0_53
        0x08002b0c:    08005b9e    .[..    DCD    134241182
    __arm_cp.0_54
        0x08002b10:    08005b66    f[..    DCD    134241126
    __arm_cp.0_55
        0x08002b14:    08005b82    .[..    DCD    134241154
    __arm_cp.0_56
        0x08002b18:    08005a91    .Z..    DCD    134240913
    __arm_cp.0_57
        0x08002b1c:    080059b7    .Y..    DCD    134240695
    __arm_cp.0_58
        0x08002b20:    08005a1a    .Z..    DCD    134240794
    __arm_cp.0_59
        0x08002b24:    0800587e    ~X..    DCD    134240382
    __arm_cp.0_61
        0x08002b28:    00000834    4...    DCD    2100
    $t
    matrix_test
        0x08002b2c:    b5f0        ..      PUSH     {r4-r7,lr}
        0x08002b2e:    b0b5        ..      SUB      sp,sp,#0xd4
        0x08002b30:    9314        ..      STR      r3,[sp,#0x50]
        0x08002b32:    9211        ..      STR      r2,[sp,#0x44]
        0x08002b34:    9112        ..      STR      r1,[sp,#0x48]
        0x08002b36:    2800        .(      CMP      r0,#0
        0x08002b38:    d020         .      BEQ      0x8002b7c ; matrix_test + 80
        0x08002b3a:    4606        .F      MOV      r6,r0
        0x08002b3c:    9d3a        :.      LDR      r5,[sp,#0xe8]
        0x08002b3e:    2400        .$      MOVS     r4,#0
        0x08002b40:    4621        !F      MOV      r1,r4
        0x08002b42:    4602        .F      MOV      r2,r0
        0x08002b44:    4623        #F      MOV      r3,r4
        0x08002b46:    f7fdfb88    ....    BL       __aeabi_lmul ; 0x800025a
        0x08002b4a:    1e4a        J.      SUBS     r2,r1,#1
        0x08002b4c:    4191        .A      SBCS     r1,r1,r2
        0x08002b4e:    9104        ..      STR      r1,[sp,#0x10]
        0x08002b50:    2901        .)      CMP      r1,#1
        0x08002b52:    950e        ..      STR      r5,[sp,#0x38]
        0x08002b54:    9627        '.      STR      r6,[sp,#0x9c]
        0x08002b56:    9005        ..      STR      r0,[sp,#0x14]
        0x08002b58:    9002        ..      STR      r0,[sp,#8]
        0x08002b5a:    d112        ..      BNE      0x8002b82 ; matrix_test + 86
        0x08002b5c:    2003        .       MOVS     r0,#3
        0x08002b5e:    4632        2F      MOV      r2,r6
        0x08002b60:    4002        .@      ANDS     r2,r2,r0
        0x08002b62:    1e71        q.      SUBS     r1,r6,#1
        0x08002b64:    9132        2.      STR      r1,[sp,#0xc8]
        0x08002b66:    2903        .)      CMP      r1,#3
        0x08002b68:    9034        4.      STR      r0,[sp,#0xd0]
        0x08002b6a:    d22e        ..      BCS      0x8002bca ; matrix_test + 158
        0x08002b6c:    2a00        .*      CMP      r2,#0
        0x08002b6e:    d100        ..      BNE      0x8002b72 ; matrix_test + 70
        0x08002b70:    e17d        }.      B        0x8002e6e ; matrix_test + 834
        0x08002b72:    2300        .#      MOVS     r3,#0
        0x08002b74:    9d11        ..      LDR      r5,[sp,#0x44]
        0x08002b76:    461e        .F      MOV      r6,r3
        0x08002b78:    9f0e        ..      LDR      r7,[sp,#0x38]
        0x08002b7a:    e10c        ..      B        0x8002d96 ; matrix_test + 618
        0x08002b7c:    2000        .       MOVS     r0,#0
        0x08002b7e:    f002fca6    ....    BL       0x80054ce ; 0x80054ce
        0x08002b82:    2601        .&      MOVS     r6,#1
        0x08002b84:    2801        .(      CMP      r0,#1
        0x08002b86:    4601        .F      MOV      r1,r0
        0x08002b88:    d800        ..      BHI      0x8002b8c ; matrix_test + 96
        0x08002b8a:    4631        1F      MOV      r1,r6
        0x08002b8c:    400e        .@      ANDS     r6,r6,r1
        0x08002b8e:    2804        .(      CMP      r0,#4
        0x08002b90:    d313        ..      BCC      0x8002bba ; matrix_test + 142
        0x08002b92:    2203        ."      MOVS     r2,#3
        0x08002b94:    4391        .C      BICS     r1,r1,r2
        0x08002b96:    2400        .$      MOVS     r4,#0
        0x08002b98:    9a11        ..      LDR      r2,[sp,#0x44]
        0x08002b9a:    8813        ..      LDRH     r3,[r2,#0]
        0x08002b9c:    195b        [.      ADDS     r3,r3,r5
        0x08002b9e:    8013        ..      STRH     r3,[r2,#0]
        0x08002ba0:    8853        S.      LDRH     r3,[r2,#2]
        0x08002ba2:    195b        [.      ADDS     r3,r3,r5
        0x08002ba4:    8053        S.      STRH     r3,[r2,#2]
        0x08002ba6:    8893        ..      LDRH     r3,[r2,#4]
        0x08002ba8:    195b        [.      ADDS     r3,r3,r5
        0x08002baa:    8093        ..      STRH     r3,[r2,#4]
        0x08002bac:    88d3        ..      LDRH     r3,[r2,#6]
        0x08002bae:    195b        [.      ADDS     r3,r3,r5
        0x08002bb0:    80d3        ..      STRH     r3,[r2,#6]
        0x08002bb2:    3208        .2      ADDS     r2,r2,#8
        0x08002bb4:    1d24        $.      ADDS     r4,r4,#4
        0x08002bb6:    42a1        .B      CMP      r1,r4
        0x08002bb8:    d1ef        ..      BNE      0x8002b9a ; matrix_test + 110
        0x08002bba:    2e00        ..      CMP      r6,#0
        0x08002bbc:    d100        ..      BNE      0x8002bc0 ; matrix_test + 148
        0x08002bbe:    e156        V.      B        0x8002e6e ; matrix_test + 834
        0x08002bc0:    0060        `.      LSLS     r0,r4,#1
        0x08002bc2:    9911        ..      LDR      r1,[sp,#0x44]
        0x08002bc4:    1808        ..      ADDS     r0,r1,r0
        0x08002bc6:    9d0e        ..      LDR      r5,[sp,#0x38]
        0x08002bc8:    e14e        N.      B        0x8002e68 ; matrix_test + 828
        0x08002bca:    4634        4F      MOV      r4,r6
        0x08002bcc:    4384        .C      BICS     r4,r4,r0
        0x08002bce:    2300        .#      MOVS     r3,#0
        0x08002bd0:    9333        3.      STR      r3,[sp,#0xcc]
        0x08002bd2:    e004        ..      B        0x8002bde ; matrix_test + 178
        0x08002bd4:    1d1b        ..      ADDS     r3,r3,#4
        0x08002bd6:    42a3        .B      CMP      r3,r4
        0x08002bd8:    9e27        '.      LDR      r6,[sp,#0x9c]
        0x08002bda:    d100        ..      BNE      0x8002bde ; matrix_test + 178
        0x08002bdc:    e0bc        ..      B        0x8002d58 ; matrix_test + 556
        0x08002bde:    435e        ^C      MULS     r6,r3,r6
        0x08002be0:    0071        q.      LSLS     r1,r6,#1
        0x08002be2:    9811        ..      LDR      r0,[sp,#0x44]
        0x08002be4:    1841        A.      ADDS     r1,r0,r1
        0x08002be6:    460e        .F      MOV      r6,r1
        0x08002be8:    9f33        3.      LDR      r7,[sp,#0xcc]
        0x08002bea:    9d0e        ..      LDR      r5,[sp,#0x38]
        0x08002bec:    8830        0.      LDRH     r0,[r6,#0]
        0x08002bee:    1940        @.      ADDS     r0,r0,r5
        0x08002bf0:    8030        0.      STRH     r0,[r6,#0]
        0x08002bf2:    8870        p.      LDRH     r0,[r6,#2]
        0x08002bf4:    1940        @.      ADDS     r0,r0,r5
        0x08002bf6:    8070        p.      STRH     r0,[r6,#2]
        0x08002bf8:    88b0        ..      LDRH     r0,[r6,#4]
        0x08002bfa:    1940        @.      ADDS     r0,r0,r5
        0x08002bfc:    80b0        ..      STRH     r0,[r6,#4]
        0x08002bfe:    88f0        ..      LDRH     r0,[r6,#6]
        0x08002c00:    1940        @.      ADDS     r0,r0,r5
        0x08002c02:    80f0        ..      STRH     r0,[r6,#6]
        0x08002c04:    3608        .6      ADDS     r6,r6,#8
        0x08002c06:    1d3f        ?.      ADDS     r7,r7,#4
        0x08002c08:    42bc        .B      CMP      r4,r7
        0x08002c0a:    d1ef        ..      BNE      0x8002bec ; matrix_test + 192
        0x08002c0c:    2a00        .*      CMP      r2,#0
        0x08002c0e:    d011        ..      BEQ      0x8002c34 ; matrix_test + 264
        0x08002c10:    007e        ~.      LSLS     r6,r7,#1
        0x08002c12:    5b88        .[      LDRH     r0,[r1,r6]
        0x08002c14:    9d0e        ..      LDR      r5,[sp,#0x38]
        0x08002c16:    1940        @.      ADDS     r0,r0,r5
        0x08002c18:    5388        .S      STRH     r0,[r1,r6]
        0x08002c1a:    2a01        .*      CMP      r2,#1
        0x08002c1c:    d00a        ..      BEQ      0x8002c34 ; matrix_test + 264
        0x08002c1e:    1989        ..      ADDS     r1,r1,r6
        0x08002c20:    8848        H.      LDRH     r0,[r1,#2]
        0x08002c22:    9d0e        ..      LDR      r5,[sp,#0x38]
        0x08002c24:    1940        @.      ADDS     r0,r0,r5
        0x08002c26:    8048        H.      STRH     r0,[r1,#2]
        0x08002c28:    2a02        .*      CMP      r2,#2
        0x08002c2a:    d003        ..      BEQ      0x8002c34 ; matrix_test + 264
        0x08002c2c:    8888        ..      LDRH     r0,[r1,#4]
        0x08002c2e:    9d0e        ..      LDR      r5,[sp,#0x38]
        0x08002c30:    1940        @.      ADDS     r0,r0,r5
        0x08002c32:    8088        ..      STRH     r0,[r1,#4]
        0x08002c34:    2001        .       MOVS     r0,#1
        0x08002c36:    4318        .C      ORRS     r0,r0,r3
        0x08002c38:    9927        '.      LDR      r1,[sp,#0x9c]
        0x08002c3a:    4348        HC      MULS     r0,r1,r0
        0x08002c3c:    0040        @.      LSLS     r0,r0,#1
        0x08002c3e:    9911        ..      LDR      r1,[sp,#0x44]
        0x08002c40:    180e        ..      ADDS     r6,r1,r0
        0x08002c42:    2700        .'      MOVS     r7,#0
        0x08002c44:    4631        1F      MOV      r1,r6
        0x08002c46:    9d0e        ..      LDR      r5,[sp,#0x38]
        0x08002c48:    8808        ..      LDRH     r0,[r1,#0]
        0x08002c4a:    1940        @.      ADDS     r0,r0,r5
        0x08002c4c:    8008        ..      STRH     r0,[r1,#0]
        0x08002c4e:    8848        H.      LDRH     r0,[r1,#2]
        0x08002c50:    1940        @.      ADDS     r0,r0,r5
        0x08002c52:    8048        H.      STRH     r0,[r1,#2]
        0x08002c54:    8888        ..      LDRH     r0,[r1,#4]
        0x08002c56:    1940        @.      ADDS     r0,r0,r5
        0x08002c58:    8088        ..      STRH     r0,[r1,#4]
        0x08002c5a:    88c8        ..      LDRH     r0,[r1,#6]
        0x08002c5c:    1940        @.      ADDS     r0,r0,r5
        0x08002c5e:    80c8        ..      STRH     r0,[r1,#6]
        0x08002c60:    3108        .1      ADDS     r1,r1,#8
        0x08002c62:    1d3f        ?.      ADDS     r7,r7,#4
        0x08002c64:    42bc        .B      CMP      r4,r7
        0x08002c66:    d1ef        ..      BNE      0x8002c48 ; matrix_test + 284
        0x08002c68:    2a00        .*      CMP      r2,#0
        0x08002c6a:    d011        ..      BEQ      0x8002c90 ; matrix_test + 356
        0x08002c6c:    0079        y.      LSLS     r1,r7,#1
        0x08002c6e:    5a70        pZ      LDRH     r0,[r6,r1]
        0x08002c70:    9d0e        ..      LDR      r5,[sp,#0x38]
        0x08002c72:    1940        @.      ADDS     r0,r0,r5
        0x08002c74:    5270        pR      STRH     r0,[r6,r1]
        0x08002c76:    2a01        .*      CMP      r2,#1
        0x08002c78:    d00a        ..      BEQ      0x8002c90 ; matrix_test + 356
        0x08002c7a:    1871        q.      ADDS     r1,r6,r1
        0x08002c7c:    8848        H.      LDRH     r0,[r1,#2]
        0x08002c7e:    9d0e        ..      LDR      r5,[sp,#0x38]
        0x08002c80:    1940        @.      ADDS     r0,r0,r5
        0x08002c82:    8048        H.      STRH     r0,[r1,#2]
        0x08002c84:    2a02        .*      CMP      r2,#2
        0x08002c86:    d003        ..      BEQ      0x8002c90 ; matrix_test + 356
        0x08002c88:    8888        ..      LDRH     r0,[r1,#4]
        0x08002c8a:    9d0e        ..      LDR      r5,[sp,#0x38]
        0x08002c8c:    1940        @.      ADDS     r0,r0,r5
        0x08002c8e:    8088        ..      STRH     r0,[r1,#4]
        0x08002c90:    2002        .       MOVS     r0,#2
        0x08002c92:    4318        .C      ORRS     r0,r0,r3
        0x08002c94:    9927        '.      LDR      r1,[sp,#0x9c]
        0x08002c96:    4348        HC      MULS     r0,r1,r0
        0x08002c98:    0040        @.      LSLS     r0,r0,#1
        0x08002c9a:    9911        ..      LDR      r1,[sp,#0x44]
        0x08002c9c:    180e        ..      ADDS     r6,r1,r0
        0x08002c9e:    2700        .'      MOVS     r7,#0
        0x08002ca0:    4631        1F      MOV      r1,r6
        0x08002ca2:    9d0e        ..      LDR      r5,[sp,#0x38]
        0x08002ca4:    8808        ..      LDRH     r0,[r1,#0]
        0x08002ca6:    1940        @.      ADDS     r0,r0,r5
        0x08002ca8:    8008        ..      STRH     r0,[r1,#0]
        0x08002caa:    8848        H.      LDRH     r0,[r1,#2]
        0x08002cac:    1940        @.      ADDS     r0,r0,r5
        0x08002cae:    8048        H.      STRH     r0,[r1,#2]
        0x08002cb0:    8888        ..      LDRH     r0,[r1,#4]
        0x08002cb2:    1940        @.      ADDS     r0,r0,r5
        0x08002cb4:    8088        ..      STRH     r0,[r1,#4]
        0x08002cb6:    88c8        ..      LDRH     r0,[r1,#6]
        0x08002cb8:    1940        @.      ADDS     r0,r0,r5
        0x08002cba:    80c8        ..      STRH     r0,[r1,#6]
        0x08002cbc:    3108        .1      ADDS     r1,r1,#8
        0x08002cbe:    1d3f        ?.      ADDS     r7,r7,#4
        0x08002cc0:    42bc        .B      CMP      r4,r7
        0x08002cc2:    d1ef        ..      BNE      0x8002ca4 ; matrix_test + 376
        0x08002cc4:    2a00        .*      CMP      r2,#0
        0x08002cc6:    d011        ..      BEQ      0x8002cec ; matrix_test + 448
        0x08002cc8:    0079        y.      LSLS     r1,r7,#1
        0x08002cca:    5a70        pZ      LDRH     r0,[r6,r1]
        0x08002ccc:    9d0e        ..      LDR      r5,[sp,#0x38]
        0x08002cce:    1940        @.      ADDS     r0,r0,r5
        0x08002cd0:    5270        pR      STRH     r0,[r6,r1]
        0x08002cd2:    2a01        .*      CMP      r2,#1
        0x08002cd4:    d00a        ..      BEQ      0x8002cec ; matrix_test + 448
        0x08002cd6:    1871        q.      ADDS     r1,r6,r1
        0x08002cd8:    8848        H.      LDRH     r0,[r1,#2]
        0x08002cda:    9d0e        ..      LDR      r5,[sp,#0x38]
        0x08002cdc:    1940        @.      ADDS     r0,r0,r5
        0x08002cde:    8048        H.      STRH     r0,[r1,#2]
        0x08002ce0:    2a02        .*      CMP      r2,#2
        0x08002ce2:    d003        ..      BEQ      0x8002cec ; matrix_test + 448
        0x08002ce4:    8888        ..      LDRH     r0,[r1,#4]
        0x08002ce6:    9d0e        ..      LDR      r5,[sp,#0x38]
        0x08002ce8:    1940        @.      ADDS     r0,r0,r5
        0x08002cea:    8088        ..      STRH     r0,[r1,#4]
        0x08002cec:    4618        .F      MOV      r0,r3
        0x08002cee:    9934        4.      LDR      r1,[sp,#0xd0]
        0x08002cf0:    4308        .C      ORRS     r0,r0,r1
        0x08002cf2:    9927        '.      LDR      r1,[sp,#0x9c]
        0x08002cf4:    4348        HC      MULS     r0,r1,r0
        0x08002cf6:    0040        @.      LSLS     r0,r0,#1
        0x08002cf8:    9911        ..      LDR      r1,[sp,#0x44]
        0x08002cfa:    180e        ..      ADDS     r6,r1,r0
        0x08002cfc:    2700        .'      MOVS     r7,#0
        0x08002cfe:    4631        1F      MOV      r1,r6
        0x08002d00:    9d0e        ..      LDR      r5,[sp,#0x38]
        0x08002d02:    8808        ..      LDRH     r0,[r1,#0]
        0x08002d04:    1940        @.      ADDS     r0,r0,r5
        0x08002d06:    8008        ..      STRH     r0,[r1,#0]
        0x08002d08:    8848        H.      LDRH     r0,[r1,#2]
        0x08002d0a:    1940        @.      ADDS     r0,r0,r5
        0x08002d0c:    8048        H.      STRH     r0,[r1,#2]
        0x08002d0e:    8888        ..      LDRH     r0,[r1,#4]
        0x08002d10:    1940        @.      ADDS     r0,r0,r5
        0x08002d12:    8088        ..      STRH     r0,[r1,#4]
        0x08002d14:    88c8        ..      LDRH     r0,[r1,#6]
        0x08002d16:    1940        @.      ADDS     r0,r0,r5
        0x08002d18:    80c8        ..      STRH     r0,[r1,#6]
        0x08002d1a:    3108        .1      ADDS     r1,r1,#8
        0x08002d1c:    1d3f        ?.      ADDS     r7,r7,#4
        0x08002d1e:    42bc        .B      CMP      r4,r7
        0x08002d20:    d1ef        ..      BNE      0x8002d02 ; matrix_test + 470
        0x08002d22:    2a00        .*      CMP      r2,#0
        0x08002d24:    d012        ..      BEQ      0x8002d4c ; matrix_test + 544
        0x08002d26:    0079        y.      LSLS     r1,r7,#1
        0x08002d28:    5a70        pZ      LDRH     r0,[r6,r1]
        0x08002d2a:    9d0e        ..      LDR      r5,[sp,#0x38]
        0x08002d2c:    1940        @.      ADDS     r0,r0,r5
        0x08002d2e:    5270        pR      STRH     r0,[r6,r1]
        0x08002d30:    2a01        .*      CMP      r2,#1
        0x08002d32:    d100        ..      BNE      0x8002d36 ; matrix_test + 522
        0x08002d34:    e74e        N.      B        0x8002bd4 ; matrix_test + 168
        0x08002d36:    1871        q.      ADDS     r1,r6,r1
        0x08002d38:    8848        H.      LDRH     r0,[r1,#2]
        0x08002d3a:    1940        @.      ADDS     r0,r0,r5
        0x08002d3c:    8048        H.      STRH     r0,[r1,#2]
        0x08002d3e:    2a02        .*      CMP      r2,#2
        0x08002d40:    d100        ..      BNE      0x8002d44 ; matrix_test + 536
        0x08002d42:    e747        G.      B        0x8002bd4 ; matrix_test + 168
        0x08002d44:    8888        ..      LDRH     r0,[r1,#4]
        0x08002d46:    1940        @.      ADDS     r0,r0,r5
        0x08002d48:    8088        ..      STRH     r0,[r1,#4]
        0x08002d4a:    e743        C.      B        0x8002bd4 ; matrix_test + 168
        0x08002d4c:    1d1b        ..      ADDS     r3,r3,#4
        0x08002d4e:    42a3        .B      CMP      r3,r4
        0x08002d50:    9e27        '.      LDR      r6,[sp,#0x9c]
        0x08002d52:    d000        ..      BEQ      0x8002d56 ; matrix_test + 554
        0x08002d54:    e743        C.      B        0x8002bde ; matrix_test + 178
        0x08002d56:    e08a        ..      B        0x8002e6e ; matrix_test + 834
        0x08002d58:    2a00        .*      CMP      r2,#0
        0x08002d5a:    d100        ..      BNE      0x8002d5e ; matrix_test + 562
        0x08002d5c:    e087        ..      B        0x8002e6e ; matrix_test + 834
        0x08002d5e:    435e        ^C      MULS     r6,r3,r6
        0x08002d60:    0070        p.      LSLS     r0,r6,#1
        0x08002d62:    9911        ..      LDR      r1,[sp,#0x44]
        0x08002d64:    180d        ..      ADDS     r5,r1,r0
        0x08002d66:    9832        2.      LDR      r0,[sp,#0xc8]
        0x08002d68:    2600        .&      MOVS     r6,#0
        0x08002d6a:    2803        .(      CMP      r0,#3
        0x08002d6c:    d201        ..      BCS      0x8002d72 ; matrix_test + 582
        0x08002d6e:    9f0e        ..      LDR      r7,[sp,#0x38]
        0x08002d70:    e011        ..      B        0x8002d96 ; matrix_test + 618
        0x08002d72:    4629        )F      MOV      r1,r5
        0x08002d74:    9f0e        ..      LDR      r7,[sp,#0x38]
        0x08002d76:    8808        ..      LDRH     r0,[r1,#0]
        0x08002d78:    19c0        ..      ADDS     r0,r0,r7
        0x08002d7a:    8008        ..      STRH     r0,[r1,#0]
        0x08002d7c:    8848        H.      LDRH     r0,[r1,#2]
        0x08002d7e:    19c0        ..      ADDS     r0,r0,r7
        0x08002d80:    8048        H.      STRH     r0,[r1,#2]
        0x08002d82:    8888        ..      LDRH     r0,[r1,#4]
        0x08002d84:    19c0        ..      ADDS     r0,r0,r7
        0x08002d86:    8088        ..      STRH     r0,[r1,#4]
        0x08002d88:    88c8        ..      LDRH     r0,[r1,#6]
        0x08002d8a:    19c0        ..      ADDS     r0,r0,r7
        0x08002d8c:    80c8        ..      STRH     r0,[r1,#6]
        0x08002d8e:    3108        .1      ADDS     r1,r1,#8
        0x08002d90:    1d36        6.      ADDS     r6,r6,#4
        0x08002d92:    42b4        .B      CMP      r4,r6
        0x08002d94:    d1ef        ..      BNE      0x8002d76 ; matrix_test + 586
        0x08002d96:    0071        q.      LSLS     r1,r6,#1
        0x08002d98:    5a68        hZ      LDRH     r0,[r5,r1]
        0x08002d9a:    19c0        ..      ADDS     r0,r0,r7
        0x08002d9c:    5268        hR      STRH     r0,[r5,r1]
        0x08002d9e:    2a01        .*      CMP      r2,#1
        0x08002da0:    9e27        '.      LDR      r6,[sp,#0x9c]
        0x08002da2:    d064        d.      BEQ      0x8002e6e ; matrix_test + 834
        0x08002da4:    1869        i.      ADDS     r1,r5,r1
        0x08002da6:    8848        H.      LDRH     r0,[r1,#2]
        0x08002da8:    9c0e        ..      LDR      r4,[sp,#0x38]
        0x08002daa:    1900        ..      ADDS     r0,r0,r4
        0x08002dac:    8048        H.      STRH     r0,[r1,#2]
        0x08002dae:    2a02        .*      CMP      r2,#2
        0x08002db0:    d002        ..      BEQ      0x8002db8 ; matrix_test + 652
        0x08002db2:    8888        ..      LDRH     r0,[r1,#4]
        0x08002db4:    1900        ..      ADDS     r0,r0,r4
        0x08002db6:    8088        ..      STRH     r0,[r1,#4]
        0x08002db8:    1c58        X.      ADDS     r0,r3,#1
        0x08002dba:    4370        pC      MULS     r0,r6,r0
        0x08002dbc:    0040        @.      LSLS     r0,r0,#1
        0x08002dbe:    9911        ..      LDR      r1,[sp,#0x44]
        0x08002dc0:    1809        ..      ADDS     r1,r1,r0
        0x08002dc2:    9832        2.      LDR      r0,[sp,#0xc8]
        0x08002dc4:    2803        .(      CMP      r0,#3
        0x08002dc6:    d202        ..      BCS      0x8002dce ; matrix_test + 674
        0x08002dc8:    2500        .%      MOVS     r5,#0
        0x08002dca:    9c0e        ..      LDR      r4,[sp,#0x38]
        0x08002dcc:    e014        ..      B        0x8002df8 ; matrix_test + 716
        0x08002dce:    9834        4.      LDR      r0,[sp,#0xd0]
        0x08002dd0:    4386        .C      BICS     r6,r6,r0
        0x08002dd2:    2500        .%      MOVS     r5,#0
        0x08002dd4:    460f        .F      MOV      r7,r1
        0x08002dd6:    9c0e        ..      LDR      r4,[sp,#0x38]
        0x08002dd8:    8838        8.      LDRH     r0,[r7,#0]
        0x08002dda:    1900        ..      ADDS     r0,r0,r4
        0x08002ddc:    8038        8.      STRH     r0,[r7,#0]
        0x08002dde:    8878        x.      LDRH     r0,[r7,#2]
        0x08002de0:    1900        ..      ADDS     r0,r0,r4
        0x08002de2:    8078        x.      STRH     r0,[r7,#2]
        0x08002de4:    88b8        ..      LDRH     r0,[r7,#4]
        0x08002de6:    1900        ..      ADDS     r0,r0,r4
        0x08002de8:    80b8        ..      STRH     r0,[r7,#4]
        0x08002dea:    88f8        ..      LDRH     r0,[r7,#6]
        0x08002dec:    1900        ..      ADDS     r0,r0,r4
        0x08002dee:    80f8        ..      STRH     r0,[r7,#6]
        0x08002df0:    3708        .7      ADDS     r7,r7,#8
        0x08002df2:    1d2d        -.      ADDS     r5,r5,#4
        0x08002df4:    42ae        .B      CMP      r6,r5
        0x08002df6:    d1ef        ..      BNE      0x8002dd8 ; matrix_test + 684
        0x08002df8:    0068        h.      LSLS     r0,r5,#1
        0x08002dfa:    460d        .F      MOV      r5,r1
        0x08002dfc:    5a09        .Z      LDRH     r1,[r1,r0]
        0x08002dfe:    1909        ..      ADDS     r1,r1,r4
        0x08002e00:    5229        )R      STRH     r1,[r5,r0]
        0x08002e02:    1829        ).      ADDS     r1,r5,r0
        0x08002e04:    8848        H.      LDRH     r0,[r1,#2]
        0x08002e06:    1900        ..      ADDS     r0,r0,r4
        0x08002e08:    8048        H.      STRH     r0,[r1,#2]
        0x08002e0a:    2a02        .*      CMP      r2,#2
        0x08002e0c:    9c27        '.      LDR      r4,[sp,#0x9c]
        0x08002e0e:    d02e        ..      BEQ      0x8002e6e ; matrix_test + 834
        0x08002e10:    8888        ..      LDRH     r0,[r1,#4]
        0x08002e12:    9d0e        ..      LDR      r5,[sp,#0x38]
        0x08002e14:    1940        @.      ADDS     r0,r0,r5
        0x08002e16:    8088        ..      STRH     r0,[r1,#4]
        0x08002e18:    1c98        ..      ADDS     r0,r3,#2
        0x08002e1a:    4360        `C      MULS     r0,r4,r0
        0x08002e1c:    0040        @.      LSLS     r0,r0,#1
        0x08002e1e:    9911        ..      LDR      r1,[sp,#0x44]
        0x08002e20:    180a        ..      ADDS     r2,r1,r0
        0x08002e22:    9832        2.      LDR      r0,[sp,#0xc8]
        0x08002e24:    2803        .(      CMP      r0,#3
        0x08002e26:    d201        ..      BCS      0x8002e2c ; matrix_test + 768
        0x08002e28:    2000        .       MOVS     r0,#0
        0x08002e2a:    e014        ..      B        0x8002e56 ; matrix_test + 810
        0x08002e2c:    4621        !F      MOV      r1,r4
        0x08002e2e:    9834        4.      LDR      r0,[sp,#0xd0]
        0x08002e30:    4381        .C      BICS     r1,r1,r0
        0x08002e32:    2000        .       MOVS     r0,#0
        0x08002e34:    4613        .F      MOV      r3,r2
        0x08002e36:    881c        ..      LDRH     r4,[r3,#0]
        0x08002e38:    1964        d.      ADDS     r4,r4,r5
        0x08002e3a:    801c        ..      STRH     r4,[r3,#0]
        0x08002e3c:    885c        \.      LDRH     r4,[r3,#2]
        0x08002e3e:    1964        d.      ADDS     r4,r4,r5
        0x08002e40:    805c        \.      STRH     r4,[r3,#2]
        0x08002e42:    889c        ..      LDRH     r4,[r3,#4]
        0x08002e44:    1964        d.      ADDS     r4,r4,r5
        0x08002e46:    809c        ..      STRH     r4,[r3,#4]
        0x08002e48:    88dc        ..      LDRH     r4,[r3,#6]
        0x08002e4a:    1964        d.      ADDS     r4,r4,r5
        0x08002e4c:    80dc        ..      STRH     r4,[r3,#6]
        0x08002e4e:    3308        .3      ADDS     r3,r3,#8
        0x08002e50:    1d00        ..      ADDS     r0,r0,#4
        0x08002e52:    4281        .B      CMP      r1,r0
        0x08002e54:    d1ef        ..      BNE      0x8002e36 ; matrix_test + 778
        0x08002e56:    0040        @.      LSLS     r0,r0,#1
        0x08002e58:    5a11        .Z      LDRH     r1,[r2,r0]
        0x08002e5a:    1949        I.      ADDS     r1,r1,r5
        0x08002e5c:    5211        .R      STRH     r1,[r2,r0]
        0x08002e5e:    1810        ..      ADDS     r0,r2,r0
        0x08002e60:    8841        A.      LDRH     r1,[r0,#2]
        0x08002e62:    1949        I.      ADDS     r1,r1,r5
        0x08002e64:    8041        A.      STRH     r1,[r0,#2]
        0x08002e66:    1d00        ..      ADDS     r0,r0,#4
        0x08002e68:    8801        ..      LDRH     r1,[r0,#0]
        0x08002e6a:    1949        I.      ADDS     r1,r1,r5
        0x08002e6c:    8001        ..      STRH     r1,[r0,#0]
        0x08002e6e:    2201        ."      MOVS     r2,#1
        0x08002e70:    9805        ..      LDR      r0,[sp,#0x14]
        0x08002e72:    2801        .(      CMP      r0,#1
        0x08002e74:    9902        ..      LDR      r1,[sp,#8]
        0x08002e76:    d800        ..      BHI      0x8002e7a ; matrix_test + 846
        0x08002e78:    4611        .F      MOV      r1,r2
        0x08002e7a:    400a        .@      ANDS     r2,r2,r1
        0x08002e7c:    9203        ..      STR      r2,[sp,#0xc]
        0x08002e7e:    2804        .(      CMP      r0,#4
        0x08002e80:    9102        ..      STR      r1,[sp,#8]
        0x08002e82:    d202        ..      BCS      0x8002e8a ; matrix_test + 862
        0x08002e84:    2000        .       MOVS     r0,#0
        0x08002e86:    9e0e        ..      LDR      r6,[sp,#0x38]
        0x08002e88:    e01a        ..      B        0x8002ec0 ; matrix_test + 916
        0x08002e8a:    2003        .       MOVS     r0,#3
        0x08002e8c:    4381        .C      BICS     r1,r1,r0
        0x08002e8e:    2200        ."      MOVS     r2,#0
        0x08002e90:    9b11        ..      LDR      r3,[sp,#0x44]
        0x08002e92:    9c12        ..      LDR      r4,[sp,#0x48]
        0x08002e94:    4610        .F      MOV      r0,r2
        0x08002e96:    9e0e        ..      LDR      r6,[sp,#0x38]
        0x08002e98:    5e9d        .^      LDRSH    r5,[r3,r2]
        0x08002e9a:    4375        uC      MULS     r5,r6,r5
        0x08002e9c:    6025        %`      STR      r5,[r4,#0]
        0x08002e9e:    2502        .%      MOVS     r5,#2
        0x08002ea0:    5f5d        ]_      LDRSH    r5,[r3,r5]
        0x08002ea2:    4375        uC      MULS     r5,r6,r5
        0x08002ea4:    6065        e`      STR      r5,[r4,#4]
        0x08002ea6:    2504        .%      MOVS     r5,#4
        0x08002ea8:    5f5d        ]_      LDRSH    r5,[r3,r5]
        0x08002eaa:    4375        uC      MULS     r5,r6,r5
        0x08002eac:    60a5        .`      STR      r5,[r4,#8]
        0x08002eae:    2506        .%      MOVS     r5,#6
        0x08002eb0:    5f5d        ]_      LDRSH    r5,[r3,r5]
        0x08002eb2:    4375        uC      MULS     r5,r6,r5
        0x08002eb4:    60e5        .`      STR      r5,[r4,#0xc]
        0x08002eb6:    3308        .3      ADDS     r3,r3,#8
        0x08002eb8:    3410        .4      ADDS     r4,r4,#0x10
        0x08002eba:    1d00        ..      ADDS     r0,r0,#4
        0x08002ebc:    4281        .B      CMP      r1,r0
        0x08002ebe:    d1eb        ..      BNE      0x8002e98 ; matrix_test + 876
        0x08002ec0:    49f7        .I      LDR      r1,[pc,#988] ; [0x80032a0] = 0xfffff000
        0x08002ec2:    9128        (.      STR      r1,[sp,#0xa0]
        0x08002ec4:    9903        ..      LDR      r1,[sp,#0xc]
        0x08002ec6:    2900        .)      CMP      r1,#0
        0x08002ec8:    d006        ..      BEQ      0x8002ed8 ; matrix_test + 940
        0x08002eca:    0041        A.      LSLS     r1,r0,#1
        0x08002ecc:    9a11        ..      LDR      r2,[sp,#0x44]
        0x08002ece:    5e51        Q^      LDRSH    r1,[r2,r1]
        0x08002ed0:    4371        qC      MULS     r1,r6,r1
        0x08002ed2:    0080        ..      LSLS     r0,r0,#2
        0x08002ed4:    9a12        ..      LDR      r2,[sp,#0x48]
        0x08002ed6:    5011        .P      STR      r1,[r2,r0]
        0x08002ed8:    9828        (.      LDR      r0,[sp,#0xa0]
        0x08002eda:    4330        0C      ORRS     r0,r0,r6
        0x08002edc:    9028        (.      STR      r0,[sp,#0xa0]
        0x08002ede:    9804        ..      LDR      r0,[sp,#0x10]
        0x08002ee0:    2800        .(      CMP      r0,#0
        0x08002ee2:    9805        ..      LDR      r0,[sp,#0x14]
        0x08002ee4:    d02f        /.      BEQ      0x8002f46 ; matrix_test + 1050
        0x08002ee6:    2103        .!      MOVS     r1,#3
        0x08002ee8:    9e27        '.      LDR      r6,[sp,#0x9c]
        0x08002eea:    4630        0F      MOV      r0,r6
        0x08002eec:    4008        .@      ANDS     r0,r0,r1
        0x08002eee:    902b        +.      STR      r0,[sp,#0xac]
        0x08002ef0:    1e70        p.      SUBS     r0,r6,#1
        0x08002ef2:    902d        -.      STR      r0,[sp,#0xb4]
        0x08002ef4:    2803        .(      CMP      r0,#3
        0x08002ef6:    912c        ,.      STR      r1,[sp,#0xb0]
        0x08002ef8:    d252        R.      BCS      0x8002fa0 ; matrix_test + 1140
        0x08002efa:    2200        ."      MOVS     r2,#0
        0x08002efc:    4610        .F      MOV      r0,r2
        0x08002efe:    4613        .F      MOV      r3,r2
        0x08002f00:    9232        2.      STR      r2,[sp,#0xc8]
        0x08002f02:    992b        +.      LDR      r1,[sp,#0xac]
        0x08002f04:    2900        .)      CMP      r1,#0
        0x08002f06:    d100        ..      BNE      0x8002f0a ; matrix_test + 990
        0x08002f08:    e1d9        ..      B        0x80032be ; 0x80032be
        0x08002f0a:    4631        1F      MOV      r1,r6
        0x08002f0c:    9c32        2.      LDR      r4,[sp,#0xc8]
        0x08002f0e:    4361        aC      MULS     r1,r4,r1
        0x08002f10:    0089        ..      LSLS     r1,r1,#2
        0x08002f12:    9c12        ..      LDR      r4,[sp,#0x48]
        0x08002f14:    1861        a.      ADDS     r1,r4,r1
        0x08002f16:    4634        4F      MOV      r4,r6
        0x08002f18:    e004        ..      B        0x8002f24 ; matrix_test + 1016
        0x08002f1a:    1818        ..      ADDS     r0,r3,r0
        0x08002f1c:    1e64        d.      SUBS     r4,r4,#1
        0x08002f1e:    4633        3F      MOV      r3,r6
        0x08002f20:    462a        *F      MOV      r2,r5
        0x08002f22:    d019        ..      BEQ      0x8002f58 ; matrix_test + 1068
        0x08002f24:    c940        @.      LDM      r1!,{r6}
        0x08002f26:    2500        .%      MOVS     r5,#0
        0x08002f28:    429e        .B      CMP      r6,r3
        0x08002f2a:    dc01        ..      BGT      0x8002f30 ; matrix_test + 1028
        0x08002f2c:    462b        +F      MOV      r3,r5
        0x08002f2e:    e000        ..      B        0x8002f32 ; matrix_test + 1030
        0x08002f30:    2301        .#      MOVS     r3,#1
        0x08002f32:    18b2        ..      ADDS     r2,r6,r2
        0x08002f34:    9f28        (.      LDR      r7,[sp,#0xa0]
        0x08002f36:    42ba        .B      CMP      r2,r7
        0x08002f38:    dd00        ..      BLE      0x8002f3c ; matrix_test + 1040
        0x08002f3a:    230a        .#      MOVS     r3,#0xa
        0x08002f3c:    9f28        (.      LDR      r7,[sp,#0xa0]
        0x08002f3e:    42ba        .B      CMP      r2,r7
        0x08002f40:    dceb        ..      BGT      0x8002f1a ; matrix_test + 1006
        0x08002f42:    4615        .F      MOV      r5,r2
        0x08002f44:    e7e9        ..      B        0x8002f1a ; matrix_test + 1006
        0x08002f46:    2804        .(      CMP      r0,#4
        0x08002f48:    9e27        '.      LDR      r6,[sp,#0x9c]
        0x08002f4a:    d300        ..      BCC      0x8002f4e ; matrix_test + 1058
        0x08002f4c:    e0af        ..      B        0x80030ae ; matrix_test + 1410
        0x08002f4e:    2200        ."      MOVS     r2,#0
        0x08002f50:    4610        .F      MOV      r0,r2
        0x08002f52:    4614        .F      MOV      r4,r2
        0x08002f54:    4615        .F      MOV      r5,r2
        0x08002f56:    e10b        ..      B        0x8003170 ; matrix_test + 1604
        0x08002f58:    992b        +.      LDR      r1,[sp,#0xac]
        0x08002f5a:    2901        .)      CMP      r1,#1
        0x08002f5c:    d100        ..      BNE      0x8002f60 ; matrix_test + 1076
        0x08002f5e:    e1ad        ..      B        0x80032bc ; 0x80032bc
        0x08002f60:    2201        ."      MOVS     r2,#1
        0x08002f62:    9932        2.      LDR      r1,[sp,#0xc8]
        0x08002f64:    9234        4.      STR      r2,[sp,#0xd0]
        0x08002f66:    4311        .C      ORRS     r1,r1,r2
        0x08002f68:    9f27        '.      LDR      r7,[sp,#0x9c]
        0x08002f6a:    4379        yC      MULS     r1,r7,r1
        0x08002f6c:    0089        ..      LSLS     r1,r1,#2
        0x08002f6e:    9b12        ..      LDR      r3,[sp,#0x48]
        0x08002f70:    185b        [.      ADDS     r3,r3,r1
        0x08002f72:    e005        ..      B        0x8002f80 ; matrix_test + 1108
        0x08002f74:    1830        0.      ADDS     r0,r6,r0
        0x08002f76:    1e7f        ..      SUBS     r7,r7,#1
        0x08002f78:    460e        .F      MOV      r6,r1
        0x08002f7a:    4625        %F      MOV      r5,r4
        0x08002f7c:    d100        ..      BNE      0x8002f80 ; matrix_test + 1108
        0x08002f7e:    e103        ..      B        0x8003188 ; matrix_test + 1628
        0x08002f80:    cb02        ..      LDM      r3!,{r1}
        0x08002f82:    2400        .$      MOVS     r4,#0
        0x08002f84:    42b1        .B      CMP      r1,r6
        0x08002f86:    9e34        4.      LDR      r6,[sp,#0xd0]
        0x08002f88:    dc00        ..      BGT      0x8002f8c ; matrix_test + 1120
        0x08002f8a:    4626        &F      MOV      r6,r4
        0x08002f8c:    194d        M.      ADDS     r5,r1,r5
        0x08002f8e:    9a28        (.      LDR      r2,[sp,#0xa0]
        0x08002f90:    4295        .B      CMP      r5,r2
        0x08002f92:    dd00        ..      BLE      0x8002f96 ; matrix_test + 1130
        0x08002f94:    260a        .&      MOVS     r6,#0xa
        0x08002f96:    9a28        (.      LDR      r2,[sp,#0xa0]
        0x08002f98:    4295        .B      CMP      r5,r2
        0x08002f9a:    dceb        ..      BGT      0x8002f74 ; matrix_test + 1096
        0x08002f9c:    462c        ,F      MOV      r4,r5
        0x08002f9e:    e7e9        ..      B        0x8002f74 ; matrix_test + 1096
        0x08002fa0:    200c        .       MOVS     r0,#0xc
        0x08002fa2:    4370        pC      MULS     r0,r6,r0
        0x08002fa4:    9031        1.      STR      r0,[sp,#0xc4]
        0x08002fa6:    4630        0F      MOV      r0,r6
        0x08002fa8:    4388        .C      BICS     r0,r0,r1
        0x08002faa:    9032        2.      STR      r0,[sp,#0xc8]
        0x08002fac:    00f0        ..      LSLS     r0,r6,#3
        0x08002fae:    9030        0.      STR      r0,[sp,#0xc0]
        0x08002fb0:    00b0        ..      LSLS     r0,r6,#2
        0x08002fb2:    902f        /.      STR      r0,[sp,#0xbc]
        0x08002fb4:    0130        0.      LSLS     r0,r6,#4
        0x08002fb6:    902e        ..      STR      r0,[sp,#0xb8]
        0x08002fb8:    2400        .$      MOVS     r4,#0
        0x08002fba:    9d12        ..      LDR      r5,[sp,#0x48]
        0x08002fbc:    4620         F      MOV      r0,r4
        0x08002fbe:    4623        #F      MOV      r3,r4
        0x08002fc0:    4622        "F      MOV      r2,r4
        0x08002fc2:    e008        ..      B        0x8002fd6 ; matrix_test + 1194
        0x08002fc4:    992e        ..      LDR      r1,[sp,#0xb8]
        0x08002fc6:    9d34        4.      LDR      r5,[sp,#0xd0]
        0x08002fc8:    186d        m.      ADDS     r5,r5,r1
        0x08002fca:    9c33        3.      LDR      r4,[sp,#0xcc]
        0x08002fcc:    1d24        $.      ADDS     r4,r4,#4
        0x08002fce:    9932        2.      LDR      r1,[sp,#0xc8]
        0x08002fd0:    428c        .B      CMP      r4,r1
        0x08002fd2:    9e27        '.      LDR      r6,[sp,#0x9c]
        0x08002fd4:    d095        ..      BEQ      0x8002f02 ; matrix_test + 982
        0x08002fd6:    9433        3.      STR      r4,[sp,#0xcc]
        0x08002fd8:    9534        4.      STR      r5,[sp,#0xd0]
        0x08002fda:    4629        )F      MOV      r1,r5
        0x08002fdc:    4634        4F      MOV      r4,r6
        0x08002fde:    e004        ..      B        0x8002fea ; matrix_test + 1214
        0x08002fe0:    1818        ..      ADDS     r0,r3,r0
        0x08002fe2:    1e64        d.      SUBS     r4,r4,#1
        0x08002fe4:    463b        ;F      MOV      r3,r7
        0x08002fe6:    4632        2F      MOV      r2,r6
        0x08002fe8:    d010        ..      BEQ      0x800300c ; matrix_test + 1248
        0x08002fea:    c980        ..      LDM      r1!,{r7}
        0x08002fec:    2600        .&      MOVS     r6,#0
        0x08002fee:    429f        .B      CMP      r7,r3
        0x08002ff0:    dc01        ..      BGT      0x8002ff6 ; matrix_test + 1226
        0x08002ff2:    4633        3F      MOV      r3,r6
        0x08002ff4:    e000        ..      B        0x8002ff8 ; matrix_test + 1228
        0x08002ff6:    2301        .#      MOVS     r3,#1
        0x08002ff8:    18ba        ..      ADDS     r2,r7,r2
        0x08002ffa:    9d28        (.      LDR      r5,[sp,#0xa0]
        0x08002ffc:    42aa        .B      CMP      r2,r5
        0x08002ffe:    dd00        ..      BLE      0x8003002 ; matrix_test + 1238
        0x08003000:    230a        .#      MOVS     r3,#0xa
        0x08003002:    9d28        (.      LDR      r5,[sp,#0xa0]
        0x08003004:    42aa        .B      CMP      r2,r5
        0x08003006:    dceb        ..      BGT      0x8002fe0 ; matrix_test + 1204
        0x08003008:    4616        .F      MOV      r6,r2
        0x0800300a:    e7e9        ..      B        0x8002fe0 ; matrix_test + 1204
        0x0800300c:    992f        /.      LDR      r1,[sp,#0xbc]
        0x0800300e:    9c27        '.      LDR      r4,[sp,#0x9c]
        0x08003010:    e005        ..      B        0x800301e ; matrix_test + 1266
        0x08003012:    1838        8.      ADDS     r0,r7,r0
        0x08003014:    1d09        ..      ADDS     r1,r1,#4
        0x08003016:    1e64        d.      SUBS     r4,r4,#1
        0x08003018:    461f        .F      MOV      r7,r3
        0x0800301a:    4616        .F      MOV      r6,r2
        0x0800301c:    d011        ..      BEQ      0x8003042 ; matrix_test + 1302
        0x0800301e:    9a34        4.      LDR      r2,[sp,#0xd0]
        0x08003020:    5853        SX      LDR      r3,[r2,r1]
        0x08003022:    2200        ."      MOVS     r2,#0
        0x08003024:    42bb        .B      CMP      r3,r7
        0x08003026:    dc01        ..      BGT      0x800302c ; matrix_test + 1280
        0x08003028:    4617        .F      MOV      r7,r2
        0x0800302a:    e000        ..      B        0x800302e ; matrix_test + 1282
        0x0800302c:    2701        .'      MOVS     r7,#1
        0x0800302e:    199e        ..      ADDS     r6,r3,r6
        0x08003030:    9d28        (.      LDR      r5,[sp,#0xa0]
        0x08003032:    42ae        .B      CMP      r6,r5
        0x08003034:    dd00        ..      BLE      0x8003038 ; matrix_test + 1292
        0x08003036:    270a        .'      MOVS     r7,#0xa
        0x08003038:    9d28        (.      LDR      r5,[sp,#0xa0]
        0x0800303a:    42ae        .B      CMP      r6,r5
        0x0800303c:    dce9        ..      BGT      0x8003012 ; matrix_test + 1254
        0x0800303e:    4632        2F      MOV      r2,r6
        0x08003040:    e7e7        ..      B        0x8003012 ; matrix_test + 1254
        0x08003042:    9930        0.      LDR      r1,[sp,#0xc0]
        0x08003044:    9c27        '.      LDR      r4,[sp,#0x9c]
        0x08003046:    e005        ..      B        0x8003054 ; matrix_test + 1320
        0x08003048:    1818        ..      ADDS     r0,r3,r0
        0x0800304a:    1d09        ..      ADDS     r1,r1,#4
        0x0800304c:    1e64        d.      SUBS     r4,r4,#1
        0x0800304e:    463b        ;F      MOV      r3,r7
        0x08003050:    4632        2F      MOV      r2,r6
        0x08003052:    d011        ..      BEQ      0x8003078 ; matrix_test + 1356
        0x08003054:    9d34        4.      LDR      r5,[sp,#0xd0]
        0x08003056:    586f        oX      LDR      r7,[r5,r1]
        0x08003058:    2600        .&      MOVS     r6,#0
        0x0800305a:    429f        .B      CMP      r7,r3
        0x0800305c:    dc01        ..      BGT      0x8003062 ; matrix_test + 1334
        0x0800305e:    4633        3F      MOV      r3,r6
        0x08003060:    e000        ..      B        0x8003064 ; matrix_test + 1336
        0x08003062:    2301        .#      MOVS     r3,#1
        0x08003064:    18ba        ..      ADDS     r2,r7,r2
        0x08003066:    9d28        (.      LDR      r5,[sp,#0xa0]
        0x08003068:    42aa        .B      CMP      r2,r5
        0x0800306a:    dd00        ..      BLE      0x800306e ; matrix_test + 1346
        0x0800306c:    230a        .#      MOVS     r3,#0xa
        0x0800306e:    9d28        (.      LDR      r5,[sp,#0xa0]
        0x08003070:    42aa        .B      CMP      r2,r5
        0x08003072:    dce9        ..      BGT      0x8003048 ; matrix_test + 1308
        0x08003074:    4616        .F      MOV      r6,r2
        0x08003076:    e7e7        ..      B        0x8003048 ; matrix_test + 1308
        0x08003078:    9931        1.      LDR      r1,[sp,#0xc4]
        0x0800307a:    9c27        '.      LDR      r4,[sp,#0x9c]
        0x0800307c:    e005        ..      B        0x800308a ; matrix_test + 1374
        0x0800307e:    1838        8.      ADDS     r0,r7,r0
        0x08003080:    1d09        ..      ADDS     r1,r1,#4
        0x08003082:    1e64        d.      SUBS     r4,r4,#1
        0x08003084:    461f        .F      MOV      r7,r3
        0x08003086:    4616        .F      MOV      r6,r2
        0x08003088:    d09c        ..      BEQ      0x8002fc4 ; matrix_test + 1176
        0x0800308a:    9a34        4.      LDR      r2,[sp,#0xd0]
        0x0800308c:    5853        SX      LDR      r3,[r2,r1]
        0x0800308e:    2200        ."      MOVS     r2,#0
        0x08003090:    42bb        .B      CMP      r3,r7
        0x08003092:    dc01        ..      BGT      0x8003098 ; matrix_test + 1388
        0x08003094:    4617        .F      MOV      r7,r2
        0x08003096:    e000        ..      B        0x800309a ; matrix_test + 1390
        0x08003098:    2701        .'      MOVS     r7,#1
        0x0800309a:    199e        ..      ADDS     r6,r3,r6
        0x0800309c:    9d28        (.      LDR      r5,[sp,#0xa0]
        0x0800309e:    42ae        .B      CMP      r6,r5
        0x080030a0:    dd00        ..      BLE      0x80030a4 ; matrix_test + 1400
        0x080030a2:    270a        .'      MOVS     r7,#0xa
        0x080030a4:    9d28        (.      LDR      r5,[sp,#0xa0]
        0x080030a6:    42ae        .B      CMP      r6,r5
        0x080030a8:    dce9        ..      BGT      0x800307e ; matrix_test + 1362
        0x080030aa:    4632        2F      MOV      r2,r6
        0x080030ac:    e7e7        ..      B        0x800307e ; matrix_test + 1362
        0x080030ae:    2003        .       MOVS     r0,#3
        0x080030b0:    9c02        ..      LDR      r4,[sp,#8]
        0x080030b2:    4384        .C      BICS     r4,r4,r0
        0x080030b4:    2200        ."      MOVS     r2,#0
        0x080030b6:    9d12        ..      LDR      r5,[sp,#0x48]
        0x080030b8:    942c        ,.      STR      r4,[sp,#0xb0]
        0x080030ba:    4610        .F      MOV      r0,r2
        0x080030bc:    9232        2.      STR      r2,[sp,#0xc8]
        0x080030be:    9233        3.      STR      r2,[sp,#0xcc]
        0x080030c0:    e008        ..      B        0x80030d4 ; matrix_test + 1448
        0x080030c2:    1808        ..      ADDS     r0,r1,r0
        0x080030c4:    992e        ..      LDR      r1,[sp,#0xb8]
        0x080030c6:    1808        ..      ADDS     r0,r1,r0
        0x080030c8:    992f        /.      LDR      r1,[sp,#0xbc]
        0x080030ca:    1808        ..      ADDS     r0,r1,r0
        0x080030cc:    1838        8.      ADDS     r0,r7,r0
        0x080030ce:    3510        .5      ADDS     r5,r5,#0x10
        0x080030d0:    1f24        $.      SUBS     r4,r4,#4
        0x080030d2:    d04a        J.      BEQ      0x800316a ; matrix_test + 1598
        0x080030d4:    9431        1.      STR      r4,[sp,#0xc4]
        0x080030d6:    686c        lh      LDR      r4,[r5,#4]
        0x080030d8:    68af        .h      LDR      r7,[r5,#8]
        0x080030da:    2101        .!      MOVS     r1,#1
        0x080030dc:    42a7        .B      CMP      r7,r4
        0x080030de:    9134        4.      STR      r1,[sp,#0xd0]
        0x080030e0:    dc00        ..      BGT      0x80030e4 ; matrix_test + 1464
        0x080030e2:    9933        3.      LDR      r1,[sp,#0xcc]
        0x080030e4:    912f        /.      STR      r1,[sp,#0xbc]
        0x080030e6:    682e        .h      LDR      r6,[r5,#0]
        0x080030e8:    18b2        ..      ADDS     r2,r6,r2
        0x080030ea:    9928        (.      LDR      r1,[sp,#0xa0]
        0x080030ec:    428a        .B      CMP      r2,r1
        0x080030ee:    4623        #F      MOV      r3,r4
        0x080030f0:    dc00        ..      BGT      0x80030f4 ; matrix_test + 1480
        0x080030f2:    18a3        ..      ADDS     r3,r4,r2
        0x080030f4:    922d        -.      STR      r2,[sp,#0xb4]
        0x080030f6:    9a28        (.      LDR      r2,[sp,#0xa0]
        0x080030f8:    4293        .B      CMP      r3,r2
        0x080030fa:    463a        :F      MOV      r2,r7
        0x080030fc:    dc00        ..      BGT      0x8003100 ; matrix_test + 1492
        0x080030fe:    18fa        ..      ADDS     r2,r7,r3
        0x08003100:    9730        0.      STR      r7,[sp,#0xc0]
        0x08003102:    270a        .'      MOVS     r7,#0xa
        0x08003104:    9928        (.      LDR      r1,[sp,#0xa0]
        0x08003106:    428a        .B      CMP      r2,r1
        0x08003108:    4639        9F      MOV      r1,r7
        0x0800310a:    dc00        ..      BGT      0x800310e ; matrix_test + 1506
        0x0800310c:    992f        /.      LDR      r1,[sp,#0xbc]
        0x0800310e:    912f        /.      STR      r1,[sp,#0xbc]
        0x08003110:    42b4        .B      CMP      r4,r6
        0x08003112:    9c34        4.      LDR      r4,[sp,#0xd0]
        0x08003114:    dc00        ..      BGT      0x8003118 ; matrix_test + 1516
        0x08003116:    9c33        3.      LDR      r4,[sp,#0xcc]
        0x08003118:    9928        (.      LDR      r1,[sp,#0xa0]
        0x0800311a:    428b        .B      CMP      r3,r1
        0x0800311c:    4639        9F      MOV      r1,r7
        0x0800311e:    dc00        ..      BGT      0x8003122 ; matrix_test + 1526
        0x08003120:    4621        !F      MOV      r1,r4
        0x08003122:    912e        ..      STR      r1,[sp,#0xb8]
        0x08003124:    9932        2.      LDR      r1,[sp,#0xc8]
        0x08003126:    428e        .B      CMP      r6,r1
        0x08003128:    9b34        4.      LDR      r3,[sp,#0xd0]
        0x0800312a:    dc00        ..      BGT      0x800312e ; matrix_test + 1538
        0x0800312c:    9b33        3.      LDR      r3,[sp,#0xcc]
        0x0800312e:    9928        (.      LDR      r1,[sp,#0xa0]
        0x08003130:    9c2d        -.      LDR      r4,[sp,#0xb4]
        0x08003132:    428c        .B      CMP      r4,r1
        0x08003134:    4639        9F      MOV      r1,r7
        0x08003136:    9e27        '.      LDR      r6,[sp,#0x9c]
        0x08003138:    dc00        ..      BGT      0x800313c ; matrix_test + 1552
        0x0800313a:    4619        .F      MOV      r1,r3
        0x0800313c:    68ec        .h      LDR      r4,[r5,#0xc]
        0x0800313e:    9b28        (.      LDR      r3,[sp,#0xa0]
        0x08003140:    429a        .B      CMP      r2,r3
        0x08003142:    4623        #F      MOV      r3,r4
        0x08003144:    dc00        ..      BGT      0x8003148 ; matrix_test + 1564
        0x08003146:    18a3        ..      ADDS     r3,r4,r2
        0x08003148:    9a30        0.      LDR      r2,[sp,#0xc0]
        0x0800314a:    4294        .B      CMP      r4,r2
        0x0800314c:    dc01        ..      BGT      0x8003152 ; matrix_test + 1574
        0x0800314e:    9a33        3.      LDR      r2,[sp,#0xcc]
        0x08003150:    9234        4.      STR      r2,[sp,#0xd0]
        0x08003152:    9432        2.      STR      r4,[sp,#0xc8]
        0x08003154:    9a28        (.      LDR      r2,[sp,#0xa0]
        0x08003156:    4293        .B      CMP      r3,r2
        0x08003158:    dc00        ..      BGT      0x800315c ; matrix_test + 1584
        0x0800315a:    9f34        4.      LDR      r7,[sp,#0xd0]
        0x0800315c:    9a28        (.      LDR      r2,[sp,#0xa0]
        0x0800315e:    4293        .B      CMP      r3,r2
        0x08003160:    9a33        3.      LDR      r2,[sp,#0xcc]
        0x08003162:    9c31        1.      LDR      r4,[sp,#0xc4]
        0x08003164:    dcad        ..      BGT      0x80030c2 ; matrix_test + 1430
        0x08003166:    461a        .F      MOV      r2,r3
        0x08003168:    e7ab        ..      B        0x80030c2 ; matrix_test + 1430
        0x0800316a:    4615        .F      MOV      r5,r2
        0x0800316c:    9a2c        ,.      LDR      r2,[sp,#0xb0]
        0x0800316e:    9c32        2.      LDR      r4,[sp,#0xc8]
        0x08003170:    9903        ..      LDR      r1,[sp,#0xc]
        0x08003172:    2900        .)      CMP      r1,#0
        0x08003174:    d100        ..      BNE      0x8003178 ; matrix_test + 1612
        0x08003176:    e0a2        ..      B        0x80032be ; 0x80032be
        0x08003178:    0091        ..      LSLS     r1,r2,#2
        0x0800317a:    9a12        ..      LDR      r2,[sp,#0x48]
        0x0800317c:    1852        R.      ADDS     r2,r2,r1
        0x0800317e:    6812        .h      LDR      r2,[r2,#0]
        0x08003180:    42a2        .B      CMP      r2,r4
        0x08003182:    dc1b        ..      BGT      0x80031bc ; matrix_test + 1680
        0x08003184:    2100        .!      MOVS     r1,#0
        0x08003186:    e01a        ..      B        0x80031be ; matrix_test + 1682
        0x08003188:    9a2b        +.      LDR      r2,[sp,#0xac]
        0x0800318a:    2a02        .*      CMP      r2,#2
        0x0800318c:    d100        ..      BNE      0x8003190 ; matrix_test + 1636
        0x0800318e:    e095        ..      B        0x80032bc ; 0x80032bc
        0x08003190:    9a2d        -.      LDR      r2,[sp,#0xb4]
        0x08003192:    2a03        .*      CMP      r2,#3
        0x08003194:    9e27        '.      LDR      r6,[sp,#0x9c]
        0x08003196:    d219        ..      BCS      0x80031cc ; matrix_test + 1696
        0x08003198:    2500        .%      MOVS     r5,#0
        0x0800319a:    9a2b        +.      LDR      r2,[sp,#0xac]
        0x0800319c:    2a00        .*      CMP      r2,#0
        0x0800319e:    d100        ..      BNE      0x80031a2 ; matrix_test + 1654
        0x080031a0:    e08d        ..      B        0x80032be ; 0x80032be
        0x080031a2:    2202        ."      MOVS     r2,#2
        0x080031a4:    9b32        2.      LDR      r3,[sp,#0xc8]
        0x080031a6:    4313        .C      ORRS     r3,r3,r2
        0x080031a8:    4373        sC      MULS     r3,r6,r3
        0x080031aa:    009a        ..      LSLS     r2,r3,#2
        0x080031ac:    9b12        ..      LDR      r3,[sp,#0x48]
        0x080031ae:    189a        ..      ADDS     r2,r3,r2
        0x080031b0:    00ad        ..      LSLS     r5,r5,#2
        0x080031b2:    5953        SY      LDR      r3,[r2,r5]
        0x080031b4:    428b        .B      CMP      r3,r1
        0x080031b6:    dc75        u.      BGT      0x80032a4 ; 0x80032a4
        0x080031b8:    2600        .&      MOVS     r6,#0
        0x080031ba:    e074        t.      B        0x80032a6 ; 0x80032a6
        0x080031bc:    2101        .!      MOVS     r1,#1
        0x080031be:    1952        R.      ADDS     r2,r2,r5
        0x080031c0:    9b28        (.      LDR      r3,[sp,#0xa0]
        0x080031c2:    429a        .B      CMP      r2,r3
        0x080031c4:    dd00        ..      BLE      0x80031c8 ; matrix_test + 1692
        0x080031c6:    210a        .!      MOVS     r1,#0xa
        0x080031c8:    1808        ..      ADDS     r0,r1,r0
        0x080031ca:    e078        x.      B        0x80032be ; 0x80032be
        0x080031cc:    4633        3F      MOV      r3,r6
        0x080031ce:    9a2c        ,.      LDR      r2,[sp,#0xb0]
        0x080031d0:    4393        .C      BICS     r3,r3,r2
        0x080031d2:    932a        *.      STR      r3,[sp,#0xa8]
        0x080031d4:    9a32        2.      LDR      r2,[sp,#0xc8]
        0x080031d6:    1c92        ..      ADDS     r2,r2,#2
        0x080031d8:    4372        rC      MULS     r2,r6,r2
        0x080031da:    0092        ..      LSLS     r2,r2,#2
        0x080031dc:    9b12        ..      LDR      r3,[sp,#0x48]
        0x080031de:    189a        ..      ADDS     r2,r3,r2
        0x080031e0:    2500        .%      MOVS     r5,#0
        0x080031e2:    9533        3.      STR      r5,[sp,#0xcc]
        0x080031e4:    e00b        ..      B        0x80031fe ; matrix_test + 1746
        0x080031e6:    1818        ..      ADDS     r0,r3,r0
        0x080031e8:    9b31        1.      LDR      r3,[sp,#0xc4]
        0x080031ea:    1818        ..      ADDS     r0,r3,r0
        0x080031ec:    9b2e        ..      LDR      r3,[sp,#0xb8]
        0x080031ee:    1818        ..      ADDS     r0,r3,r0
        0x080031f0:    1838        8.      ADDS     r0,r7,r0
        0x080031f2:    3210        .2      ADDS     r2,r2,#0x10
        0x080031f4:    9d30        0.      LDR      r5,[sp,#0xc0]
        0x080031f6:    1d2d        -.      ADDS     r5,r5,#4
        0x080031f8:    9b2a        *.      LDR      r3,[sp,#0xa8]
        0x080031fa:    42ab        .B      CMP      r3,r5
        0x080031fc:    d0cd        ..      BEQ      0x800319a ; matrix_test + 1646
        0x080031fe:    9530        0.      STR      r5,[sp,#0xc0]
        0x08003200:    6853        Sh      LDR      r3,[r2,#4]
        0x08003202:    6897        .h      LDR      r7,[r2,#8]
        0x08003204:    2501        .%      MOVS     r5,#1
        0x08003206:    429f        .B      CMP      r7,r3
        0x08003208:    9534        4.      STR      r5,[sp,#0xd0]
        0x0800320a:    dc00        ..      BGT      0x800320e ; matrix_test + 1762
        0x0800320c:    9d33        3.      LDR      r5,[sp,#0xcc]
        0x0800320e:    952e        ..      STR      r5,[sp,#0xb8]
        0x08003210:    6815        .h      LDR      r5,[r2,#0]
        0x08003212:    9531        1.      STR      r5,[sp,#0xc4]
        0x08003214:    192d        -.      ADDS     r5,r5,r4
        0x08003216:    9c28        (.      LDR      r4,[sp,#0xa0]
        0x08003218:    42a5        .B      CMP      r5,r4
        0x0800321a:    461e        .F      MOV      r6,r3
        0x0800321c:    dc00        ..      BGT      0x8003220 ; matrix_test + 1780
        0x0800321e:    195e        ^.      ADDS     r6,r3,r5
        0x08003220:    952c        ,.      STR      r5,[sp,#0xb0]
        0x08003222:    9c28        (.      LDR      r4,[sp,#0xa0]
        0x08003224:    42a6        .B      CMP      r6,r4
        0x08003226:    463c        <F      MOV      r4,r7
        0x08003228:    dc00        ..      BGT      0x800322c ; matrix_test + 1792
        0x0800322a:    19bc        ..      ADDS     r4,r7,r6
        0x0800322c:    972f        /.      STR      r7,[sp,#0xbc]
        0x0800322e:    250a        .%      MOVS     r5,#0xa
        0x08003230:    4627        'F      MOV      r7,r4
        0x08003232:    9c28        (.      LDR      r4,[sp,#0xa0]
        0x08003234:    972d        -.      STR      r7,[sp,#0xb4]
        0x08003236:    42a7        .B      CMP      r7,r4
        0x08003238:    462f        /F      MOV      r7,r5
        0x0800323a:    462c        ,F      MOV      r4,r5
        0x0800323c:    dc00        ..      BGT      0x8003240 ; matrix_test + 1812
        0x0800323e:    9c2e        ..      LDR      r4,[sp,#0xb8]
        0x08003240:    942e        ..      STR      r4,[sp,#0xb8]
        0x08003242:    9c31        1.      LDR      r4,[sp,#0xc4]
        0x08003244:    42a3        .B      CMP      r3,r4
        0x08003246:    9b34        4.      LDR      r3,[sp,#0xd0]
        0x08003248:    dc00        ..      BGT      0x800324c ; matrix_test + 1824
        0x0800324a:    9b33        3.      LDR      r3,[sp,#0xcc]
        0x0800324c:    9c28        (.      LDR      r4,[sp,#0xa0]
        0x0800324e:    42a6        .B      CMP      r6,r4
        0x08003250:    463c        <F      MOV      r4,r7
        0x08003252:    9d2c        ,.      LDR      r5,[sp,#0xb0]
        0x08003254:    dc00        ..      BGT      0x8003258 ; matrix_test + 1836
        0x08003256:    461c        .F      MOV      r4,r3
        0x08003258:    9b31        1.      LDR      r3,[sp,#0xc4]
        0x0800325a:    428b        .B      CMP      r3,r1
        0x0800325c:    9934        4.      LDR      r1,[sp,#0xd0]
        0x0800325e:    9e27        '.      LDR      r6,[sp,#0x9c]
        0x08003260:    dc00        ..      BGT      0x8003264 ; matrix_test + 1848
        0x08003262:    9933        3.      LDR      r1,[sp,#0xcc]
        0x08003264:    9431        1.      STR      r4,[sp,#0xc4]
        0x08003266:    9b28        (.      LDR      r3,[sp,#0xa0]
        0x08003268:    429d        .B      CMP      r5,r3
        0x0800326a:    463b        ;F      MOV      r3,r7
        0x0800326c:    dc00        ..      BGT      0x8003270 ; matrix_test + 1860
        0x0800326e:    460b        .F      MOV      r3,r1
        0x08003270:    68d1        .h      LDR      r1,[r2,#0xc]
        0x08003272:    9c28        (.      LDR      r4,[sp,#0xa0]
        0x08003274:    9d2d        -.      LDR      r5,[sp,#0xb4]
        0x08003276:    42a5        .B      CMP      r5,r4
        0x08003278:    462c        ,F      MOV      r4,r5
        0x0800327a:    460d        .F      MOV      r5,r1
        0x0800327c:    dc00        ..      BGT      0x8003280 ; matrix_test + 1876
        0x0800327e:    190d        ..      ADDS     r5,r1,r4
        0x08003280:    9c2f        /.      LDR      r4,[sp,#0xbc]
        0x08003282:    42a1        .B      CMP      r1,r4
        0x08003284:    dc01        ..      BGT      0x800328a ; matrix_test + 1886
        0x08003286:    9c33        3.      LDR      r4,[sp,#0xcc]
        0x08003288:    9434        4.      STR      r4,[sp,#0xd0]
        0x0800328a:    9c28        (.      LDR      r4,[sp,#0xa0]
        0x0800328c:    42a5        .B      CMP      r5,r4
        0x0800328e:    dc00        ..      BGT      0x8003292 ; matrix_test + 1894
        0x08003290:    9f34        4.      LDR      r7,[sp,#0xd0]
        0x08003292:    9c28        (.      LDR      r4,[sp,#0xa0]
        0x08003294:    42a5        .B      CMP      r5,r4
        0x08003296:    9c33        3.      LDR      r4,[sp,#0xcc]
        0x08003298:    dca5        ..      BGT      0x80031e6 ; matrix_test + 1722
        0x0800329a:    462c        ,F      MOV      r4,r5
        0x0800329c:    e7a3        ..      B        0x80031e6 ; matrix_test + 1722
        0x0800329e:    46c0        .F      MOV      r8,r8
    $d
    __arm_cp.8_2
        0x080032a0:    fffff000    ....    DCD    4294963200
    $t
        0x080032a4:    2601        .&      MOVS     r6,#1
        0x080032a6:    1919        ..      ADDS     r1,r3,r4
        0x080032a8:    9c28        (.      LDR      r4,[sp,#0xa0]
        0x080032aa:    42a1        .B      CMP      r1,r4
        0x080032ac:    dd00        ..      BLE      0x80032b0 ; 0x80032b0
        0x080032ae:    260a        .&      MOVS     r6,#0xa
        0x080032b0:    1830        0.      ADDS     r0,r6,r0
        0x080032b2:    9c2b        +.      LDR      r4,[sp,#0xac]
        0x080032b4:    2c01        .,      CMP      r4,#1
        0x080032b6:    d001        ..      BEQ      0x80032bc ; 0x80032bc
        0x080032b8:    f002f9df    ....    BL       0x800567a ; 0x800567a
        0x080032bc:    9e27        '.      LDR      r6,[sp,#0x9c]
        0x080032be:    b200        ..      SXTH     r0,r0
        0x080032c0:    2700        .'      MOVS     r7,#0
        0x080032c2:    4639        9F      MOV      r1,r7
        0x080032c4:    f7fdfe1e    ....    BL       crc16 ; 0x8000f04
        0x080032c8:    9001        ..      STR      r0,[sp,#4]
        0x080032ca:    2203        ."      MOVS     r2,#3
        0x080032cc:    4631        1F      MOV      r1,r6
        0x080032ce:    4011        .@      ANDS     r1,r1,r2
        0x080032d0:    1e70        p.      SUBS     r0,r6,#1
        0x080032d2:    4b09        .K      LDR      r3,[pc,#36] ; [0x80032f8] = 0x7ffffffc
        0x080032d4:    931a        ..      STR      r3,[sp,#0x68]
        0x080032d6:    9013        ..      STR      r0,[sp,#0x4c]
        0x080032d8:    2803        .(      CMP      r0,#3
        0x080032da:    910f        ..      STR      r1,[sp,#0x3c]
        0x080032dc:    921c        ..      STR      r2,[sp,#0x70]
        0x080032de:    d20d        ..      BCS      0x80032fc ; 0x80032fc
        0x080032e0:    4248        HB      RSBS     r0,r1,#0
        0x080032e2:    4148        HA      ADCS     r0,r0,r1
        0x080032e4:    9010        ..      STR      r0,[sp,#0x40]
        0x080032e6:    2900        .)      CMP      r1,#0
        0x080032e8:    9805        ..      LDR      r0,[sp,#0x14]
        0x080032ea:    d100        ..      BNE      0x80032ee ; 0x80032ee
        0x080032ec:    e2b0        ..      B        0x8003850 ; 0x8003850
        0x080032ee:    2700        .'      MOVS     r7,#0
        0x080032f0:    9911        ..      LDR      r1,[sp,#0x44]
        0x080032f2:    4638        8F      MOV      r0,r7
        0x080032f4:    463c        <F      MOV      r4,r7
        0x080032f6:    e2de        ..      B        0x80038b6 ; 0x80038b6
    $d
        0x080032f8:    7ffffffc    ....    DCD    2147483644
    $t
        0x080032fc:    1f30        0.      SUBS     r0,r6,#4
        0x080032fe:    0881        ..      LSRS     r1,r0,#2
        0x08003300:    1c49        I.      ADDS     r1,r1,#1
        0x08003302:    911f        ..      STR      r1,[sp,#0x7c]
        0x08003304:    4011        .@      ANDS     r1,r1,r2
        0x08003306:    9100        ..      STR      r1,[sp,#0]
        0x08003308:    280c        .(      CMP      r0,#0xc
        0x0800330a:    d200        ..      BCS      0x800330e ; 0x800330e
        0x0800330c:    e177        w.      B        0x80035fe ; 0x80035fe
        0x0800330e:    2018        .       MOVS     r0,#0x18
        0x08003310:    4370        pC      MULS     r0,r6,r0
        0x08003312:    901e        ..      STR      r0,[sp,#0x78]
        0x08003314:    201a        .       MOVS     r0,#0x1a
        0x08003316:    4370        pC      MULS     r0,r6,r0
        0x08003318:    901d        ..      STR      r0,[sp,#0x74]
        0x0800331a:    201c        .       MOVS     r0,#0x1c
        0x0800331c:    4370        pC      MULS     r0,r6,r0
        0x0800331e:    901b        ..      STR      r0,[sp,#0x6c]
        0x08003320:    201e        .       MOVS     r0,#0x1e
        0x08003322:    4370        pC      MULS     r0,r6,r0
        0x08003324:    9019        ..      STR      r0,[sp,#0x64]
        0x08003326:    2012        .       MOVS     r0,#0x12
        0x08003328:    4370        pC      MULS     r0,r6,r0
        0x0800332a:    9018        ..      STR      r0,[sp,#0x60]
        0x0800332c:    2014        .       MOVS     r0,#0x14
        0x0800332e:    4370        pC      MULS     r0,r6,r0
        0x08003330:    9017        ..      STR      r0,[sp,#0x5c]
        0x08003332:    2016        .       MOVS     r0,#0x16
        0x08003334:    4370        pC      MULS     r0,r6,r0
        0x08003336:    9016        ..      STR      r0,[sp,#0x58]
        0x08003338:    200a        .       MOVS     r0,#0xa
        0x0800333a:    9015        ..      STR      r0,[sp,#0x54]
        0x0800333c:    4370        pC      MULS     r0,r6,r0
        0x0800333e:    9010        ..      STR      r0,[sp,#0x40]
        0x08003340:    200c        .       MOVS     r0,#0xc
        0x08003342:    900d        ..      STR      r0,[sp,#0x34]
        0x08003344:    4370        pC      MULS     r0,r6,r0
        0x08003346:    900c        ..      STR      r0,[sp,#0x30]
        0x08003348:    200e        .       MOVS     r0,#0xe
        0x0800334a:    900b        ..      STR      r0,[sp,#0x2c]
        0x0800334c:    4370        pC      MULS     r0,r6,r0
        0x0800334e:    900a        ..      STR      r0,[sp,#0x28]
        0x08003350:    2006        .       MOVS     r0,#6
        0x08003352:    9009        ..      STR      r0,[sp,#0x24]
        0x08003354:    4370        pC      MULS     r0,r6,r0
        0x08003356:    902a        *.      STR      r0,[sp,#0xa8]
        0x08003358:    4809        .H      LDR      r0,[pc,#36] ; [0x8003380] = 0x7ffffffc
        0x0800335a:    991f        ..      LDR      r1,[sp,#0x7c]
        0x0800335c:    4001        .@      ANDS     r1,r1,r0
        0x0800335e:    911f        ..      STR      r1,[sp,#0x7c]
        0x08003360:    0130        0.      LSLS     r0,r6,#4
        0x08003362:    9008        ..      STR      r0,[sp,#0x20]
        0x08003364:    00f0        ..      LSLS     r0,r6,#3
        0x08003366:    9007        ..      STR      r0,[sp,#0x1c]
        0x08003368:    0070        p.      LSLS     r0,r6,#1
        0x0800336a:    9029        ).      STR      r0,[sp,#0xa4]
        0x0800336c:    00b0        ..      LSLS     r0,r6,#2
        0x0800336e:    9026        &.      STR      r0,[sp,#0x98]
        0x08003370:    0170        p.      LSLS     r0,r6,#5
        0x08003372:    9006        ..      STR      r0,[sp,#0x18]
        0x08003374:    2100        .!      MOVS     r1,#0
        0x08003376:    9a11        ..      LDR      r2,[sp,#0x44]
        0x08003378:    460f        .F      MOV      r7,r1
        0x0800337a:    460b        .F      MOV      r3,r1
        0x0800337c:    912f        /.      STR      r1,[sp,#0xbc]
        0x0800337e:    e001        ..      B        0x8003384 ; 0x8003384
    $d
    __arm_cp.8_4
        0x08003380:    7ffffffc    ....    DCD    2147483644
    $t
        0x08003384:    9324        $.      STR      r3,[sp,#0x90]
        0x08003386:    463b        ;F      MOV      r3,r7
        0x08003388:    981c        ..      LDR      r0,[sp,#0x70]
        0x0800338a:    4303        .C      ORRS     r3,r3,r0
        0x0800338c:    9331        1.      STR      r3,[sp,#0xc4]
        0x0800338e:    2002        .       MOVS     r0,#2
        0x08003390:    4338        8C      ORRS     r0,r0,r7
        0x08003392:    9030        0.      STR      r0,[sp,#0xc0]
        0x08003394:    2001        .       MOVS     r0,#1
        0x08003396:    9725        %.      STR      r7,[sp,#0x94]
        0x08003398:    4338        8C      ORRS     r0,r0,r7
        0x0800339a:    902e        ..      STR      r0,[sp,#0xb8]
        0x0800339c:    9d14        ..      LDR      r5,[sp,#0x50]
        0x0800339e:    4637        7F      MOV      r7,r6
        0x080033a0:    9234        4.      STR      r2,[sp,#0xd0]
        0x080033a2:    4616        .F      MOV      r6,r2
        0x080033a4:    460b        .F      MOV      r3,r1
        0x080033a6:    460c        .F      MOV      r4,r1
        0x080033a8:    9133        3.      STR      r1,[sp,#0xcc]
        0x080033aa:    9332        2.      STR      r3,[sp,#0xc8]
        0x080033ac:    982a        *.      LDR      r0,[sp,#0xa8]
        0x080033ae:    5e30        0^      LDRSH    r0,[r6,r0]
        0x080033b0:    9a2f        /.      LDR      r2,[sp,#0xbc]
        0x080033b2:    5eaa        .^      LDRSH    r2,[r5,r2]
        0x080033b4:    4350        PC      MULS     r0,r2,r0
        0x080033b6:    9b33        3.      LDR      r3,[sp,#0xcc]
        0x080033b8:    18c3        ..      ADDS     r3,r0,r3
        0x080033ba:    9333        3.      STR      r3,[sp,#0xcc]
        0x080033bc:    9b32        2.      LDR      r3,[sp,#0xc8]
        0x080033be:    9826        &.      LDR      r0,[sp,#0x98]
        0x080033c0:    5e30        0^      LDRSH    r0,[r6,r0]
        0x080033c2:    4350        PC      MULS     r0,r2,r0
        0x080033c4:    1904        ..      ADDS     r4,r0,r4
        0x080033c6:    9829        ).      LDR      r0,[sp,#0xa4]
        0x080033c8:    5e30        0^      LDRSH    r0,[r6,r0]
        0x080033ca:    4350        PC      MULS     r0,r2,r0
        0x080033cc:    1841        A.      ADDS     r1,r0,r1
        0x080033ce:    982f        /.      LDR      r0,[sp,#0xbc]
        0x080033d0:    5e30        0^      LDRSH    r0,[r6,r0]
        0x080033d2:    4350        PC      MULS     r0,r2,r0
        0x080033d4:    18c3        ..      ADDS     r3,r0,r3
        0x080033d6:    1cad        ..      ADDS     r5,r5,#2
        0x080033d8:    1e7f        ..      SUBS     r7,r7,#1
        0x080033da:    1cb6        ..      ADDS     r6,r6,#2
        0x080033dc:    2f00        ./      CMP      r7,#0
        0x080033de:    d1e4        ..      BNE      0x80033aa ; 0x80033aa
        0x080033e0:    982e        ..      LDR      r0,[sp,#0xb8]
        0x080033e2:    0080        ..      LSLS     r0,r0,#2
        0x080033e4:    9a12        ..      LDR      r2,[sp,#0x48]
        0x080033e6:    5011        .P      STR      r1,[r2,r0]
        0x080033e8:    9925        %.      LDR      r1,[sp,#0x94]
        0x080033ea:    0088        ..      LSLS     r0,r1,#2
        0x080033ec:    5013        .P      STR      r3,[r2,r0]
        0x080033ee:    9830        0.      LDR      r0,[sp,#0xc0]
        0x080033f0:    0080        ..      LSLS     r0,r0,#2
        0x080033f2:    5014        .P      STR      r4,[r2,r0]
        0x080033f4:    9831        1.      LDR      r0,[sp,#0xc4]
        0x080033f6:    0080        ..      LSLS     r0,r0,#2
        0x080033f8:    9b33        3.      LDR      r3,[sp,#0xcc]
        0x080033fa:    5013        .P      STR      r3,[r2,r0]
        0x080033fc:    2007        .       MOVS     r0,#7
        0x080033fe:    4308        .C      ORRS     r0,r0,r1
        0x08003400:    9023        #.      STR      r0,[sp,#0x8c]
        0x08003402:    460a        .F      MOV      r2,r1
        0x08003404:    9809        ..      LDR      r0,[sp,#0x24]
        0x08003406:    4302        .C      ORRS     r2,r2,r0
        0x08003408:    9222        ".      STR      r2,[sp,#0x88]
        0x0800340a:    2005        .       MOVS     r0,#5
        0x0800340c:    4308        .C      ORRS     r0,r0,r1
        0x0800340e:    9021        !.      STR      r0,[sp,#0x84]
        0x08003410:    2004        .       MOVS     r0,#4
        0x08003412:    4308        .C      ORRS     r0,r0,r1
        0x08003414:    9020         .      STR      r0,[sp,#0x80]
        0x08003416:    2600        .&      MOVS     r6,#0
        0x08003418:    9907        ..      LDR      r1,[sp,#0x1c]
        0x0800341a:    9814        ..      LDR      r0,[sp,#0x50]
        0x0800341c:    9c27        '.      LDR      r4,[sp,#0x9c]
        0x0800341e:    9d10        ..      LDR      r5,[sp,#0x40]
        0x08003420:    9b0c        ..      LDR      r3,[sp,#0x30]
        0x08003422:    9a0a        ..      LDR      r2,[sp,#0x28]
        0x08003424:    4637        7F      MOV      r7,r6
        0x08003426:    9630        0.      STR      r6,[sp,#0xc0]
        0x08003428:    9631        1.      STR      r6,[sp,#0xc4]
        0x0800342a:    962b        +.      STR      r6,[sp,#0xac]
        0x0800342c:    9632        2.      STR      r6,[sp,#0xc8]
        0x0800342e:    942c        ,.      STR      r4,[sp,#0xb0]
        0x08003430:    902d        -.      STR      r0,[sp,#0xb4]
        0x08003432:    9733        3.      STR      r7,[sp,#0xcc]
        0x08003434:    912e        ..      STR      r1,[sp,#0xb8]
        0x08003436:    9934        4.      LDR      r1,[sp,#0xd0]
        0x08003438:    5e8f        .^      LDRSH    r7,[r1,r2]
        0x0800343a:    9e2b        +.      LDR      r6,[sp,#0xac]
        0x0800343c:    5f86        ._      LDRSH    r6,[r0,r6]
        0x0800343e:    4377        wC      MULS     r7,r6,r7
        0x08003440:    9932        2.      LDR      r1,[sp,#0xc8]
        0x08003442:    1879        y.      ADDS     r1,r7,r1
        0x08003444:    9132        2.      STR      r1,[sp,#0xc8]
        0x08003446:    992e        ..      LDR      r1,[sp,#0xb8]
        0x08003448:    9f34        4.      LDR      r7,[sp,#0xd0]
        0x0800344a:    5eff        .^      LDRSH    r7,[r7,r3]
        0x0800344c:    4377        wC      MULS     r7,r6,r7
        0x0800344e:    9831        1.      LDR      r0,[sp,#0xc4]
        0x08003450:    1838        8.      ADDS     r0,r7,r0
        0x08003452:    9031        1.      STR      r0,[sp,#0xc4]
        0x08003454:    982d        -.      LDR      r0,[sp,#0xb4]
        0x08003456:    9f34        4.      LDR      r7,[sp,#0xd0]
        0x08003458:    5f7f        ._      LDRSH    r7,[r7,r5]
        0x0800345a:    4377        wC      MULS     r7,r6,r7
        0x0800345c:    9c30        0.      LDR      r4,[sp,#0xc0]
        0x0800345e:    193c        <.      ADDS     r4,r7,r4
        0x08003460:    9430        0.      STR      r4,[sp,#0xc0]
        0x08003462:    9c2c        ,.      LDR      r4,[sp,#0xb0]
        0x08003464:    9f34        4.      LDR      r7,[sp,#0xd0]
        0x08003466:    5e7f        .^      LDRSH    r7,[r7,r1]
        0x08003468:    4377        wC      MULS     r7,r6,r7
        0x0800346a:    9e33        3.      LDR      r6,[sp,#0xcc]
        0x0800346c:    19be        ..      ADDS     r6,r7,r6
        0x0800346e:    9633        3.      STR      r6,[sp,#0xcc]
        0x08003470:    9f33        3.      LDR      r7,[sp,#0xcc]
        0x08003472:    1c89        ..      ADDS     r1,r1,#2
        0x08003474:    1c80        ..      ADDS     r0,r0,#2
        0x08003476:    1e64        d.      SUBS     r4,r4,#1
        0x08003478:    1cad        ..      ADDS     r5,r5,#2
        0x0800347a:    1c9b        ..      ADDS     r3,r3,#2
        0x0800347c:    1c92        ..      ADDS     r2,r2,#2
        0x0800347e:    2c00        .,      CMP      r4,#0
        0x08003480:    d1d5        ..      BNE      0x800342e ; 0x800342e
        0x08003482:    9821        !.      LDR      r0,[sp,#0x84]
        0x08003484:    0080        ..      LSLS     r0,r0,#2
        0x08003486:    9912        ..      LDR      r1,[sp,#0x48]
        0x08003488:    9a30        0.      LDR      r2,[sp,#0xc0]
        0x0800348a:    500a        .P      STR      r2,[r1,r0]
        0x0800348c:    9820         .      LDR      r0,[sp,#0x80]
        0x0800348e:    0080        ..      LSLS     r0,r0,#2
        0x08003490:    500f        .P      STR      r7,[r1,r0]
        0x08003492:    9822        ".      LDR      r0,[sp,#0x88]
        0x08003494:    0080        ..      LSLS     r0,r0,#2
        0x08003496:    9a31        1.      LDR      r2,[sp,#0xc4]
        0x08003498:    500a        .P      STR      r2,[r1,r0]
        0x0800349a:    9823        #.      LDR      r0,[sp,#0x8c]
        0x0800349c:    0080        ..      LSLS     r0,r0,#2
        0x0800349e:    9a32        2.      LDR      r2,[sp,#0xc8]
        0x080034a0:    500a        .P      STR      r2,[r1,r0]
        0x080034a2:    210b        .!      MOVS     r1,#0xb
        0x080034a4:    9825        %.      LDR      r0,[sp,#0x94]
        0x080034a6:    4301        .C      ORRS     r1,r1,r0
        0x080034a8:    9123        #.      STR      r1,[sp,#0x8c]
        0x080034aa:    4602        .F      MOV      r2,r0
        0x080034ac:    9915        ..      LDR      r1,[sp,#0x54]
        0x080034ae:    430a        .C      ORRS     r2,r2,r1
        0x080034b0:    9222        ".      STR      r2,[sp,#0x88]
        0x080034b2:    2109        .!      MOVS     r1,#9
        0x080034b4:    4301        .C      ORRS     r1,r1,r0
        0x080034b6:    9121        !.      STR      r1,[sp,#0x84]
        0x080034b8:    2108        .!      MOVS     r1,#8
        0x080034ba:    4301        .C      ORRS     r1,r1,r0
        0x080034bc:    9120         .      STR      r1,[sp,#0x80]
        0x080034be:    2500        .%      MOVS     r5,#0
        0x080034c0:    9908        ..      LDR      r1,[sp,#0x20]
        0x080034c2:    9814        ..      LDR      r0,[sp,#0x50]
        0x080034c4:    9c27        '.      LDR      r4,[sp,#0x9c]
        0x080034c6:    af16        ..      ADD      r7,sp,#0x58
        0x080034c8:    cf8c        ..      LDM      r7,{r2,r3,r7}
        0x080034ca:    462e        .F      MOV      r6,r5
        0x080034cc:    9531        1.      STR      r5,[sp,#0xc4]
        0x080034ce:    9532        2.      STR      r5,[sp,#0xc8]
        0x080034d0:    952b        +.      STR      r5,[sp,#0xac]
        0x080034d2:    9533        3.      STR      r5,[sp,#0xcc]
        0x080034d4:    942c        ,.      STR      r4,[sp,#0xb0]
        0x080034d6:    902d        -.      STR      r0,[sp,#0xb4]
        0x080034d8:    962e        ..      STR      r6,[sp,#0xb8]
        0x080034da:    9130        0.      STR      r1,[sp,#0xc0]
        0x080034dc:    9934        4.      LDR      r1,[sp,#0xd0]
        0x080034de:    5e8d        .^      LDRSH    r5,[r1,r2]
        0x080034e0:    9e2b        +.      LDR      r6,[sp,#0xac]
        0x080034e2:    5f86        ._      LDRSH    r6,[r0,r6]
        0x080034e4:    4375        uC      MULS     r5,r6,r5
        0x080034e6:    9933        3.      LDR      r1,[sp,#0xcc]
        0x080034e8:    1869        i.      ADDS     r1,r5,r1
        0x080034ea:    9133        3.      STR      r1,[sp,#0xcc]
        0x080034ec:    9930        0.      LDR      r1,[sp,#0xc0]
        0x080034ee:    9d34        4.      LDR      r5,[sp,#0xd0]
        0x080034f0:    5eed        .^      LDRSH    r5,[r5,r3]
        0x080034f2:    4375        uC      MULS     r5,r6,r5
        0x080034f4:    9832        2.      LDR      r0,[sp,#0xc8]
        0x080034f6:    1828        (.      ADDS     r0,r5,r0
        0x080034f8:    9032        2.      STR      r0,[sp,#0xc8]
        0x080034fa:    982d        -.      LDR      r0,[sp,#0xb4]
        0x080034fc:    9d34        4.      LDR      r5,[sp,#0xd0]
        0x080034fe:    5fed        ._      LDRSH    r5,[r5,r7]
        0x08003500:    4375        uC      MULS     r5,r6,r5
        0x08003502:    9c31        1.      LDR      r4,[sp,#0xc4]
        0x08003504:    192c        ,.      ADDS     r4,r5,r4
        0x08003506:    9431        1.      STR      r4,[sp,#0xc4]
        0x08003508:    9c2c        ,.      LDR      r4,[sp,#0xb0]
        0x0800350a:    9d34        4.      LDR      r5,[sp,#0xd0]
        0x0800350c:    5e6d        m^      LDRSH    r5,[r5,r1]
        0x0800350e:    4375        uC      MULS     r5,r6,r5
        0x08003510:    9e2e        ..      LDR      r6,[sp,#0xb8]
        0x08003512:    19ae        ..      ADDS     r6,r5,r6
        0x08003514:    1c89        ..      ADDS     r1,r1,#2
        0x08003516:    1c80        ..      ADDS     r0,r0,#2
        0x08003518:    1e64        d.      SUBS     r4,r4,#1
        0x0800351a:    1cbf        ..      ADDS     r7,r7,#2
        0x0800351c:    1c9b        ..      ADDS     r3,r3,#2
        0x0800351e:    1c92        ..      ADDS     r2,r2,#2
        0x08003520:    2c00        .,      CMP      r4,#0
        0x08003522:    d1d7        ..      BNE      0x80034d4 ; 0x80034d4
        0x08003524:    9821        !.      LDR      r0,[sp,#0x84]
        0x08003526:    0080        ..      LSLS     r0,r0,#2
        0x08003528:    9912        ..      LDR      r1,[sp,#0x48]
        0x0800352a:    9a31        1.      LDR      r2,[sp,#0xc4]
        0x0800352c:    500a        .P      STR      r2,[r1,r0]
        0x0800352e:    9820         .      LDR      r0,[sp,#0x80]
        0x08003530:    0080        ..      LSLS     r0,r0,#2
        0x08003532:    500e        .P      STR      r6,[r1,r0]
        0x08003534:    9822        ".      LDR      r0,[sp,#0x88]
        0x08003536:    0080        ..      LSLS     r0,r0,#2
        0x08003538:    9a32        2.      LDR      r2,[sp,#0xc8]
        0x0800353a:    500a        .P      STR      r2,[r1,r0]
        0x0800353c:    9823        #.      LDR      r0,[sp,#0x8c]
        0x0800353e:    0080        ..      LSLS     r0,r0,#2
        0x08003540:    9a33        3.      LDR      r2,[sp,#0xcc]
        0x08003542:    500a        .P      STR      r2,[r1,r0]
        0x08003544:    210f        .!      MOVS     r1,#0xf
        0x08003546:    9825        %.      LDR      r0,[sp,#0x94]
        0x08003548:    4301        .C      ORRS     r1,r1,r0
        0x0800354a:    912b        +.      STR      r1,[sp,#0xac]
        0x0800354c:    4602        .F      MOV      r2,r0
        0x0800354e:    990b        ..      LDR      r1,[sp,#0x2c]
        0x08003550:    430a        .C      ORRS     r2,r2,r1
        0x08003552:    9223        #.      STR      r2,[sp,#0x8c]
        0x08003554:    210d        .!      MOVS     r1,#0xd
        0x08003556:    4301        .C      ORRS     r1,r1,r0
        0x08003558:    9122        ".      STR      r1,[sp,#0x88]
        0x0800355a:    4601        .F      MOV      r1,r0
        0x0800355c:    980d        ..      LDR      r0,[sp,#0x34]
        0x0800355e:    4301        .C      ORRS     r1,r1,r0
        0x08003560:    9121        !.      STR      r1,[sp,#0x84]
        0x08003562:    2100        .!      MOVS     r1,#0
        0x08003564:    981e        ..      LDR      r0,[sp,#0x78]
        0x08003566:    9030        0.      STR      r0,[sp,#0xc0]
        0x08003568:    9814        ..      LDR      r0,[sp,#0x50]
        0x0800356a:    9c27        '.      LDR      r4,[sp,#0x9c]
        0x0800356c:    9f1d        ..      LDR      r7,[sp,#0x74]
        0x0800356e:    9b1b        ..      LDR      r3,[sp,#0x6c]
        0x08003570:    9a19        ..      LDR      r2,[sp,#0x64]
        0x08003572:    460e        .F      MOV      r6,r1
        0x08003574:    9131        1.      STR      r1,[sp,#0xc4]
        0x08003576:    9132        2.      STR      r1,[sp,#0xc8]
        0x08003578:    912c        ,.      STR      r1,[sp,#0xb0]
        0x0800357a:    9133        3.      STR      r1,[sp,#0xcc]
        0x0800357c:    9d34        4.      LDR      r5,[sp,#0xd0]
        0x0800357e:    962d        -.      STR      r6,[sp,#0xb4]
        0x08003580:    902e        ..      STR      r0,[sp,#0xb8]
        0x08003582:    4629        )F      MOV      r1,r5
        0x08003584:    5ead        .^      LDRSH    r5,[r5,r2]
        0x08003586:    9e2c        ,.      LDR      r6,[sp,#0xb0]
        0x08003588:    5f86        ._      LDRSH    r6,[r0,r6]
        0x0800358a:    4375        uC      MULS     r5,r6,r5
        0x0800358c:    9833        3.      LDR      r0,[sp,#0xcc]
        0x0800358e:    1828        (.      ADDS     r0,r5,r0
        0x08003590:    9033        3.      STR      r0,[sp,#0xcc]
        0x08003592:    5ecd        .^      LDRSH    r5,[r1,r3]
        0x08003594:    4375        uC      MULS     r5,r6,r5
        0x08003596:    9832        2.      LDR      r0,[sp,#0xc8]
        0x08003598:    1828        (.      ADDS     r0,r5,r0
        0x0800359a:    9032        2.      STR      r0,[sp,#0xc8]
        0x0800359c:    5fcd        ._      LDRSH    r5,[r1,r7]
        0x0800359e:    4375        uC      MULS     r5,r6,r5
        0x080035a0:    9831        1.      LDR      r0,[sp,#0xc4]
        0x080035a2:    1828        (.      ADDS     r0,r5,r0
        0x080035a4:    9031        1.      STR      r0,[sp,#0xc4]
        0x080035a6:    9830        0.      LDR      r0,[sp,#0xc0]
        0x080035a8:    5e0d        .^      LDRSH    r5,[r1,r0]
        0x080035aa:    4375        uC      MULS     r5,r6,r5
        0x080035ac:    9e2d        -.      LDR      r6,[sp,#0xb4]
        0x080035ae:    19ae        ..      ADDS     r6,r5,r6
        0x080035b0:    460d        .F      MOV      r5,r1
        0x080035b2:    1c80        ..      ADDS     r0,r0,#2
        0x080035b4:    9030        0.      STR      r0,[sp,#0xc0]
        0x080035b6:    982e        ..      LDR      r0,[sp,#0xb8]
        0x080035b8:    1c80        ..      ADDS     r0,r0,#2
        0x080035ba:    1e64        d.      SUBS     r4,r4,#1
        0x080035bc:    1cbf        ..      ADDS     r7,r7,#2
        0x080035be:    1c9b        ..      ADDS     r3,r3,#2
        0x080035c0:    1c92        ..      ADDS     r2,r2,#2
        0x080035c2:    2c00        .,      CMP      r4,#0
        0x080035c4:    d1db        ..      BNE      0x800357e ; 0x800357e
        0x080035c6:    9822        ".      LDR      r0,[sp,#0x88]
        0x080035c8:    0080        ..      LSLS     r0,r0,#2
        0x080035ca:    9912        ..      LDR      r1,[sp,#0x48]
        0x080035cc:    9a31        1.      LDR      r2,[sp,#0xc4]
        0x080035ce:    500a        .P      STR      r2,[r1,r0]
        0x080035d0:    9821        !.      LDR      r0,[sp,#0x84]
        0x080035d2:    0080        ..      LSLS     r0,r0,#2
        0x080035d4:    500e        .P      STR      r6,[r1,r0]
        0x080035d6:    9823        #.      LDR      r0,[sp,#0x8c]
        0x080035d8:    0080        ..      LSLS     r0,r0,#2
        0x080035da:    9a32        2.      LDR      r2,[sp,#0xc8]
        0x080035dc:    500a        .P      STR      r2,[r1,r0]
        0x080035de:    982b        +.      LDR      r0,[sp,#0xac]
        0x080035e0:    0080        ..      LSLS     r0,r0,#2
        0x080035e2:    9a33        3.      LDR      r2,[sp,#0xcc]
        0x080035e4:    500a        .P      STR      r2,[r1,r0]
        0x080035e6:    9806        ..      LDR      r0,[sp,#0x18]
        0x080035e8:    182a        *.      ADDS     r2,r5,r0
        0x080035ea:    9b24        $.      LDR      r3,[sp,#0x90]
        0x080035ec:    1d1b        ..      ADDS     r3,r3,#4
        0x080035ee:    9f25        %.      LDR      r7,[sp,#0x94]
        0x080035f0:    3710        .7      ADDS     r7,r7,#0x10
        0x080035f2:    981f        ..      LDR      r0,[sp,#0x7c]
        0x080035f4:    4283        .B      CMP      r3,r0
        0x080035f6:    9e27        '.      LDR      r6,[sp,#0x9c]
        0x080035f8:    992f        /.      LDR      r1,[sp,#0xbc]
        0x080035fa:    d000        ..      BEQ      0x80035fe ; 0x80035fe
        0x080035fc:    e6c2        ..      B        0x8003384 ; 0x8003384
        0x080035fe:    9800        ..      LDR      r0,[sp,#0]
        0x08003600:    2800        .(      CMP      r0,#0
        0x08003602:    d100        ..      BNE      0x8003606 ; 0x8003606
        0x08003604:    e111        ..      B        0x800382a ; 0x800382a
        0x08003606:    4630        0F      MOV      r0,r6
        0x08003608:    4378        xC      MULS     r0,r7,r0
        0x0800360a:    0040        @.      LSLS     r0,r0,#1
        0x0800360c:    9911        ..      LDR      r1,[sp,#0x44]
        0x0800360e:    1808        ..      ADDS     r0,r1,r0
        0x08003610:    9032        2.      STR      r0,[sp,#0xc8]
        0x08003612:    1cfa        ..      ADDS     r2,r7,#3
        0x08003614:    4630        0F      MOV      r0,r6
        0x08003616:    922c        ,.      STR      r2,[sp,#0xb0]
        0x08003618:    4350        PC      MULS     r0,r2,r0
        0x0800361a:    0040        @.      LSLS     r0,r0,#1
        0x0800361c:    180c        ..      ADDS     r4,r1,r0
        0x0800361e:    1cba        ..      ADDS     r2,r7,#2
        0x08003620:    4630        0F      MOV      r0,r6
        0x08003622:    922b        +.      STR      r2,[sp,#0xac]
        0x08003624:    4350        PC      MULS     r0,r2,r0
        0x08003626:    0040        @.      LSLS     r0,r0,#1
        0x08003628:    1808        ..      ADDS     r0,r1,r0
        0x0800362a:    9031        1.      STR      r0,[sp,#0xc4]
        0x0800362c:    9725        %.      STR      r7,[sp,#0x94]
        0x0800362e:    1c7a        z.      ADDS     r2,r7,#1
        0x08003630:    4630        0F      MOV      r0,r6
        0x08003632:    922a        *.      STR      r2,[sp,#0xa8]
        0x08003634:    4350        PC      MULS     r0,r2,r0
        0x08003636:    0040        @.      LSLS     r0,r0,#1
        0x08003638:    4632        2F      MOV      r2,r6
        0x0800363a:    180e        ..      ADDS     r6,r1,r0
        0x0800363c:    2000        .       MOVS     r0,#0
        0x0800363e:    9914        ..      LDR      r1,[sp,#0x50]
        0x08003640:    4605        .F      MOV      r5,r0
        0x08003642:    9033        3.      STR      r0,[sp,#0xcc]
        0x08003644:    9034        4.      STR      r0,[sp,#0xd0]
        0x08003646:    902d        -.      STR      r0,[sp,#0xb4]
        0x08003648:    4603        .F      MOV      r3,r0
        0x0800364a:    952e        ..      STR      r5,[sp,#0xb8]
        0x0800364c:    9430        0.      STR      r4,[sp,#0xc0]
        0x0800364e:    9d2d        -.      LDR      r5,[sp,#0xb4]
        0x08003650:    5f67        g_      LDRSH    r7,[r4,r5]
        0x08003652:    5f48        H_      LDRSH    r0,[r1,r5]
        0x08003654:    4347        GC      MULS     r7,r0,r7
        0x08003656:    18fb        ..      ADDS     r3,r7,r3
        0x08003658:    932f        /.      STR      r3,[sp,#0xbc]
        0x0800365a:    9b31        1.      LDR      r3,[sp,#0xc4]
        0x0800365c:    5f5f        __      LDRSH    r7,[r3,r5]
        0x0800365e:    4347        GC      MULS     r7,r0,r7
        0x08003660:    9c34        4.      LDR      r4,[sp,#0xd0]
        0x08003662:    193c        <.      ADDS     r4,r7,r4
        0x08003664:    9434        4.      STR      r4,[sp,#0xd0]
        0x08003666:    5f77        w_      LDRSH    r7,[r6,r5]
        0x08003668:    4347        GC      MULS     r7,r0,r7
        0x0800366a:    9c33        3.      LDR      r4,[sp,#0xcc]
        0x0800366c:    193c        <.      ADDS     r4,r7,r4
        0x0800366e:    9433        3.      STR      r4,[sp,#0xcc]
        0x08003670:    9c32        2.      LDR      r4,[sp,#0xc8]
        0x08003672:    5f67        g_      LDRSH    r7,[r4,r5]
        0x08003674:    9d2e        ..      LDR      r5,[sp,#0xb8]
        0x08003676:    4347        GC      MULS     r7,r0,r7
        0x08003678:    197d        }.      ADDS     r5,r7,r5
        0x0800367a:    1ca4        ..      ADDS     r4,r4,#2
        0x0800367c:    9432        2.      STR      r4,[sp,#0xc8]
        0x0800367e:    9c30        0.      LDR      r4,[sp,#0xc0]
        0x08003680:    1e52        R.      SUBS     r2,r2,#1
        0x08003682:    1cb6        ..      ADDS     r6,r6,#2
        0x08003684:    1c9b        ..      ADDS     r3,r3,#2
        0x08003686:    9331        1.      STR      r3,[sp,#0xc4]
        0x08003688:    9b2f        /.      LDR      r3,[sp,#0xbc]
        0x0800368a:    1c89        ..      ADDS     r1,r1,#2
        0x0800368c:    1ca4        ..      ADDS     r4,r4,#2
        0x0800368e:    2a00        .*      CMP      r2,#0
        0x08003690:    d1db        ..      BNE      0x800364a ; 0x800364a
        0x08003692:    982a        *.      LDR      r0,[sp,#0xa8]
        0x08003694:    0080        ..      LSLS     r0,r0,#2
        0x08003696:    9912        ..      LDR      r1,[sp,#0x48]
        0x08003698:    9a33        3.      LDR      r2,[sp,#0xcc]
        0x0800369a:    500a        .P      STR      r2,[r1,r0]
        0x0800369c:    9a25        %.      LDR      r2,[sp,#0x94]
        0x0800369e:    0090        ..      LSLS     r0,r2,#2
        0x080036a0:    500d        .P      STR      r5,[r1,r0]
        0x080036a2:    982b        +.      LDR      r0,[sp,#0xac]
        0x080036a4:    0080        ..      LSLS     r0,r0,#2
        0x080036a6:    9c34        4.      LDR      r4,[sp,#0xd0]
        0x080036a8:    500c        .P      STR      r4,[r1,r0]
        0x080036aa:    982c        ,.      LDR      r0,[sp,#0xb0]
        0x080036ac:    0080        ..      LSLS     r0,r0,#2
        0x080036ae:    500b        .P      STR      r3,[r1,r0]
        0x080036b0:    1d17        ..      ADDS     r7,r2,#4
        0x080036b2:    9800        ..      LDR      r0,[sp,#0]
        0x080036b4:    2801        .(      CMP      r0,#1
        0x080036b6:    d100        ..      BNE      0x80036ba ; 0x80036ba
        0x080036b8:    e0b6        ..      B        0x8003828 ; 0x8003828
        0x080036ba:    9d27        '.      LDR      r5,[sp,#0x9c]
        0x080036bc:    4628        (F      MOV      r0,r5
        0x080036be:    972b        +.      STR      r7,[sp,#0xac]
        0x080036c0:    4378        xC      MULS     r0,r7,r0
        0x080036c2:    0040        @.      LSLS     r0,r0,#1
        0x080036c4:    9911        ..      LDR      r1,[sp,#0x44]
        0x080036c6:    1808        ..      ADDS     r0,r1,r0
        0x080036c8:    9033        3.      STR      r0,[sp,#0xcc]
        0x080036ca:    1dd3        ..      ADDS     r3,r2,#7
        0x080036cc:    4628        (F      MOV      r0,r5
        0x080036ce:    932a        *.      STR      r3,[sp,#0xa8]
        0x080036d0:    4358        XC      MULS     r0,r3,r0
        0x080036d2:    0040        @.      LSLS     r0,r0,#1
        0x080036d4:    180e        ..      ADDS     r6,r1,r0
        0x080036d6:    1d94        ..      ADDS     r4,r2,#6
        0x080036d8:    4628        (F      MOV      r0,r5
        0x080036da:    9429        ).      STR      r4,[sp,#0xa4]
        0x080036dc:    4360        `C      MULS     r0,r4,r0
        0x080036de:    0040        @.      LSLS     r0,r0,#1
        0x080036e0:    1808        ..      ADDS     r0,r1,r0
        0x080036e2:    9032        2.      STR      r0,[sp,#0xc8]
        0x080036e4:    1d52        R.      ADDS     r2,r2,#5
        0x080036e6:    4628        (F      MOV      r0,r5
        0x080036e8:    9226        &.      STR      r2,[sp,#0x98]
        0x080036ea:    4350        PC      MULS     r0,r2,r0
        0x080036ec:    0040        @.      LSLS     r0,r0,#1
        0x080036ee:    1808        ..      ADDS     r0,r1,r0
        0x080036f0:    9031        1.      STR      r0,[sp,#0xc4]
        0x080036f2:    2000        .       MOVS     r0,#0
        0x080036f4:    4629        )F      MOV      r1,r5
        0x080036f6:    9a14        ..      LDR      r2,[sp,#0x50]
        0x080036f8:    4607        .F      MOV      r7,r0
        0x080036fa:    9034        4.      STR      r0,[sp,#0xd0]
        0x080036fc:    4605        .F      MOV      r5,r0
        0x080036fe:    902c        ,.      STR      r0,[sp,#0xb0]
        0x08003700:    4604        .F      MOV      r4,r0
        0x08003702:    972e        ..      STR      r7,[sp,#0xb8]
        0x08003704:    912f        /.      STR      r1,[sp,#0xbc]
        0x08003706:    9f2c        ,.      LDR      r7,[sp,#0xb0]
        0x08003708:    5ff1        ._      LDRSH    r1,[r6,r7]
        0x0800370a:    5fd0        ._      LDRSH    r0,[r2,r7]
        0x0800370c:    4341        AC      MULS     r1,r0,r1
        0x0800370e:    190c        ..      ADDS     r4,r1,r4
        0x08003710:    9430        0.      STR      r4,[sp,#0xc0]
        0x08003712:    9c32        2.      LDR      r4,[sp,#0xc8]
        0x08003714:    5fe1        ._      LDRSH    r1,[r4,r7]
        0x08003716:    4341        AC      MULS     r1,r0,r1
        0x08003718:    194d        M.      ADDS     r5,r1,r5
        0x0800371a:    952d        -.      STR      r5,[sp,#0xb4]
        0x0800371c:    9d31        1.      LDR      r5,[sp,#0xc4]
        0x0800371e:    5fe9        ._      LDRSH    r1,[r5,r7]
        0x08003720:    4341        AC      MULS     r1,r0,r1
        0x08003722:    9b34        4.      LDR      r3,[sp,#0xd0]
        0x08003724:    18cb        ..      ADDS     r3,r1,r3
        0x08003726:    9334        4.      STR      r3,[sp,#0xd0]
        0x08003728:    9b33        3.      LDR      r3,[sp,#0xcc]
        0x0800372a:    5fd9        ._      LDRSH    r1,[r3,r7]
        0x0800372c:    9f2e        ..      LDR      r7,[sp,#0xb8]
        0x0800372e:    4341        AC      MULS     r1,r0,r1
        0x08003730:    19cf        ..      ADDS     r7,r1,r7
        0x08003732:    992f        /.      LDR      r1,[sp,#0xbc]
        0x08003734:    1c9b        ..      ADDS     r3,r3,#2
        0x08003736:    9333        3.      STR      r3,[sp,#0xcc]
        0x08003738:    1e49        I.      SUBS     r1,r1,#1
        0x0800373a:    1cad        ..      ADDS     r5,r5,#2
        0x0800373c:    9531        1.      STR      r5,[sp,#0xc4]
        0x0800373e:    9d2d        -.      LDR      r5,[sp,#0xb4]
        0x08003740:    1ca4        ..      ADDS     r4,r4,#2
        0x08003742:    9432        2.      STR      r4,[sp,#0xc8]
        0x08003744:    9c30        0.      LDR      r4,[sp,#0xc0]
        0x08003746:    1c92        ..      ADDS     r2,r2,#2
        0x08003748:    1cb6        ..      ADDS     r6,r6,#2
        0x0800374a:    2900        .)      CMP      r1,#0
        0x0800374c:    d1d9        ..      BNE      0x8003702 ; 0x8003702
        0x0800374e:    9826        &.      LDR      r0,[sp,#0x98]
        0x08003750:    0080        ..      LSLS     r0,r0,#2
        0x08003752:    9912        ..      LDR      r1,[sp,#0x48]
        0x08003754:    9a34        4.      LDR      r2,[sp,#0xd0]
        0x08003756:    500a        .P      STR      r2,[r1,r0]
        0x08003758:    982b        +.      LDR      r0,[sp,#0xac]
        0x0800375a:    0080        ..      LSLS     r0,r0,#2
        0x0800375c:    500f        .P      STR      r7,[r1,r0]
        0x0800375e:    9829        ).      LDR      r0,[sp,#0xa4]
        0x08003760:    0080        ..      LSLS     r0,r0,#2
        0x08003762:    500d        .P      STR      r5,[r1,r0]
        0x08003764:    982a        *.      LDR      r0,[sp,#0xa8]
        0x08003766:    0080        ..      LSLS     r0,r0,#2
        0x08003768:    500c        .P      STR      r4,[r1,r0]
        0x0800376a:    9a25        %.      LDR      r2,[sp,#0x94]
        0x0800376c:    4617        .F      MOV      r7,r2
        0x0800376e:    3708        .7      ADDS     r7,r7,#8
        0x08003770:    9800        ..      LDR      r0,[sp,#0]
        0x08003772:    2802        .(      CMP      r0,#2
        0x08003774:    d058        X.      BEQ      0x8003828 ; 0x8003828
        0x08003776:    9d27        '.      LDR      r5,[sp,#0x9c]
        0x08003778:    4628        (F      MOV      r0,r5
        0x0800377a:    972c        ,.      STR      r7,[sp,#0xb0]
        0x0800377c:    4378        xC      MULS     r0,r7,r0
        0x0800377e:    0040        @.      LSLS     r0,r0,#1
        0x08003780:    9c11        ..      LDR      r4,[sp,#0x44]
        0x08003782:    1820         .      ADDS     r0,r4,r0
        0x08003784:    9031        1.      STR      r0,[sp,#0xc4]
        0x08003786:    4613        .F      MOV      r3,r2
        0x08003788:    330b        .3      ADDS     r3,r3,#0xb
        0x0800378a:    4628        (F      MOV      r0,r5
        0x0800378c:    932b        +.      STR      r3,[sp,#0xac]
        0x0800378e:    4358        XC      MULS     r0,r3,r0
        0x08003790:    0040        @.      LSLS     r0,r0,#1
        0x08003792:    1826        &.      ADDS     r6,r4,r0
        0x08003794:    4613        .F      MOV      r3,r2
        0x08003796:    330a        .3      ADDS     r3,r3,#0xa
        0x08003798:    4628        (F      MOV      r0,r5
        0x0800379a:    932a        *.      STR      r3,[sp,#0xa8]
        0x0800379c:    4358        XC      MULS     r0,r3,r0
        0x0800379e:    0040        @.      LSLS     r0,r0,#1
        0x080037a0:    1823        #.      ADDS     r3,r4,r0
        0x080037a2:    3209        .2      ADDS     r2,r2,#9
        0x080037a4:    4628        (F      MOV      r0,r5
        0x080037a6:    9229        ).      STR      r2,[sp,#0xa4]
        0x080037a8:    4350        PC      MULS     r0,r2,r0
        0x080037aa:    0040        @.      LSLS     r0,r0,#1
        0x080037ac:    1827        '.      ADDS     r7,r4,r0
        0x080037ae:    2000        .       MOVS     r0,#0
        0x080037b0:    9a14        ..      LDR      r2,[sp,#0x50]
        0x080037b2:    4604        .F      MOV      r4,r0
        0x080037b4:    9032        2.      STR      r0,[sp,#0xc8]
        0x080037b6:    9033        3.      STR      r0,[sp,#0xcc]
        0x080037b8:    902d        -.      STR      r0,[sp,#0xb4]
        0x080037ba:    9034        4.      STR      r0,[sp,#0xd0]
        0x080037bc:    942e        ..      STR      r4,[sp,#0xb8]
        0x080037be:    972f        /.      STR      r7,[sp,#0xbc]
        0x080037c0:    9330        0.      STR      r3,[sp,#0xc0]
        0x080037c2:    9c2d        -.      LDR      r4,[sp,#0xb4]
        0x080037c4:    5f31        1_      LDRSH    r1,[r6,r4]
        0x080037c6:    5f10        ._      LDRSH    r0,[r2,r4]
        0x080037c8:    4341        AC      MULS     r1,r0,r1
        0x080037ca:    9f34        4.      LDR      r7,[sp,#0xd0]
        0x080037cc:    19cf        ..      ADDS     r7,r1,r7
        0x080037ce:    9734        4.      STR      r7,[sp,#0xd0]
        0x080037d0:    9f2f        /.      LDR      r7,[sp,#0xbc]
        0x080037d2:    5f19        ._      LDRSH    r1,[r3,r4]
        0x080037d4:    4341        AC      MULS     r1,r0,r1
        0x080037d6:    9b33        3.      LDR      r3,[sp,#0xcc]
        0x080037d8:    18cb        ..      ADDS     r3,r1,r3
        0x080037da:    9333        3.      STR      r3,[sp,#0xcc]
        0x080037dc:    5f39        9_      LDRSH    r1,[r7,r4]
        0x080037de:    4341        AC      MULS     r1,r0,r1
        0x080037e0:    9b32        2.      LDR      r3,[sp,#0xc8]
        0x080037e2:    18cb        ..      ADDS     r3,r1,r3
        0x080037e4:    9332        2.      STR      r3,[sp,#0xc8]
        0x080037e6:    9b31        1.      LDR      r3,[sp,#0xc4]
        0x080037e8:    5f19        ._      LDRSH    r1,[r3,r4]
        0x080037ea:    9c2e        ..      LDR      r4,[sp,#0xb8]
        0x080037ec:    4341        AC      MULS     r1,r0,r1
        0x080037ee:    190c        ..      ADDS     r4,r1,r4
        0x080037f0:    1c9b        ..      ADDS     r3,r3,#2
        0x080037f2:    9331        1.      STR      r3,[sp,#0xc4]
        0x080037f4:    9b30        0.      LDR      r3,[sp,#0xc0]
        0x080037f6:    1e6d        m.      SUBS     r5,r5,#1
        0x080037f8:    1cbf        ..      ADDS     r7,r7,#2
        0x080037fa:    1c9b        ..      ADDS     r3,r3,#2
        0x080037fc:    1c92        ..      ADDS     r2,r2,#2
        0x080037fe:    1cb6        ..      ADDS     r6,r6,#2
        0x08003800:    2d00        .-      CMP      r5,#0
        0x08003802:    d1db        ..      BNE      0x80037bc ; 0x80037bc
        0x08003804:    9829        ).      LDR      r0,[sp,#0xa4]
        0x08003806:    0080        ..      LSLS     r0,r0,#2
        0x08003808:    9912        ..      LDR      r1,[sp,#0x48]
        0x0800380a:    9a32        2.      LDR      r2,[sp,#0xc8]
        0x0800380c:    500a        .P      STR      r2,[r1,r0]
        0x0800380e:    982c        ,.      LDR      r0,[sp,#0xb0]
        0x08003810:    0080        ..      LSLS     r0,r0,#2
        0x08003812:    500c        .P      STR      r4,[r1,r0]
        0x08003814:    982a        *.      LDR      r0,[sp,#0xa8]
        0x08003816:    0080        ..      LSLS     r0,r0,#2
        0x08003818:    9a33        3.      LDR      r2,[sp,#0xcc]
        0x0800381a:    500a        .P      STR      r2,[r1,r0]
        0x0800381c:    982b        +.      LDR      r0,[sp,#0xac]
        0x0800381e:    0080        ..      LSLS     r0,r0,#2
        0x08003820:    9a34        4.      LDR      r2,[sp,#0xd0]
        0x08003822:    500a        .P      STR      r2,[r1,r0]
        0x08003824:    9f25        %.      LDR      r7,[sp,#0x94]
        0x08003826:    370c        .7      ADDS     r7,r7,#0xc
        0x08003828:    9e27        '.      LDR      r6,[sp,#0x9c]
        0x0800382a:    980f        ..      LDR      r0,[sp,#0x3c]
        0x0800382c:    4241        AB      RSBS     r1,r0,#0
        0x0800382e:    4141        AA      ADCS     r1,r1,r0
        0x08003830:    9110        ..      STR      r1,[sp,#0x40]
        0x08003832:    2800        .(      CMP      r0,#0
        0x08003834:    9805        ..      LDR      r0,[sp,#0x14]
        0x08003836:    d100        ..      BNE      0x800383a ; 0x800383a
        0x08003838:    e0fb        ..      B        0x8003a32 ; 0x8003a32
        0x0800383a:    4630        0F      MOV      r0,r6
        0x0800383c:    4378        xC      MULS     r0,r7,r0
        0x0800383e:    0040        @.      LSLS     r0,r0,#1
        0x08003840:    9911        ..      LDR      r1,[sp,#0x44]
        0x08003842:    1809        ..      ADDS     r1,r1,r0
        0x08003844:    9813        ..      LDR      r0,[sp,#0x4c]
        0x08003846:    2803        .(      CMP      r0,#3
        0x08003848:    d20f        ..      BCS      0x800386a ; 0x800386a
        0x0800384a:    2000        .       MOVS     r0,#0
        0x0800384c:    4604        .F      MOV      r4,r0
        0x0800384e:    e032        2.      B        0x80038b6 ; 0x80038b6
        0x08003850:    9904        ..      LDR      r1,[sp,#0x10]
        0x08003852:    2900        .)      CMP      r1,#0
        0x08003854:    991c        ..      LDR      r1,[sp,#0x70]
        0x08003856:    d000        ..      BEQ      0x800385a ; 0x800385a
        0x08003858:    e22b        +.      B        0x8003cb2 ; 0x8003cb2
        0x0800385a:    2804        .(      CMP      r0,#4
        0x0800385c:    d300        ..      BCC      0x8003860 ; 0x8003860
        0x0800385e:    e0f8        ..      B        0x8003a52 ; 0x8003a52
        0x08003860:    2300        .#      MOVS     r3,#0
        0x08003862:    461a        .F      MOV      r2,r3
        0x08003864:    461d        .F      MOV      r5,r3
        0x08003866:    9333        3.      STR      r3,[sp,#0xcc]
        0x08003868:    e155        U.      B        0x8003b16 ; 0x8003b16
        0x0800386a:    9725        %.      STR      r7,[sp,#0x94]
        0x0800386c:    4633        3F      MOV      r3,r6
        0x0800386e:    981c        ..      LDR      r0,[sp,#0x70]
        0x08003870:    4383        .C      BICS     r3,r3,r0
        0x08003872:    2200        ."      MOVS     r2,#0
        0x08003874:    9334        4.      STR      r3,[sp,#0xd0]
        0x08003876:    4614        .F      MOV      r4,r2
        0x08003878:    9133        3.      STR      r1,[sp,#0xcc]
        0x0800387a:    9914        ..      LDR      r1,[sp,#0x50]
        0x0800387c:    9833        3.      LDR      r0,[sp,#0xcc]
        0x0800387e:    5e85        .^      LDRSH    r5,[r0,r2]
        0x08003880:    5e8e        .^      LDRSH    r6,[r1,r2]
        0x08003882:    436e        nC      MULS     r6,r5,r6
        0x08003884:    1934        4.      ADDS     r4,r6,r4
        0x08003886:    1885        ..      ADDS     r5,r0,r2
        0x08003888:    2602        .&      MOVS     r6,#2
        0x0800388a:    5faf        ._      LDRSH    r7,[r5,r6]
        0x0800388c:    1888        ..      ADDS     r0,r1,r2
        0x0800388e:    5f86        ._      LDRSH    r6,[r0,r6]
        0x08003890:    437e        ~C      MULS     r6,r7,r6
        0x08003892:    1934        4.      ADDS     r4,r6,r4
        0x08003894:    2604        .&      MOVS     r6,#4
        0x08003896:    5faf        ._      LDRSH    r7,[r5,r6]
        0x08003898:    5f86        ._      LDRSH    r6,[r0,r6]
        0x0800389a:    437e        ~C      MULS     r6,r7,r6
        0x0800389c:    1934        4.      ADDS     r4,r6,r4
        0x0800389e:    2606        .&      MOVS     r6,#6
        0x080038a0:    5fad        ._      LDRSH    r5,[r5,r6]
        0x080038a2:    5f80        ._      LDRSH    r0,[r0,r6]
        0x080038a4:    4368        hC      MULS     r0,r5,r0
        0x080038a6:    1904        ..      ADDS     r4,r0,r4
        0x080038a8:    3208        .2      ADDS     r2,r2,#8
        0x080038aa:    1f1b        ..      SUBS     r3,r3,#4
        0x080038ac:    d1e6        ..      BNE      0x800387c ; 0x800387c
        0x080038ae:    9e27        '.      LDR      r6,[sp,#0x9c]
        0x080038b0:    9f25        %.      LDR      r7,[sp,#0x94]
        0x080038b2:    9933        3.      LDR      r1,[sp,#0xcc]
        0x080038b4:    9834        4.      LDR      r0,[sp,#0xd0]
        0x080038b6:    9133        3.      STR      r1,[sp,#0xcc]
        0x080038b8:    0042        B.      LSLS     r2,r0,#1
        0x080038ba:    5e88        .^      LDRSH    r0,[r1,r2]
        0x080038bc:    9914        ..      LDR      r1,[sp,#0x50]
        0x080038be:    5e8b        .^      LDRSH    r3,[r1,r2]
        0x080038c0:    4343        CC      MULS     r3,r0,r3
        0x080038c2:    191b        ..      ADDS     r3,r3,r4
        0x080038c4:    980f        ..      LDR      r0,[sp,#0x3c]
        0x080038c6:    2801        .(      CMP      r0,#1
        0x080038c8:    d103        ..      BNE      0x80038d2 ; 0x80038d2
        0x080038ca:    00b8        ..      LSLS     r0,r7,#2
        0x080038cc:    9912        ..      LDR      r1,[sp,#0x48]
        0x080038ce:    500b        .P      STR      r3,[r1,r0]
        0x080038d0:    e0ae        ..      B        0x8003a30 ; 0x8003a30
        0x080038d2:    2502        .%      MOVS     r5,#2
        0x080038d4:    4614        .F      MOV      r4,r2
        0x080038d6:    9534        4.      STR      r5,[sp,#0xd0]
        0x080038d8:    432c        ,C      ORRS     r4,r4,r5
        0x080038da:    9d33        3.      LDR      r5,[sp,#0xcc]
        0x080038dc:    5f2d        -_      LDRSH    r5,[r5,r4]
        0x080038de:    5f0c        ._      LDRSH    r4,[r1,r4]
        0x080038e0:    436c        lC      MULS     r4,r5,r4
        0x080038e2:    18e3        ..      ADDS     r3,r4,r3
        0x080038e4:    2802        .(      CMP      r0,#2
        0x080038e6:    d007        ..      BEQ      0x80038f8 ; 0x80038f8
        0x080038e8:    4608        .F      MOV      r0,r1
        0x080038ea:    2404        .$      MOVS     r4,#4
        0x080038ec:    4322        "C      ORRS     r2,r2,r4
        0x080038ee:    9933        3.      LDR      r1,[sp,#0xcc]
        0x080038f0:    5e89        .^      LDRSH    r1,[r1,r2]
        0x080038f2:    5e82        .^      LDRSH    r2,[r0,r2]
        0x080038f4:    434a        JC      MULS     r2,r1,r2
        0x080038f6:    18d3        ..      ADDS     r3,r2,r3
        0x080038f8:    00b9        ..      LSLS     r1,r7,#2
        0x080038fa:    9812        ..      LDR      r0,[sp,#0x48]
        0x080038fc:    5043        CP      STR      r3,[r0,r1]
        0x080038fe:    1c78        x.      ADDS     r0,r7,#1
        0x08003900:    4632        2F      MOV      r2,r6
        0x08003902:    9033        3.      STR      r0,[sp,#0xcc]
        0x08003904:    4342        BC      MULS     r2,r0,r2
        0x08003906:    0052        R.      LSLS     r2,r2,#1
        0x08003908:    9811        ..      LDR      r0,[sp,#0x44]
        0x0800390a:    1883        ..      ADDS     r3,r0,r2
        0x0800390c:    9813        ..      LDR      r0,[sp,#0x4c]
        0x0800390e:    2803        .(      CMP      r0,#3
        0x08003910:    d202        ..      BCS      0x8003918 ; 0x8003918
        0x08003912:    2000        .       MOVS     r0,#0
        0x08003914:    4606        .F      MOV      r6,r0
        0x08003916:    e021        !.      B        0x800395c ; 0x800395c
        0x08003918:    9725        %.      STR      r7,[sp,#0x94]
        0x0800391a:    4635        5F      MOV      r5,r6
        0x0800391c:    981c        ..      LDR      r0,[sp,#0x70]
        0x0800391e:    4385        .C      BICS     r5,r5,r0
        0x08003920:    2400        .$      MOVS     r4,#0
        0x08003922:    9532        2.      STR      r5,[sp,#0xc8]
        0x08003924:    4626        &F      MOV      r6,r4
        0x08003926:    5f1f        ._      LDRSH    r7,[r3,r4]
        0x08003928:    9a14        ..      LDR      r2,[sp,#0x50]
        0x0800392a:    5f11        ._      LDRSH    r1,[r2,r4]
        0x0800392c:    4379        yC      MULS     r1,r7,r1
        0x0800392e:    1989        ..      ADDS     r1,r1,r6
        0x08003930:    191e        ..      ADDS     r6,r3,r4
        0x08003932:    9834        4.      LDR      r0,[sp,#0xd0]
        0x08003934:    5e37        7^      LDRSH    r7,[r6,r0]
        0x08003936:    1912        ..      ADDS     r2,r2,r4
        0x08003938:    5e10        .^      LDRSH    r0,[r2,r0]
        0x0800393a:    4378        xC      MULS     r0,r7,r0
        0x0800393c:    1840        @.      ADDS     r0,r0,r1
        0x0800393e:    2104        .!      MOVS     r1,#4
        0x08003940:    5e77        w^      LDRSH    r7,[r6,r1]
        0x08003942:    5e51        Q^      LDRSH    r1,[r2,r1]
        0x08003944:    4379        yC      MULS     r1,r7,r1
        0x08003946:    1808        ..      ADDS     r0,r1,r0
        0x08003948:    2106        .!      MOVS     r1,#6
        0x0800394a:    5e76        v^      LDRSH    r6,[r6,r1]
        0x0800394c:    5e51        Q^      LDRSH    r1,[r2,r1]
        0x0800394e:    4371        qC      MULS     r1,r6,r1
        0x08003950:    180e        ..      ADDS     r6,r1,r0
        0x08003952:    3408        .4      ADDS     r4,r4,#8
        0x08003954:    1f2d        -.      SUBS     r5,r5,#4
        0x08003956:    d1e6        ..      BNE      0x8003926 ; 0x8003926
        0x08003958:    9f25        %.      LDR      r7,[sp,#0x94]
        0x0800395a:    9832        2.      LDR      r0,[sp,#0xc8]
        0x0800395c:    0044        D.      LSLS     r4,r0,#1
        0x0800395e:    5f18        ._      LDRSH    r0,[r3,r4]
        0x08003960:    9d14        ..      LDR      r5,[sp,#0x50]
        0x08003962:    5f29        )_      LDRSH    r1,[r5,r4]
        0x08003964:    4341        AC      MULS     r1,r0,r1
        0x08003966:    1988        ..      ADDS     r0,r1,r6
        0x08003968:    4621        !F      MOV      r1,r4
        0x0800396a:    9a34        4.      LDR      r2,[sp,#0xd0]
        0x0800396c:    4311        .C      ORRS     r1,r1,r2
        0x0800396e:    5e5a        Z^      LDRSH    r2,[r3,r1]
        0x08003970:    5e69        i^      LDRSH    r1,[r5,r1]
        0x08003972:    4351        QC      MULS     r1,r2,r1
        0x08003974:    180a        ..      ADDS     r2,r1,r0
        0x08003976:    980f        ..      LDR      r0,[sp,#0x3c]
        0x08003978:    2802        .(      CMP      r0,#2
        0x0800397a:    d105        ..      BNE      0x8003988 ; 0x8003988
        0x0800397c:    9833        3.      LDR      r0,[sp,#0xcc]
        0x0800397e:    0080        ..      LSLS     r0,r0,#2
        0x08003980:    9912        ..      LDR      r1,[sp,#0x48]
        0x08003982:    500a        .P      STR      r2,[r1,r0]
        0x08003984:    9e27        '.      LDR      r6,[sp,#0x9c]
        0x08003986:    e053        S.      B        0x8003a30 ; 0x8003a30
        0x08003988:    2004        .       MOVS     r0,#4
        0x0800398a:    9032        2.      STR      r0,[sp,#0xc8]
        0x0800398c:    4304        .C      ORRS     r4,r4,r0
        0x0800398e:    5f18        ._      LDRSH    r0,[r3,r4]
        0x08003990:    5f29        )_      LDRSH    r1,[r5,r4]
        0x08003992:    4341        AC      MULS     r1,r0,r1
        0x08003994:    1888        ..      ADDS     r0,r1,r2
        0x08003996:    9933        3.      LDR      r1,[sp,#0xcc]
        0x08003998:    0089        ..      LSLS     r1,r1,#2
        0x0800399a:    9a12        ..      LDR      r2,[sp,#0x48]
        0x0800399c:    5050        PP      STR      r0,[r2,r1]
        0x0800399e:    1cbb        ..      ADDS     r3,r7,#2
        0x080039a0:    9e27        '.      LDR      r6,[sp,#0x9c]
        0x080039a2:    4630        0F      MOV      r0,r6
        0x080039a4:    4358        XC      MULS     r0,r3,r0
        0x080039a6:    0040        @.      LSLS     r0,r0,#1
        0x080039a8:    9911        ..      LDR      r1,[sp,#0x44]
        0x080039aa:    180a        ..      ADDS     r2,r1,r0
        0x080039ac:    9813        ..      LDR      r0,[sp,#0x4c]
        0x080039ae:    2803        .(      CMP      r0,#3
        0x080039b0:    9331        1.      STR      r3,[sp,#0xc4]
        0x080039b2:    d202        ..      BCS      0x80039ba ; 0x80039ba
        0x080039b4:    2000        .       MOVS     r0,#0
        0x080039b6:    4607        .F      MOV      r7,r0
        0x080039b8:    e023        #.      B        0x8003a02 ; 0x8003a02
        0x080039ba:    981c        ..      LDR      r0,[sp,#0x70]
        0x080039bc:    4386        .C      BICS     r6,r6,r0
        0x080039be:    2500        .%      MOVS     r5,#0
        0x080039c0:    9630        0.      STR      r6,[sp,#0xc0]
        0x080039c2:    462f        /F      MOV      r7,r5
        0x080039c4:    5f50        P_      LDRSH    r0,[r2,r5]
        0x080039c6:    9b14        ..      LDR      r3,[sp,#0x50]
        0x080039c8:    5f59        Y_      LDRSH    r1,[r3,r5]
        0x080039ca:    4341        AC      MULS     r1,r0,r1
        0x080039cc:    19c8        ..      ADDS     r0,r1,r7
        0x080039ce:    9033        3.      STR      r0,[sp,#0xcc]
        0x080039d0:    1951        Q.      ADDS     r1,r2,r5
        0x080039d2:    9834        4.      LDR      r0,[sp,#0xd0]
        0x080039d4:    5e0f        .^      LDRSH    r7,[r1,r0]
        0x080039d6:    195c        \.      ADDS     r4,r3,r5
        0x080039d8:    4613        .F      MOV      r3,r2
        0x080039da:    5e22        "^      LDRSH    r2,[r4,r0]
        0x080039dc:    437a        zC      MULS     r2,r7,r2
        0x080039de:    9833        3.      LDR      r0,[sp,#0xcc]
        0x080039e0:    1810        ..      ADDS     r0,r2,r0
        0x080039e2:    9f32        2.      LDR      r7,[sp,#0xc8]
        0x080039e4:    5fca        ._      LDRSH    r2,[r1,r7]
        0x080039e6:    5fe7        ._      LDRSH    r7,[r4,r7]
        0x080039e8:    4357        WC      MULS     r7,r2,r7
        0x080039ea:    1838        8.      ADDS     r0,r7,r0
        0x080039ec:    2206        ."      MOVS     r2,#6
        0x080039ee:    5e89        .^      LDRSH    r1,[r1,r2]
        0x080039f0:    5ea2        .^      LDRSH    r2,[r4,r2]
        0x080039f2:    434a        JC      MULS     r2,r1,r2
        0x080039f4:    1817        ..      ADDS     r7,r2,r0
        0x080039f6:    461a        .F      MOV      r2,r3
        0x080039f8:    3508        .5      ADDS     r5,r5,#8
        0x080039fa:    1f36        6.      SUBS     r6,r6,#4
        0x080039fc:    d1e2        ..      BNE      0x80039c4 ; 0x80039c4
        0x080039fe:    9e27        '.      LDR      r6,[sp,#0x9c]
        0x08003a00:    9830        0.      LDR      r0,[sp,#0xc0]
        0x08003a02:    0040        @.      LSLS     r0,r0,#1
        0x08003a04:    5e11        .^      LDRSH    r1,[r2,r0]
        0x08003a06:    9b14        ..      LDR      r3,[sp,#0x50]
        0x08003a08:    4615        .F      MOV      r5,r2
        0x08003a0a:    5e1a        .^      LDRSH    r2,[r3,r0]
        0x08003a0c:    434a        JC      MULS     r2,r1,r2
        0x08003a0e:    19d1        ..      ADDS     r1,r2,r7
        0x08003a10:    9c34        4.      LDR      r4,[sp,#0xd0]
        0x08003a12:    4304        .C      ORRS     r4,r4,r0
        0x08003a14:    5f2a        *_      LDRSH    r2,[r5,r4]
        0x08003a16:    5f1c        ._      LDRSH    r4,[r3,r4]
        0x08003a18:    4354        TC      MULS     r4,r2,r4
        0x08003a1a:    1861        a.      ADDS     r1,r4,r1
        0x08003a1c:    9a32        2.      LDR      r2,[sp,#0xc8]
        0x08003a1e:    4302        .C      ORRS     r2,r2,r0
        0x08003a20:    5ea8        .^      LDRSH    r0,[r5,r2]
        0x08003a22:    5e9a        .^      LDRSH    r2,[r3,r2]
        0x08003a24:    4342        BC      MULS     r2,r0,r2
        0x08003a26:    1850        P.      ADDS     r0,r2,r1
        0x08003a28:    9931        1.      LDR      r1,[sp,#0xc4]
        0x08003a2a:    0089        ..      LSLS     r1,r1,#2
        0x08003a2c:    9a12        ..      LDR      r2,[sp,#0x48]
        0x08003a2e:    5050        PP      STR      r0,[r2,r1]
        0x08003a30:    9805        ..      LDR      r0,[sp,#0x14]
        0x08003a32:    9904        ..      LDR      r1,[sp,#0x10]
        0x08003a34:    2900        .)      CMP      r1,#0
        0x08003a36:    d008        ..      BEQ      0x8003a4a ; 0x8003a4a
        0x08003a38:    9813        ..      LDR      r0,[sp,#0x4c]
        0x08003a3a:    2803        .(      CMP      r0,#3
        0x08003a3c:    991c        ..      LDR      r1,[sp,#0x70]
        0x08003a3e:    d279        y.      BCS      0x8003b34 ; 0x8003b34
        0x08003a40:    2200        ."      MOVS     r2,#0
        0x08003a42:    9226        &.      STR      r2,[sp,#0x98]
        0x08003a44:    4614        .F      MOV      r4,r2
        0x08003a46:    9233        3.      STR      r2,[sp,#0xcc]
        0x08003a48:    e0ff        ..      B        0x8003c4a ; 0x8003c4a
        0x08003a4a:    991c        ..      LDR      r1,[sp,#0x70]
        0x08003a4c:    2804        .(      CMP      r0,#4
        0x08003a4e:    d200        ..      BCS      0x8003a52 ; 0x8003a52
        0x08003a50:    e706        ..      B        0x8003860 ; 0x8003860
        0x08003a52:    9f02        ..      LDR      r7,[sp,#8]
        0x08003a54:    438f        .C      BICS     r7,r7,r1
        0x08003a56:    2300        .#      MOVS     r3,#0
        0x08003a58:    9c12        ..      LDR      r4,[sp,#0x48]
        0x08003a5a:    972d        -.      STR      r7,[sp,#0xb4]
        0x08003a5c:    461a        .F      MOV      r2,r3
        0x08003a5e:    461d        .F      MOV      r5,r3
        0x08003a60:    9333        3.      STR      r3,[sp,#0xcc]
        0x08003a62:    932e        ..      STR      r3,[sp,#0xb8]
        0x08003a64:    e00b        ..      B        0x8003a7e ; 0x8003a7e
        0x08003a66:    9233        3.      STR      r2,[sp,#0xcc]
        0x08003a68:    9826        &.      LDR      r0,[sp,#0x98]
        0x08003a6a:    1808        ..      ADDS     r0,r1,r0
        0x08003a6c:    992f        /.      LDR      r1,[sp,#0xbc]
        0x08003a6e:    1808        ..      ADDS     r0,r1,r0
        0x08003a70:    9930        0.      LDR      r1,[sp,#0xc0]
        0x08003a72:    1808        ..      ADDS     r0,r1,r0
        0x08003a74:    1832        2.      ADDS     r2,r6,r0
        0x08003a76:    3410        .4      ADDS     r4,r4,#0x10
        0x08003a78:    1f3f        ?.      SUBS     r7,r7,#4
        0x08003a7a:    9e27        '.      LDR      r6,[sp,#0x9c]
        0x08003a7c:    d049        I.      BEQ      0x8003b12 ; 0x8003b12
        0x08003a7e:    9731        1.      STR      r7,[sp,#0xc4]
        0x08003a80:    9532        2.      STR      r5,[sp,#0xc8]
        0x08003a82:    9226        &.      STR      r2,[sp,#0x98]
        0x08003a84:    6860        `h      LDR      r0,[r4,#4]
        0x08003a86:    68a7        .h      LDR      r7,[r4,#8]
        0x08003a88:    2101        .!      MOVS     r1,#1
        0x08003a8a:    4287        .B      CMP      r7,r0
        0x08003a8c:    9134        4.      STR      r1,[sp,#0xd0]
        0x08003a8e:    dc00        ..      BGT      0x8003a92 ; 0x8003a92
        0x08003a90:    4619        .F      MOV      r1,r3
        0x08003a92:    9130        0.      STR      r1,[sp,#0xc0]
        0x08003a94:    6822        "h      LDR      r2,[r4,#0]
        0x08003a96:    9933        3.      LDR      r1,[sp,#0xcc]
        0x08003a98:    1851        Q.      ADDS     r1,r2,r1
        0x08003a9a:    9b28        (.      LDR      r3,[sp,#0xa0]
        0x08003a9c:    4299        .B      CMP      r1,r3
        0x08003a9e:    4605        .F      MOV      r5,r0
        0x08003aa0:    dc00        ..      BGT      0x8003aa4 ; 0x8003aa4
        0x08003aa2:    1845        E.      ADDS     r5,r0,r1
        0x08003aa4:    9e28        (.      LDR      r6,[sp,#0xa0]
        0x08003aa6:    42b5        .B      CMP      r5,r6
        0x08003aa8:    9733        3.      STR      r7,[sp,#0xcc]
        0x08003aaa:    dc01        ..      BGT      0x8003ab0 ; 0x8003ab0
        0x08003aac:    9b33        3.      LDR      r3,[sp,#0xcc]
        0x08003aae:    195f        _.      ADDS     r7,r3,r5
        0x08003ab0:    260a        .&      MOVS     r6,#0xa
        0x08003ab2:    9b28        (.      LDR      r3,[sp,#0xa0]
        0x08003ab4:    429f        .B      CMP      r7,r3
        0x08003ab6:    4633        3F      MOV      r3,r6
        0x08003ab8:    dc00        ..      BGT      0x8003abc ; 0x8003abc
        0x08003aba:    9b30        0.      LDR      r3,[sp,#0xc0]
        0x08003abc:    9330        0.      STR      r3,[sp,#0xc0]
        0x08003abe:    4290        .B      CMP      r0,r2
        0x08003ac0:    9834        4.      LDR      r0,[sp,#0xd0]
        0x08003ac2:    dc00        ..      BGT      0x8003ac6 ; 0x8003ac6
        0x08003ac4:    982e        ..      LDR      r0,[sp,#0xb8]
        0x08003ac6:    9b28        (.      LDR      r3,[sp,#0xa0]
        0x08003ac8:    429d        .B      CMP      r5,r3
        0x08003aca:    4633        3F      MOV      r3,r6
        0x08003acc:    dc00        ..      BGT      0x8003ad0 ; 0x8003ad0
        0x08003ace:    4603        .F      MOV      r3,r0
        0x08003ad0:    932f        /.      STR      r3,[sp,#0xbc]
        0x08003ad2:    9832        2.      LDR      r0,[sp,#0xc8]
        0x08003ad4:    4282        .B      CMP      r2,r0
        0x08003ad6:    9834        4.      LDR      r0,[sp,#0xd0]
        0x08003ad8:    9b2e        ..      LDR      r3,[sp,#0xb8]
        0x08003ada:    dc00        ..      BGT      0x8003ade ; 0x8003ade
        0x08003adc:    4618        .F      MOV      r0,r3
        0x08003ade:    9a28        (.      LDR      r2,[sp,#0xa0]
        0x08003ae0:    4291        .B      CMP      r1,r2
        0x08003ae2:    4631        1F      MOV      r1,r6
        0x08003ae4:    dc00        ..      BGT      0x8003ae8 ; 0x8003ae8
        0x08003ae6:    4601        .F      MOV      r1,r0
        0x08003ae8:    68e5        .h      LDR      r5,[r4,#0xc]
        0x08003aea:    9828        (.      LDR      r0,[sp,#0xa0]
        0x08003aec:    4287        .B      CMP      r7,r0
        0x08003aee:    4628        (F      MOV      r0,r5
        0x08003af0:    dc00        ..      BGT      0x8003af4 ; 0x8003af4
        0x08003af2:    19e8        ..      ADDS     r0,r5,r7
        0x08003af4:    9a33        3.      LDR      r2,[sp,#0xcc]
        0x08003af6:    4295        .B      CMP      r5,r2
        0x08003af8:    dc00        ..      BGT      0x8003afc ; 0x8003afc
        0x08003afa:    9334        4.      STR      r3,[sp,#0xd0]
        0x08003afc:    9a28        (.      LDR      r2,[sp,#0xa0]
        0x08003afe:    4290        .B      CMP      r0,r2
        0x08003b00:    dc00        ..      BGT      0x8003b04 ; 0x8003b04
        0x08003b02:    9e34        4.      LDR      r6,[sp,#0xd0]
        0x08003b04:    9a28        (.      LDR      r2,[sp,#0xa0]
        0x08003b06:    4290        .B      CMP      r0,r2
        0x08003b08:    461a        .F      MOV      r2,r3
        0x08003b0a:    9f31        1.      LDR      r7,[sp,#0xc4]
        0x08003b0c:    dcab        ..      BGT      0x8003a66 ; 0x8003a66
        0x08003b0e:    4602        .F      MOV      r2,r0
        0x08003b10:    e7a9        ..      B        0x8003a66 ; 0x8003a66
        0x08003b12:    991c        ..      LDR      r1,[sp,#0x70]
        0x08003b14:    9b2d        -.      LDR      r3,[sp,#0xb4]
        0x08003b16:    9803        ..      LDR      r0,[sp,#0xc]
        0x08003b18:    2800        .(      CMP      r0,#0
        0x08003b1a:    d101        ..      BNE      0x8003b20 ; 0x8003b20
        0x08003b1c:    9226        &.      STR      r2,[sp,#0x98]
        0x08003b1e:    e0c8        ..      B        0x8003cb2 ; 0x8003cb2
        0x08003b20:    0098        ..      LSLS     r0,r3,#2
        0x08003b22:    9912        ..      LDR      r1,[sp,#0x48]
        0x08003b24:    1809        ..      ADDS     r1,r1,r0
        0x08003b26:    6809        .h      LDR      r1,[r1,#0]
        0x08003b28:    4613        .F      MOV      r3,r2
        0x08003b2a:    42a9        .B      CMP      r1,r5
        0x08003b2c:    dd00        ..      BLE      0x8003b30 ; 0x8003b30
        0x08003b2e:    e0b6        ..      B        0x8003c9e ; 0x8003c9e
        0x08003b30:    2000        .       MOVS     r0,#0
        0x08003b32:    e0b5        ..      B        0x8003ca0 ; 0x8003ca0
        0x08003b34:    200c        .       MOVS     r0,#0xc
        0x08003b36:    4370        pC      MULS     r0,r6,r0
        0x08003b38:    9032        2.      STR      r0,[sp,#0xc8]
        0x08003b3a:    4630        0F      MOV      r0,r6
        0x08003b3c:    4388        .C      BICS     r0,r0,r1
        0x08003b3e:    9033        3.      STR      r0,[sp,#0xcc]
        0x08003b40:    00f0        ..      LSLS     r0,r6,#3
        0x08003b42:    9031        1.      STR      r0,[sp,#0xc4]
        0x08003b44:    00b0        ..      LSLS     r0,r6,#2
        0x08003b46:    9030        0.      STR      r0,[sp,#0xc0]
        0x08003b48:    0130        0.      LSLS     r0,r6,#4
        0x08003b4a:    902f        /.      STR      r0,[sp,#0xbc]
        0x08003b4c:    2100        .!      MOVS     r1,#0
        0x08003b4e:    9b12        ..      LDR      r3,[sp,#0x48]
        0x08003b50:    9126        &.      STR      r1,[sp,#0x98]
        0x08003b52:    460c        .F      MOV      r4,r1
        0x08003b54:    460a        .F      MOV      r2,r1
        0x08003b56:    e006        ..      B        0x8003b66 ; 0x8003b66
        0x08003b58:    982f        /.      LDR      r0,[sp,#0xbc]
        0x08003b5a:    181b        ..      ADDS     r3,r3,r0
        0x08003b5c:    9934        4.      LDR      r1,[sp,#0xd0]
        0x08003b5e:    1d09        ..      ADDS     r1,r1,#4
        0x08003b60:    9833        3.      LDR      r0,[sp,#0xcc]
        0x08003b62:    4281        .B      CMP      r1,r0
        0x08003b64:    d06f        o.      BEQ      0x8003c46 ; 0x8003c46
        0x08003b66:    9134        4.      STR      r1,[sp,#0xd0]
        0x08003b68:    461e        .F      MOV      r6,r3
        0x08003b6a:    9827        '.      LDR      r0,[sp,#0x9c]
        0x08003b6c:    e006        ..      B        0x8003b7c ; 0x8003b7c
        0x08003b6e:    9a26        &.      LDR      r2,[sp,#0x98]
        0x08003b70:    18a2        ..      ADDS     r2,r4,r2
        0x08003b72:    9226        &.      STR      r2,[sp,#0x98]
        0x08003b74:    1e40        @.      SUBS     r0,r0,#1
        0x08003b76:    460c        .F      MOV      r4,r1
        0x08003b78:    463a        :F      MOV      r2,r7
        0x08003b7a:    d010        ..      BEQ      0x8003b9e ; 0x8003b9e
        0x08003b7c:    ce02        ..      LDM      r6!,{r1}
        0x08003b7e:    2700        .'      MOVS     r7,#0
        0x08003b80:    42a1        .B      CMP      r1,r4
        0x08003b82:    dc01        ..      BGT      0x8003b88 ; 0x8003b88
        0x08003b84:    463c        <F      MOV      r4,r7
        0x08003b86:    e000        ..      B        0x8003b8a ; 0x8003b8a
        0x08003b88:    2401        .$      MOVS     r4,#1
        0x08003b8a:    188a        ..      ADDS     r2,r1,r2
        0x08003b8c:    9d28        (.      LDR      r5,[sp,#0xa0]
        0x08003b8e:    42aa        .B      CMP      r2,r5
        0x08003b90:    dd00        ..      BLE      0x8003b94 ; 0x8003b94
        0x08003b92:    240a        .$      MOVS     r4,#0xa
        0x08003b94:    9d28        (.      LDR      r5,[sp,#0xa0]
        0x08003b96:    42aa        .B      CMP      r2,r5
        0x08003b98:    dce9        ..      BGT      0x8003b6e ; 0x8003b6e
        0x08003b9a:    4617        .F      MOV      r7,r2
        0x08003b9c:    e7e7        ..      B        0x8003b6e ; 0x8003b6e
        0x08003b9e:    9e30        0.      LDR      r6,[sp,#0xc0]
        0x08003ba0:    9827        '.      LDR      r0,[sp,#0x9c]
        0x08003ba2:    e007        ..      B        0x8003bb4 ; 0x8003bb4
        0x08003ba4:    9d26        &.      LDR      r5,[sp,#0x98]
        0x08003ba6:    194d        M.      ADDS     r5,r1,r5
        0x08003ba8:    9526        &.      STR      r5,[sp,#0x98]
        0x08003baa:    1d36        6.      ADDS     r6,r6,#4
        0x08003bac:    1e40        @.      SUBS     r0,r0,#1
        0x08003bae:    4611        .F      MOV      r1,r2
        0x08003bb0:    4627        'F      MOV      r7,r4
        0x08003bb2:    d010        ..      BEQ      0x8003bd6 ; 0x8003bd6
        0x08003bb4:    599a        .Y      LDR      r2,[r3,r6]
        0x08003bb6:    2400        .$      MOVS     r4,#0
        0x08003bb8:    428a        .B      CMP      r2,r1
        0x08003bba:    dc01        ..      BGT      0x8003bc0 ; 0x8003bc0
        0x08003bbc:    4621        !F      MOV      r1,r4
        0x08003bbe:    e000        ..      B        0x8003bc2 ; 0x8003bc2
        0x08003bc0:    2101        .!      MOVS     r1,#1
        0x08003bc2:    19d7        ..      ADDS     r7,r2,r7
        0x08003bc4:    9d28        (.      LDR      r5,[sp,#0xa0]
        0x08003bc6:    42af        .B      CMP      r7,r5
        0x08003bc8:    dd00        ..      BLE      0x8003bcc ; 0x8003bcc
        0x08003bca:    210a        .!      MOVS     r1,#0xa
        0x08003bcc:    9d28        (.      LDR      r5,[sp,#0xa0]
        0x08003bce:    42af        .B      CMP      r7,r5
        0x08003bd0:    dce8        ..      BGT      0x8003ba4 ; 0x8003ba4
        0x08003bd2:    463c        <F      MOV      r4,r7
        0x08003bd4:    e7e6        ..      B        0x8003ba4 ; 0x8003ba4
        0x08003bd6:    9e31        1.      LDR      r6,[sp,#0xc4]
        0x08003bd8:    9827        '.      LDR      r0,[sp,#0x9c]
        0x08003bda:    e007        ..      B        0x8003bec ; 0x8003bec
        0x08003bdc:    9c26        &.      LDR      r4,[sp,#0x98]
        0x08003bde:    1914        ..      ADDS     r4,r2,r4
        0x08003be0:    9426        &.      STR      r4,[sp,#0x98]
        0x08003be2:    1d36        6.      ADDS     r6,r6,#4
        0x08003be4:    1e40        @.      SUBS     r0,r0,#1
        0x08003be6:    460a        .F      MOV      r2,r1
        0x08003be8:    463c        <F      MOV      r4,r7
        0x08003bea:    d010        ..      BEQ      0x8003c0e ; 0x8003c0e
        0x08003bec:    5999        .Y      LDR      r1,[r3,r6]
        0x08003bee:    2700        .'      MOVS     r7,#0
        0x08003bf0:    4291        .B      CMP      r1,r2
        0x08003bf2:    dc01        ..      BGT      0x8003bf8 ; 0x8003bf8
        0x08003bf4:    463a        :F      MOV      r2,r7
        0x08003bf6:    e000        ..      B        0x8003bfa ; 0x8003bfa
        0x08003bf8:    2201        ."      MOVS     r2,#1
        0x08003bfa:    190c        ..      ADDS     r4,r1,r4
        0x08003bfc:    9d28        (.      LDR      r5,[sp,#0xa0]
        0x08003bfe:    42ac        .B      CMP      r4,r5
        0x08003c00:    dd00        ..      BLE      0x8003c04 ; 0x8003c04
        0x08003c02:    220a        ."      MOVS     r2,#0xa
        0x08003c04:    9d28        (.      LDR      r5,[sp,#0xa0]
        0x08003c06:    42ac        .B      CMP      r4,r5
        0x08003c08:    dce8        ..      BGT      0x8003bdc ; 0x8003bdc
        0x08003c0a:    4627        'F      MOV      r7,r4
        0x08003c0c:    e7e6        ..      B        0x8003bdc ; 0x8003bdc
        0x08003c0e:    9e32        2.      LDR      r6,[sp,#0xc8]
        0x08003c10:    9827        '.      LDR      r0,[sp,#0x9c]
        0x08003c12:    e007        ..      B        0x8003c24 ; 0x8003c24
        0x08003c14:    9d26        &.      LDR      r5,[sp,#0x98]
        0x08003c16:    194d        M.      ADDS     r5,r1,r5
        0x08003c18:    9526        &.      STR      r5,[sp,#0x98]
        0x08003c1a:    1d36        6.      ADDS     r6,r6,#4
        0x08003c1c:    1e40        @.      SUBS     r0,r0,#1
        0x08003c1e:    4621        !F      MOV      r1,r4
        0x08003c20:    4617        .F      MOV      r7,r2
        0x08003c22:    d099        ..      BEQ      0x8003b58 ; 0x8003b58
        0x08003c24:    599c        .Y      LDR      r4,[r3,r6]
        0x08003c26:    2200        ."      MOVS     r2,#0
        0x08003c28:    428c        .B      CMP      r4,r1
        0x08003c2a:    dc01        ..      BGT      0x8003c30 ; 0x8003c30
        0x08003c2c:    4611        .F      MOV      r1,r2
        0x08003c2e:    e000        ..      B        0x8003c32 ; 0x8003c32
        0x08003c30:    2101        .!      MOVS     r1,#1
        0x08003c32:    19e7        ..      ADDS     r7,r4,r7
        0x08003c34:    9d28        (.      LDR      r5,[sp,#0xa0]
        0x08003c36:    42af        .B      CMP      r7,r5
        0x08003c38:    dd00        ..      BLE      0x8003c3c ; 0x8003c3c
        0x08003c3a:    210a        .!      MOVS     r1,#0xa
        0x08003c3c:    9d28        (.      LDR      r5,[sp,#0xa0]
        0x08003c3e:    42af        .B      CMP      r7,r5
        0x08003c40:    dce8        ..      BGT      0x8003c14 ; 0x8003c14
        0x08003c42:    463a        :F      MOV      r2,r7
        0x08003c44:    e7e6        ..      B        0x8003c14 ; 0x8003c14
        0x08003c46:    9e27        '.      LDR      r6,[sp,#0x9c]
        0x08003c48:    991c        ..      LDR      r1,[sp,#0x70]
        0x08003c4a:    9810        ..      LDR      r0,[sp,#0x40]
        0x08003c4c:    2800        .(      CMP      r0,#0
        0x08003c4e:    d130        0.      BNE      0x8003cb2 ; 0x8003cb2
        0x08003c50:    4630        0F      MOV      r0,r6
        0x08003c52:    9933        3.      LDR      r1,[sp,#0xcc]
        0x08003c54:    4348        HC      MULS     r0,r1,r0
        0x08003c56:    0080        ..      LSLS     r0,r0,#2
        0x08003c58:    9912        ..      LDR      r1,[sp,#0x48]
        0x08003c5a:    1808        ..      ADDS     r0,r1,r0
        0x08003c5c:    4631        1F      MOV      r1,r6
        0x08003c5e:    e006        ..      B        0x8003c6e ; 0x8003c6e
        0x08003c60:    9a26        &.      LDR      r2,[sp,#0x98]
        0x08003c62:    18a2        ..      ADDS     r2,r4,r2
        0x08003c64:    9226        &.      STR      r2,[sp,#0x98]
        0x08003c66:    1e49        I.      SUBS     r1,r1,#1
        0x08003c68:    461c        .F      MOV      r4,r3
        0x08003c6a:    462a        *F      MOV      r2,r5
        0x08003c6c:    d010        ..      BEQ      0x8003c90 ; 0x8003c90
        0x08003c6e:    c808        ..      LDM      r0!,{r3}
        0x08003c70:    2500        .%      MOVS     r5,#0
        0x08003c72:    42a3        .B      CMP      r3,r4
        0x08003c74:    dc01        ..      BGT      0x8003c7a ; 0x8003c7a
        0x08003c76:    462c        ,F      MOV      r4,r5
        0x08003c78:    e000        ..      B        0x8003c7c ; 0x8003c7c
        0x08003c7a:    2401        .$      MOVS     r4,#1
        0x08003c7c:    189a        ..      ADDS     r2,r3,r2
        0x08003c7e:    9f28        (.      LDR      r7,[sp,#0xa0]
        0x08003c80:    42ba        .B      CMP      r2,r7
        0x08003c82:    dd00        ..      BLE      0x8003c86 ; 0x8003c86
        0x08003c84:    240a        .$      MOVS     r4,#0xa
        0x08003c86:    9f28        (.      LDR      r7,[sp,#0xa0]
        0x08003c88:    42ba        .B      CMP      r2,r7
        0x08003c8a:    dce9        ..      BGT      0x8003c60 ; 0x8003c60
        0x08003c8c:    4615        .F      MOV      r5,r2
        0x08003c8e:    e7e7        ..      B        0x8003c60 ; 0x8003c60
        0x08003c90:    980f        ..      LDR      r0,[sp,#0x3c]
        0x08003c92:    2801        .(      CMP      r0,#1
        0x08003c94:    d001        ..      BEQ      0x8003c9a ; 0x8003c9a
        0x08003c96:    f001fb18    ....    BL       0x80052ca ; 0x80052ca
        0x08003c9a:    991c        ..      LDR      r1,[sp,#0x70]
        0x08003c9c:    e009        ..      B        0x8003cb2 ; 0x8003cb2
        0x08003c9e:    2001        .       MOVS     r0,#1
        0x08003ca0:    9a33        3.      LDR      r2,[sp,#0xcc]
        0x08003ca2:    1889        ..      ADDS     r1,r1,r2
        0x08003ca4:    9a28        (.      LDR      r2,[sp,#0xa0]
        0x08003ca6:    4291        .B      CMP      r1,r2
        0x08003ca8:    dd00        ..      BLE      0x8003cac ; 0x8003cac
        0x08003caa:    200a        .       MOVS     r0,#0xa
        0x08003cac:    991c        ..      LDR      r1,[sp,#0x70]
        0x08003cae:    18c3        ..      ADDS     r3,r0,r3
        0x08003cb0:    9326        &.      STR      r3,[sp,#0x98]
        0x08003cb2:    2006        .       MOVS     r0,#6
        0x08003cb4:    902d        -.      STR      r0,[sp,#0xb4]
        0x08003cb6:    4370        pC      MULS     r0,r6,r0
        0x08003cb8:    901b        ..      STR      r0,[sp,#0x6c]
        0x08003cba:    43cc        .C      MVNS     r4,r1
        0x08003cbc:    9433        3.      STR      r4,[sp,#0xcc]
        0x08003cbe:    4630        0F      MOV      r0,r6
        0x08003cc0:    4020         @      ANDS     r0,r0,r4
        0x08003cc2:    9022        ".      STR      r0,[sp,#0x88]
        0x08003cc4:    1f32        2.      SUBS     r2,r6,#4
        0x08003cc6:    0890        ..      LSRS     r0,r2,#2
        0x08003cc8:    1c43        C.      ADDS     r3,r0,#1
        0x08003cca:    981a        ..      LDR      r0,[sp,#0x68]
        0x08003ccc:    4018        .@      ANDS     r0,r0,r3
        0x08003cce:    901a        ..      STR      r0,[sp,#0x68]
        0x08003cd0:    400b        .@      ANDS     r3,r3,r1
        0x08003cd2:    930d        ..      STR      r3,[sp,#0x34]
        0x08003cd4:    920a        ..      STR      r2,[sp,#0x28]
        0x08003cd6:    4610        .F      MOV      r0,r2
        0x08003cd8:    4020         @      ANDS     r0,r0,r4
        0x08003cda:    1d00        ..      ADDS     r0,r0,#4
        0x08003cdc:    9009        ..      STR      r0,[sp,#0x24]
        0x08003cde:    00b0        ..      LSLS     r0,r6,#2
        0x08003ce0:    901e        ..      STR      r0,[sp,#0x78]
        0x08003ce2:    00f0        ..      LSLS     r0,r6,#3
        0x08003ce4:    901d        ..      STR      r0,[sp,#0x74]
        0x08003ce6:    9814        ..      LDR      r0,[sp,#0x50]
        0x08003ce8:    4601        .F      MOV      r1,r0
        0x08003cea:    311e        .1      ADDS     r1,r1,#0x1e
        0x08003cec:    9108        ..      STR      r1,[sp,#0x20]
        0x08003cee:    4601        .F      MOV      r1,r0
        0x08003cf0:    3116        .1      ADDS     r1,r1,#0x16
        0x08003cf2:    9107        ..      STR      r1,[sp,#0x1c]
        0x08003cf4:    300e        .0      ADDS     r0,r0,#0xe
        0x08003cf6:    9006        ..      STR      r0,[sp,#0x18]
        0x08003cf8:    0072        r.      LSLS     r2,r6,#1
        0x08003cfa:    2500        .%      MOVS     r5,#0
        0x08003cfc:    9811        ..      LDR      r0,[sp,#0x44]
        0x08003cfe:    9024        $.      STR      r0,[sp,#0x90]
        0x08003d00:    9234        4.      STR      r2,[sp,#0xd0]
        0x08003d02:    e00a        ..      B        0x8003d1a ; 0x8003d1a
        0x08003d04:    00b8        ..      LSLS     r0,r7,#2
        0x08003d06:    9923        #.      LDR      r1,[sp,#0x8c]
        0x08003d08:    500b        .P      STR      r3,[r1,r0]
        0x08003d0a:    9a34        4.      LDR      r2,[sp,#0xd0]
        0x08003d0c:    9824        $.      LDR      r0,[sp,#0x90]
        0x08003d0e:    1880        ..      ADDS     r0,r0,r2
        0x08003d10:    9024        $.      STR      r0,[sp,#0x90]
        0x08003d12:    1c6d        m.      ADDS     r5,r5,#1
        0x08003d14:    42b5        .B      CMP      r5,r6
        0x08003d16:    d100        ..      BNE      0x8003d1a ; 0x8003d1a
        0x08003d18:    e314        ..      B        0x8004344 ; 0x8004344
        0x08003d1a:    4634        4F      MOV      r4,r6
        0x08003d1c:    436c        lC      MULS     r4,r5,r4
        0x08003d1e:    00a0        ..      LSLS     r0,r4,#2
        0x08003d20:    9912        ..      LDR      r1,[sp,#0x48]
        0x08003d22:    1808        ..      ADDS     r0,r1,r0
        0x08003d24:    9023        #.      STR      r0,[sp,#0x8c]
        0x08003d26:    9813        ..      LDR      r0,[sp,#0x4c]
        0x08003d28:    2803        .(      CMP      r0,#3
        0x08003d2a:    d208        ..      BCS      0x8003d3e ; 0x8003d3e
        0x08003d2c:    9810        ..      LDR      r0,[sp,#0x40]
        0x08003d2e:    2800        .(      CMP      r0,#0
        0x08003d30:    d1ec        ..      BNE      0x8003d0c ; 0x8003d0c
        0x08003d32:    2700        .'      MOVS     r7,#0
        0x08003d34:    9814        ..      LDR      r0,[sp,#0x50]
        0x08003d36:    9032        2.      STR      r0,[sp,#0xc8]
        0x08003d38:    463a        :F      MOV      r2,r7
        0x08003d3a:    463b        ;F      MOV      r3,r7
        0x08003d3c:    e228        (.      B        0x8004190 ; 0x8004190
        0x08003d3e:    940b        ..      STR      r4,[sp,#0x2c]
        0x08003d40:    950c        ..      STR      r5,[sp,#0x30]
        0x08003d42:    980a        ..      LDR      r0,[sp,#0x28]
        0x08003d44:    280c        .(      CMP      r0,#0xc
        0x08003d46:    d201        ..      BCS      0x8003d4c ; 0x8003d4c
        0x08003d48:    2700        .'      MOVS     r7,#0
        0x08003d4a:    e11f        ..      B        0x8003f8c ; 0x8003f8c
        0x08003d4c:    2100        .!      MOVS     r1,#0
        0x08003d4e:    9808        ..      LDR      r0,[sp,#0x20]
        0x08003d50:    9021        !.      STR      r0,[sp,#0x84]
        0x08003d52:    9807        ..      LDR      r0,[sp,#0x1c]
        0x08003d54:    9020         .      STR      r0,[sp,#0x80]
        0x08003d56:    9806        ..      LDR      r0,[sp,#0x18]
        0x08003d58:    901f        ..      STR      r0,[sp,#0x7c]
        0x08003d5a:    9a14        ..      LDR      r2,[sp,#0x50]
        0x08003d5c:    460f        .F      MOV      r7,r1
        0x08003d5e:    460b        .F      MOV      r3,r1
        0x08003d60:    912f        /.      STR      r1,[sp,#0xbc]
        0x08003d62:    9318        ..      STR      r3,[sp,#0x60]
        0x08003d64:    463b        ;F      MOV      r3,r7
        0x08003d66:    981c        ..      LDR      r0,[sp,#0x70]
        0x08003d68:    4303        .C      ORRS     r3,r3,r0
        0x08003d6a:    932e        ..      STR      r3,[sp,#0xb8]
        0x08003d6c:    2302        .#      MOVS     r3,#2
        0x08003d6e:    4638        8F      MOV      r0,r7
        0x08003d70:    9330        0.      STR      r3,[sp,#0xc0]
        0x08003d72:    4318        .C      ORRS     r0,r0,r3
        0x08003d74:    902a        *.      STR      r0,[sp,#0xa8]
        0x08003d76:    2001        .       MOVS     r0,#1
        0x08003d78:    9725        %.      STR      r7,[sp,#0x94]
        0x08003d7a:    902b        +.      STR      r0,[sp,#0xac]
        0x08003d7c:    4307        .C      ORRS     r7,r7,r0
        0x08003d7e:    9729        ).      STR      r7,[sp,#0xa4]
        0x08003d80:    9c24        $.      LDR      r4,[sp,#0x90]
        0x08003d82:    4633        3F      MOV      r3,r6
        0x08003d84:    9219        ..      STR      r2,[sp,#0x64]
        0x08003d86:    4610        .F      MOV      r0,r2
        0x08003d88:    460e        .F      MOV      r6,r1
        0x08003d8a:    460a        .F      MOV      r2,r1
        0x08003d8c:    9132        2.      STR      r1,[sp,#0xc8]
        0x08003d8e:    9131        1.      STR      r1,[sp,#0xc4]
        0x08003d90:    992f        /.      LDR      r1,[sp,#0xbc]
        0x08003d92:    5e67        g^      LDRSH    r7,[r4,r1]
        0x08003d94:    9d2d        -.      LDR      r5,[sp,#0xb4]
        0x08003d96:    5f45        E_      LDRSH    r5,[r0,r5]
        0x08003d98:    437d        }C      MULS     r5,r7,r5
        0x08003d9a:    9932        2.      LDR      r1,[sp,#0xc8]
        0x08003d9c:    1869        i.      ADDS     r1,r5,r1
        0x08003d9e:    9132        2.      STR      r1,[sp,#0xc8]
        0x08003da0:    9931        1.      LDR      r1,[sp,#0xc4]
        0x08003da2:    2504        .%      MOVS     r5,#4
        0x08003da4:    952c        ,.      STR      r5,[sp,#0xb0]
        0x08003da6:    5f45        E_      LDRSH    r5,[r0,r5]
        0x08003da8:    437d        }C      MULS     r5,r7,r5
        0x08003daa:    18aa        ..      ADDS     r2,r5,r2
        0x08003dac:    9d30        0.      LDR      r5,[sp,#0xc0]
        0x08003dae:    5f45        E_      LDRSH    r5,[r0,r5]
        0x08003db0:    437d        }C      MULS     r5,r7,r5
        0x08003db2:    19ae        ..      ADDS     r6,r5,r6
        0x08003db4:    9d2f        /.      LDR      r5,[sp,#0xbc]
        0x08003db6:    5f45        E_      LDRSH    r5,[r0,r5]
        0x08003db8:    437d        }C      MULS     r5,r7,r5
        0x08003dba:    1869        i.      ADDS     r1,r5,r1
        0x08003dbc:    9d34        4.      LDR      r5,[sp,#0xd0]
        0x08003dbe:    1940        @.      ADDS     r0,r0,r5
        0x08003dc0:    1ca4        ..      ADDS     r4,r4,#2
        0x08003dc2:    1e5b        [.      SUBS     r3,r3,#1
        0x08003dc4:    d1e3        ..      BNE      0x8003d8e ; 0x8003d8e
        0x08003dc6:    9829        ).      LDR      r0,[sp,#0xa4]
        0x08003dc8:    0080        ..      LSLS     r0,r0,#2
        0x08003dca:    9b23        #.      LDR      r3,[sp,#0x8c]
        0x08003dcc:    501e        .P      STR      r6,[r3,r0]
        0x08003dce:    9c25        %.      LDR      r4,[sp,#0x94]
        0x08003dd0:    00a0        ..      LSLS     r0,r4,#2
        0x08003dd2:    5019        .P      STR      r1,[r3,r0]
        0x08003dd4:    982a        *.      LDR      r0,[sp,#0xa8]
        0x08003dd6:    0080        ..      LSLS     r0,r0,#2
        0x08003dd8:    501a        .P      STR      r2,[r3,r0]
        0x08003dda:    982e        ..      LDR      r0,[sp,#0xb8]
        0x08003ddc:    0080        ..      LSLS     r0,r0,#2
        0x08003dde:    9932        2.      LDR      r1,[sp,#0xc8]
        0x08003de0:    5019        .P      STR      r1,[r3,r0]
        0x08003de2:    2007        .       MOVS     r0,#7
        0x08003de4:    4320         C      ORRS     r0,r0,r4
        0x08003de6:    9017        ..      STR      r0,[sp,#0x5c]
        0x08003de8:    4620         F      MOV      r0,r4
        0x08003dea:    992d        -.      LDR      r1,[sp,#0xb4]
        0x08003dec:    4308        .C      ORRS     r0,r0,r1
        0x08003dee:    9016        ..      STR      r0,[sp,#0x58]
        0x08003df0:    2105        .!      MOVS     r1,#5
        0x08003df2:    4620         F      MOV      r0,r4
        0x08003df4:    912a        *.      STR      r1,[sp,#0xa8]
        0x08003df6:    4308        .C      ORRS     r0,r0,r1
        0x08003df8:    9015        ..      STR      r0,[sp,#0x54]
        0x08003dfa:    982c        ,.      LDR      r0,[sp,#0xb0]
        0x08003dfc:    4320         C      ORRS     r0,r0,r4
        0x08003dfe:    902c        ,.      STR      r0,[sp,#0xb0]
        0x08003e00:    2000        .       MOVS     r0,#0
        0x08003e02:    9f24        $.      LDR      r7,[sp,#0x90]
        0x08003e04:    9927        '.      LDR      r1,[sp,#0x9c]
        0x08003e06:    9e1f        ..      LDR      r6,[sp,#0x7c]
        0x08003e08:    4602        .F      MOV      r2,r0
        0x08003e0a:    4603        .F      MOV      r3,r0
        0x08003e0c:    4604        .F      MOV      r4,r0
        0x08003e0e:    9029        ).      STR      r0,[sp,#0xa4]
        0x08003e10:    9030        0.      STR      r0,[sp,#0xc0]
        0x08003e12:    922e        ..      STR      r2,[sp,#0xb8]
        0x08003e14:    9a29        ).      LDR      r2,[sp,#0xa4]
        0x08003e16:    5eb8        .^      LDRSH    r0,[r7,r2]
        0x08003e18:    5eb5        .^      LDRSH    r5,[r6,r2]
        0x08003e1a:    4345        EC      MULS     r5,r0,r5
        0x08003e1c:    9a30        0.      LDR      r2,[sp,#0xc0]
        0x08003e1e:    18aa        ..      ADDS     r2,r5,r2
        0x08003e20:    9230        0.      STR      r2,[sp,#0xc0]
        0x08003e22:    9a2e        ..      LDR      r2,[sp,#0xb8]
        0x08003e24:    9d2b        +.      LDR      r5,[sp,#0xac]
        0x08003e26:    43ed        .C      MVNS     r5,r5
        0x08003e28:    9532        2.      STR      r5,[sp,#0xc8]
        0x08003e2a:    5f75        u_      LDRSH    r5,[r6,r5]
        0x08003e2c:    4345        EC      MULS     r5,r0,r5
        0x08003e2e:    192c        ,.      ADDS     r4,r5,r4
        0x08003e30:    9d33        3.      LDR      r5,[sp,#0xcc]
        0x08003e32:    5f75        u_      LDRSH    r5,[r6,r5]
        0x08003e34:    4345        EC      MULS     r5,r0,r5
        0x08003e36:    18eb        ..      ADDS     r3,r5,r3
        0x08003e38:    9d2a        *.      LDR      r5,[sp,#0xa8]
        0x08003e3a:    43ed        .C      MVNS     r5,r5
        0x08003e3c:    9531        1.      STR      r5,[sp,#0xc4]
        0x08003e3e:    5f75        u_      LDRSH    r5,[r6,r5]
        0x08003e40:    4345        EC      MULS     r5,r0,r5
        0x08003e42:    18aa        ..      ADDS     r2,r5,r2
        0x08003e44:    9834        4.      LDR      r0,[sp,#0xd0]
        0x08003e46:    1836        6.      ADDS     r6,r6,r0
        0x08003e48:    1cbf        ..      ADDS     r7,r7,#2
        0x08003e4a:    1e49        I.      SUBS     r1,r1,#1
        0x08003e4c:    d1e1        ..      BNE      0x8003e12 ; 0x8003e12
        0x08003e4e:    9815        ..      LDR      r0,[sp,#0x54]
        0x08003e50:    0080        ..      LSLS     r0,r0,#2
        0x08003e52:    9923        #.      LDR      r1,[sp,#0x8c]
        0x08003e54:    500b        .P      STR      r3,[r1,r0]
        0x08003e56:    982c        ,.      LDR      r0,[sp,#0xb0]
        0x08003e58:    0080        ..      LSLS     r0,r0,#2
        0x08003e5a:    500a        .P      STR      r2,[r1,r0]
        0x08003e5c:    9816        ..      LDR      r0,[sp,#0x58]
        0x08003e5e:    0080        ..      LSLS     r0,r0,#2
        0x08003e60:    500c        .P      STR      r4,[r1,r0]
        0x08003e62:    9817        ..      LDR      r0,[sp,#0x5c]
        0x08003e64:    0080        ..      LSLS     r0,r0,#2
        0x08003e66:    9a30        0.      LDR      r2,[sp,#0xc0]
        0x08003e68:    500a        .P      STR      r2,[r1,r0]
        0x08003e6a:    210b        .!      MOVS     r1,#0xb
        0x08003e6c:    9825        %.      LDR      r0,[sp,#0x94]
        0x08003e6e:    4301        .C      ORRS     r1,r1,r0
        0x08003e70:    912b        +.      STR      r1,[sp,#0xac]
        0x08003e72:    210a        .!      MOVS     r1,#0xa
        0x08003e74:    4301        .C      ORRS     r1,r1,r0
        0x08003e76:    912a        *.      STR      r1,[sp,#0xa8]
        0x08003e78:    2109        .!      MOVS     r1,#9
        0x08003e7a:    4301        .C      ORRS     r1,r1,r0
        0x08003e7c:    9129        ).      STR      r1,[sp,#0xa4]
        0x08003e7e:    2108        .!      MOVS     r1,#8
        0x08003e80:    4301        .C      ORRS     r1,r1,r0
        0x08003e82:    9117        ..      STR      r1,[sp,#0x5c]
        0x08003e84:    2000        .       MOVS     r0,#0
        0x08003e86:    9b24        $.      LDR      r3,[sp,#0x90]
        0x08003e88:    9f27        '.      LDR      r7,[sp,#0x9c]
        0x08003e8a:    9920         .      LDR      r1,[sp,#0x80]
        0x08003e8c:    4605        .F      MOV      r5,r0
        0x08003e8e:    4606        .F      MOV      r6,r0
        0x08003e90:    4604        .F      MOV      r4,r0
        0x08003e92:    902c        ,.      STR      r0,[sp,#0xb0]
        0x08003e94:    9030        0.      STR      r0,[sp,#0xc0]
        0x08003e96:    942e        ..      STR      r4,[sp,#0xb8]
        0x08003e98:    9c2c        ,.      LDR      r4,[sp,#0xb0]
        0x08003e9a:    5f18        ._      LDRSH    r0,[r3,r4]
        0x08003e9c:    5f0a        ._      LDRSH    r2,[r1,r4]
        0x08003e9e:    4342        BC      MULS     r2,r0,r2
        0x08003ea0:    9c30        0.      LDR      r4,[sp,#0xc0]
        0x08003ea2:    1914        ..      ADDS     r4,r2,r4
        0x08003ea4:    9430        0.      STR      r4,[sp,#0xc0]
        0x08003ea6:    9c2e        ..      LDR      r4,[sp,#0xb8]
        0x08003ea8:    9a32        2.      LDR      r2,[sp,#0xc8]
        0x08003eaa:    5e8a        .^      LDRSH    r2,[r1,r2]
        0x08003eac:    4342        BC      MULS     r2,r0,r2
        0x08003eae:    1914        ..      ADDS     r4,r2,r4
        0x08003eb0:    9a33        3.      LDR      r2,[sp,#0xcc]
        0x08003eb2:    5e8a        .^      LDRSH    r2,[r1,r2]
        0x08003eb4:    4342        BC      MULS     r2,r0,r2
        0x08003eb6:    1996        ..      ADDS     r6,r2,r6
        0x08003eb8:    9a31        1.      LDR      r2,[sp,#0xc4]
        0x08003eba:    5e8a        .^      LDRSH    r2,[r1,r2]
        0x08003ebc:    4342        BC      MULS     r2,r0,r2
        0x08003ebe:    1955        U.      ADDS     r5,r2,r5
        0x08003ec0:    9834        4.      LDR      r0,[sp,#0xd0]
        0x08003ec2:    1809        ..      ADDS     r1,r1,r0
        0x08003ec4:    1c9b        ..      ADDS     r3,r3,#2
        0x08003ec6:    1e7f        ..      SUBS     r7,r7,#1
        0x08003ec8:    d1e5        ..      BNE      0x8003e96 ; 0x8003e96
        0x08003eca:    9829        ).      LDR      r0,[sp,#0xa4]
        0x08003ecc:    0080        ..      LSLS     r0,r0,#2
        0x08003ece:    9923        #.      LDR      r1,[sp,#0x8c]
        0x08003ed0:    500e        .P      STR      r6,[r1,r0]
        0x08003ed2:    9817        ..      LDR      r0,[sp,#0x5c]
        0x08003ed4:    0080        ..      LSLS     r0,r0,#2
        0x08003ed6:    500d        .P      STR      r5,[r1,r0]
        0x08003ed8:    982a        *.      LDR      r0,[sp,#0xa8]
        0x08003eda:    0080        ..      LSLS     r0,r0,#2
        0x08003edc:    500c        .P      STR      r4,[r1,r0]
        0x08003ede:    982b        +.      LDR      r0,[sp,#0xac]
        0x08003ee0:    0080        ..      LSLS     r0,r0,#2
        0x08003ee2:    9a30        0.      LDR      r2,[sp,#0xc0]
        0x08003ee4:    500a        .P      STR      r2,[r1,r0]
        0x08003ee6:    210f        .!      MOVS     r1,#0xf
        0x08003ee8:    9825        %.      LDR      r0,[sp,#0x94]
        0x08003eea:    4301        .C      ORRS     r1,r1,r0
        0x08003eec:    912b        +.      STR      r1,[sp,#0xac]
        0x08003eee:    210e        .!      MOVS     r1,#0xe
        0x08003ef0:    4301        .C      ORRS     r1,r1,r0
        0x08003ef2:    912a        *.      STR      r1,[sp,#0xa8]
        0x08003ef4:    210d        .!      MOVS     r1,#0xd
        0x08003ef6:    4301        .C      ORRS     r1,r1,r0
        0x08003ef8:    9129        ).      STR      r1,[sp,#0xa4]
        0x08003efa:    210c        .!      MOVS     r1,#0xc
        0x08003efc:    4301        .C      ORRS     r1,r1,r0
        0x08003efe:    9117        ..      STR      r1,[sp,#0x5c]
        0x08003f00:    2000        .       MOVS     r0,#0
        0x08003f02:    9b24        $.      LDR      r3,[sp,#0x90]
        0x08003f04:    9f27        '.      LDR      r7,[sp,#0x9c]
        0x08003f06:    9921        !.      LDR      r1,[sp,#0x84]
        0x08003f08:    4605        .F      MOV      r5,r0
        0x08003f0a:    4606        .F      MOV      r6,r0
        0x08003f0c:    4604        .F      MOV      r4,r0
        0x08003f0e:    902c        ,.      STR      r0,[sp,#0xb0]
        0x08003f10:    9030        0.      STR      r0,[sp,#0xc0]
        0x08003f12:    942e        ..      STR      r4,[sp,#0xb8]
        0x08003f14:    9c2c        ,.      LDR      r4,[sp,#0xb0]
        0x08003f16:    5f18        ._      LDRSH    r0,[r3,r4]
        0x08003f18:    5f0a        ._      LDRSH    r2,[r1,r4]
        0x08003f1a:    4342        BC      MULS     r2,r0,r2
        0x08003f1c:    9c30        0.      LDR      r4,[sp,#0xc0]
        0x08003f1e:    1914        ..      ADDS     r4,r2,r4
        0x08003f20:    9430        0.      STR      r4,[sp,#0xc0]
        0x08003f22:    9c2e        ..      LDR      r4,[sp,#0xb8]
        0x08003f24:    9a32        2.      LDR      r2,[sp,#0xc8]
        0x08003f26:    5e8a        .^      LDRSH    r2,[r1,r2]
        0x08003f28:    4342        BC      MULS     r2,r0,r2
        0x08003f2a:    1914        ..      ADDS     r4,r2,r4
        0x08003f2c:    9a33        3.      LDR      r2,[sp,#0xcc]
        0x08003f2e:    5e8a        .^      LDRSH    r2,[r1,r2]
        0x08003f30:    4342        BC      MULS     r2,r0,r2
        0x08003f32:    1996        ..      ADDS     r6,r2,r6
        0x08003f34:    9a31        1.      LDR      r2,[sp,#0xc4]
        0x08003f36:    5e8a        .^      LDRSH    r2,[r1,r2]
        0x08003f38:    4342        BC      MULS     r2,r0,r2
        0x08003f3a:    1955        U.      ADDS     r5,r2,r5
        0x08003f3c:    9834        4.      LDR      r0,[sp,#0xd0]
        0x08003f3e:    1809        ..      ADDS     r1,r1,r0
        0x08003f40:    1c9b        ..      ADDS     r3,r3,#2
        0x08003f42:    1e7f        ..      SUBS     r7,r7,#1
        0x08003f44:    d1e5        ..      BNE      0x8003f12 ; 0x8003f12
        0x08003f46:    9829        ).      LDR      r0,[sp,#0xa4]
        0x08003f48:    0080        ..      LSLS     r0,r0,#2
        0x08003f4a:    9923        #.      LDR      r1,[sp,#0x8c]
        0x08003f4c:    500e        .P      STR      r6,[r1,r0]
        0x08003f4e:    9817        ..      LDR      r0,[sp,#0x5c]
        0x08003f50:    0080        ..      LSLS     r0,r0,#2
        0x08003f52:    500d        .P      STR      r5,[r1,r0]
        0x08003f54:    982a        *.      LDR      r0,[sp,#0xa8]
        0x08003f56:    0080        ..      LSLS     r0,r0,#2
        0x08003f58:    500c        .P      STR      r4,[r1,r0]
        0x08003f5a:    982b        +.      LDR      r0,[sp,#0xac]
        0x08003f5c:    0080        ..      LSLS     r0,r0,#2
        0x08003f5e:    9a30        0.      LDR      r2,[sp,#0xc0]
        0x08003f60:    500a        .P      STR      r2,[r1,r0]
        0x08003f62:    9821        !.      LDR      r0,[sp,#0x84]
        0x08003f64:    3020         0      ADDS     r0,r0,#0x20
        0x08003f66:    9021        !.      STR      r0,[sp,#0x84]
        0x08003f68:    9820         .      LDR      r0,[sp,#0x80]
        0x08003f6a:    3020         0      ADDS     r0,r0,#0x20
        0x08003f6c:    9020         .      STR      r0,[sp,#0x80]
        0x08003f6e:    981f        ..      LDR      r0,[sp,#0x7c]
        0x08003f70:    3020         0      ADDS     r0,r0,#0x20
        0x08003f72:    901f        ..      STR      r0,[sp,#0x7c]
        0x08003f74:    9a19        ..      LDR      r2,[sp,#0x64]
        0x08003f76:    3220         2      ADDS     r2,r2,#0x20
        0x08003f78:    9b18        ..      LDR      r3,[sp,#0x60]
        0x08003f7a:    1d1b        ..      ADDS     r3,r3,#4
        0x08003f7c:    9f25        %.      LDR      r7,[sp,#0x94]
        0x08003f7e:    3710        .7      ADDS     r7,r7,#0x10
        0x08003f80:    981a        ..      LDR      r0,[sp,#0x68]
        0x08003f82:    4283        .B      CMP      r3,r0
        0x08003f84:    9e27        '.      LDR      r6,[sp,#0x9c]
        0x08003f86:    992f        /.      LDR      r1,[sp,#0xbc]
        0x08003f88:    d000        ..      BEQ      0x8003f8c ; 0x8003f8c
        0x08003f8a:    e6ea        ..      B        0x8003d62 ; 0x8003d62
        0x08003f8c:    980d        ..      LDR      r0,[sp,#0x34]
        0x08003f8e:    2800        .(      CMP      r0,#0
        0x08003f90:    d100        ..      BNE      0x8003f94 ; 0x8003f94
        0x08003f92:    e0c6        ..      B        0x8004122 ; 0x8004122
        0x08003f94:    0078        x.      LSLS     r0,r7,#1
        0x08003f96:    9914        ..      LDR      r1,[sp,#0x50]
        0x08003f98:    180b        ..      ADDS     r3,r1,r0
        0x08003f9a:    1cf8        ..      ADDS     r0,r7,#3
        0x08003f9c:    902f        /.      STR      r0,[sp,#0xbc]
        0x08003f9e:    1cb8        ..      ADDS     r0,r7,#2
        0x08003fa0:    902e        ..      STR      r0,[sp,#0xb8]
        0x08003fa2:    9725        %.      STR      r7,[sp,#0x94]
        0x08003fa4:    1c78        x.      ADDS     r0,r7,#1
        0x08003fa6:    902c        ,.      STR      r0,[sp,#0xb0]
        0x08003fa8:    2100        .!      MOVS     r1,#0
        0x08003faa:    4632        2F      MOV      r2,r6
        0x08003fac:    9c24        $.      LDR      r4,[sp,#0x90]
        0x08003fae:    460d        .F      MOV      r5,r1
        0x08003fb0:    4608        .F      MOV      r0,r1
        0x08003fb2:    460f        .F      MOV      r7,r1
        0x08003fb4:    9131        1.      STR      r1,[sp,#0xc4]
        0x08003fb6:    9132        2.      STR      r1,[sp,#0xc8]
        0x08003fb8:    9530        0.      STR      r5,[sp,#0xc0]
        0x08003fba:    9931        1.      LDR      r1,[sp,#0xc4]
        0x08003fbc:    5e61        a^      LDRSH    r1,[r4,r1]
        0x08003fbe:    9d2d        -.      LDR      r5,[sp,#0xb4]
        0x08003fc0:    5f5e        ^_      LDRSH    r6,[r3,r5]
        0x08003fc2:    434e        NC      MULS     r6,r1,r6
        0x08003fc4:    9d32        2.      LDR      r5,[sp,#0xc8]
        0x08003fc6:    1975        u.      ADDS     r5,r6,r5
        0x08003fc8:    9532        2.      STR      r5,[sp,#0xc8]
        0x08003fca:    9d30        0.      LDR      r5,[sp,#0xc0]
        0x08003fcc:    2604        .&      MOVS     r6,#4
        0x08003fce:    5f9e        ._      LDRSH    r6,[r3,r6]
        0x08003fd0:    434e        NC      MULS     r6,r1,r6
        0x08003fd2:    19f7        ..      ADDS     r7,r6,r7
        0x08003fd4:    2602        .&      MOVS     r6,#2
        0x08003fd6:    5f9e        ._      LDRSH    r6,[r3,r6]
        0x08003fd8:    434e        NC      MULS     r6,r1,r6
        0x08003fda:    1830        0.      ADDS     r0,r6,r0
        0x08003fdc:    9e31        1.      LDR      r6,[sp,#0xc4]
        0x08003fde:    5f9e        ._      LDRSH    r6,[r3,r6]
        0x08003fe0:    434e        NC      MULS     r6,r1,r6
        0x08003fe2:    1975        u.      ADDS     r5,r6,r5
        0x08003fe4:    9934        4.      LDR      r1,[sp,#0xd0]
        0x08003fe6:    185b        [.      ADDS     r3,r3,r1
        0x08003fe8:    1e52        R.      SUBS     r2,r2,#1
        0x08003fea:    1ca4        ..      ADDS     r4,r4,#2
        0x08003fec:    2a00        .*      CMP      r2,#0
        0x08003fee:    d1e3        ..      BNE      0x8003fb8 ; 0x8003fb8
        0x08003ff0:    992c        ,.      LDR      r1,[sp,#0xb0]
        0x08003ff2:    0089        ..      LSLS     r1,r1,#2
        0x08003ff4:    9a23        #.      LDR      r2,[sp,#0x8c]
        0x08003ff6:    5050        PP      STR      r0,[r2,r1]
        0x08003ff8:    9b25        %.      LDR      r3,[sp,#0x94]
        0x08003ffa:    0098        ..      LSLS     r0,r3,#2
        0x08003ffc:    5015        .P      STR      r5,[r2,r0]
        0x08003ffe:    982e        ..      LDR      r0,[sp,#0xb8]
        0x08004000:    0080        ..      LSLS     r0,r0,#2
        0x08004002:    5017        .P      STR      r7,[r2,r0]
        0x08004004:    982f        /.      LDR      r0,[sp,#0xbc]
        0x08004006:    0080        ..      LSLS     r0,r0,#2
        0x08004008:    9932        2.      LDR      r1,[sp,#0xc8]
        0x0800400a:    5011        .P      STR      r1,[r2,r0]
        0x0800400c:    1d1f        ..      ADDS     r7,r3,#4
        0x0800400e:    980d        ..      LDR      r0,[sp,#0x34]
        0x08004010:    2801        .(      CMP      r0,#1
        0x08004012:    d100        ..      BNE      0x8004016 ; 0x8004016
        0x08004014:    e084        ..      B        0x8004120 ; 0x8004120
        0x08004016:    972e        ..      STR      r7,[sp,#0xb8]
        0x08004018:    1dd8        ..      ADDS     r0,r3,#7
        0x0800401a:    902c        ,.      STR      r0,[sp,#0xb0]
        0x0800401c:    0040        @.      LSLS     r0,r0,#1
        0x0800401e:    9914        ..      LDR      r1,[sp,#0x50]
        0x08004020:    180f        ..      ADDS     r7,r1,r0
        0x08004022:    1d98        ..      ADDS     r0,r3,#6
        0x08004024:    902b        +.      STR      r0,[sp,#0xac]
        0x08004026:    1d58        X.      ADDS     r0,r3,#5
        0x08004028:    902a        *.      STR      r0,[sp,#0xa8]
        0x0800402a:    2100        .!      MOVS     r1,#0
        0x0800402c:    9827        '.      LDR      r0,[sp,#0x9c]
        0x0800402e:    9d24        $.      LDR      r5,[sp,#0x90]
        0x08004030:    460c        .F      MOV      r4,r1
        0x08004032:    460a        .F      MOV      r2,r1
        0x08004034:    9131        1.      STR      r1,[sp,#0xc4]
        0x08004036:    912f        /.      STR      r1,[sp,#0xbc]
        0x08004038:    9132        2.      STR      r1,[sp,#0xc8]
        0x0800403a:    9b2f        /.      LDR      r3,[sp,#0xbc]
        0x0800403c:    5ee9        .^      LDRSH    r1,[r5,r3]
        0x0800403e:    5efe        .^      LDRSH    r6,[r7,r3]
        0x08004040:    434e        NC      MULS     r6,r1,r6
        0x08004042:    9b32        2.      LDR      r3,[sp,#0xc8]
        0x08004044:    18f3        ..      ADDS     r3,r6,r3
        0x08004046:    9332        2.      STR      r3,[sp,#0xc8]
        0x08004048:    2601        .&      MOVS     r6,#1
        0x0800404a:    43f3        .C      MVNS     r3,r6
        0x0800404c:    9330        0.      STR      r3,[sp,#0xc0]
        0x0800404e:    5efe        .^      LDRSH    r6,[r7,r3]
        0x08004050:    434e        NC      MULS     r6,r1,r6
        0x08004052:    9b31        1.      LDR      r3,[sp,#0xc4]
        0x08004054:    18f3        ..      ADDS     r3,r6,r3
        0x08004056:    9331        1.      STR      r3,[sp,#0xc4]
        0x08004058:    9b33        3.      LDR      r3,[sp,#0xcc]
        0x0800405a:    5efe        .^      LDRSH    r6,[r7,r3]
        0x0800405c:    434e        NC      MULS     r6,r1,r6
        0x0800405e:    18b2        ..      ADDS     r2,r6,r2
        0x08004060:    2605        .&      MOVS     r6,#5
        0x08004062:    43f3        .C      MVNS     r3,r6
        0x08004064:    5efe        .^      LDRSH    r6,[r7,r3]
        0x08004066:    434e        NC      MULS     r6,r1,r6
        0x08004068:    1934        4.      ADDS     r4,r6,r4
        0x0800406a:    9934        4.      LDR      r1,[sp,#0xd0]
        0x0800406c:    187f        ..      ADDS     r7,r7,r1
        0x0800406e:    1e40        @.      SUBS     r0,r0,#1
        0x08004070:    1cad        ..      ADDS     r5,r5,#2
        0x08004072:    2800        .(      CMP      r0,#0
        0x08004074:    d1e1        ..      BNE      0x800403a ; 0x800403a
        0x08004076:    932f        /.      STR      r3,[sp,#0xbc]
        0x08004078:    982a        *.      LDR      r0,[sp,#0xa8]
        0x0800407a:    0080        ..      LSLS     r0,r0,#2
        0x0800407c:    9923        #.      LDR      r1,[sp,#0x8c]
        0x0800407e:    500a        .P      STR      r2,[r1,r0]
        0x08004080:    982e        ..      LDR      r0,[sp,#0xb8]
        0x08004082:    0080        ..      LSLS     r0,r0,#2
        0x08004084:    500c        .P      STR      r4,[r1,r0]
        0x08004086:    982b        +.      LDR      r0,[sp,#0xac]
        0x08004088:    0080        ..      LSLS     r0,r0,#2
        0x0800408a:    9a31        1.      LDR      r2,[sp,#0xc4]
        0x0800408c:    500a        .P      STR      r2,[r1,r0]
        0x0800408e:    982c        ,.      LDR      r0,[sp,#0xb0]
        0x08004090:    0080        ..      LSLS     r0,r0,#2
        0x08004092:    9a32        2.      LDR      r2,[sp,#0xc8]
        0x08004094:    500a        .P      STR      r2,[r1,r0]
        0x08004096:    9a25        %.      LDR      r2,[sp,#0x94]
        0x08004098:    4617        .F      MOV      r7,r2
        0x0800409a:    3708        .7      ADDS     r7,r7,#8
        0x0800409c:    980d        ..      LDR      r0,[sp,#0x34]
        0x0800409e:    2802        .(      CMP      r0,#2
        0x080040a0:    d03e        >.      BEQ      0x8004120 ; 0x8004120
        0x080040a2:    972c        ,.      STR      r7,[sp,#0xb0]
        0x080040a4:    4610        .F      MOV      r0,r2
        0x080040a6:    300b        .0      ADDS     r0,r0,#0xb
        0x080040a8:    902b        +.      STR      r0,[sp,#0xac]
        0x080040aa:    0040        @.      LSLS     r0,r0,#1
        0x080040ac:    9914        ..      LDR      r1,[sp,#0x50]
        0x080040ae:    180f        ..      ADDS     r7,r1,r0
        0x080040b0:    4610        .F      MOV      r0,r2
        0x080040b2:    300a        .0      ADDS     r0,r0,#0xa
        0x080040b4:    902a        *.      STR      r0,[sp,#0xa8]
        0x080040b6:    3209        .2      ADDS     r2,r2,#9
        0x080040b8:    9229        ).      STR      r2,[sp,#0xa4]
        0x080040ba:    2000        .       MOVS     r0,#0
        0x080040bc:    9c27        '.      LDR      r4,[sp,#0x9c]
        0x080040be:    9b24        $.      LDR      r3,[sp,#0x90]
        0x080040c0:    4602        .F      MOV      r2,r0
        0x080040c2:    4606        .F      MOV      r6,r0
        0x080040c4:    4605        .F      MOV      r5,r0
        0x080040c6:    902e        ..      STR      r0,[sp,#0xb8]
        0x080040c8:    9032        2.      STR      r0,[sp,#0xc8]
        0x080040ca:    9231        1.      STR      r2,[sp,#0xc4]
        0x080040cc:    982e        ..      LDR      r0,[sp,#0xb8]
        0x080040ce:    5e19        .^      LDRSH    r1,[r3,r0]
        0x080040d0:    5e38        8^      LDRSH    r0,[r7,r0]
        0x080040d2:    4348        HC      MULS     r0,r1,r0
        0x080040d4:    9a32        2.      LDR      r2,[sp,#0xc8]
        0x080040d6:    1882        ..      ADDS     r2,r0,r2
        0x080040d8:    9232        2.      STR      r2,[sp,#0xc8]
        0x080040da:    9a31        1.      LDR      r2,[sp,#0xc4]
        0x080040dc:    9830        0.      LDR      r0,[sp,#0xc0]
        0x080040de:    5e38        8^      LDRSH    r0,[r7,r0]
        0x080040e0:    4348        HC      MULS     r0,r1,r0
        0x080040e2:    1945        E.      ADDS     r5,r0,r5
        0x080040e4:    9833        3.      LDR      r0,[sp,#0xcc]
        0x080040e6:    5e38        8^      LDRSH    r0,[r7,r0]
        0x080040e8:    4348        HC      MULS     r0,r1,r0
        0x080040ea:    1986        ..      ADDS     r6,r0,r6
        0x080040ec:    982f        /.      LDR      r0,[sp,#0xbc]
        0x080040ee:    5e38        8^      LDRSH    r0,[r7,r0]
        0x080040f0:    4348        HC      MULS     r0,r1,r0
        0x080040f2:    1882        ..      ADDS     r2,r0,r2
        0x080040f4:    9834        4.      LDR      r0,[sp,#0xd0]
        0x080040f6:    183f        ?.      ADDS     r7,r7,r0
        0x080040f8:    1e64        d.      SUBS     r4,r4,#1
        0x080040fa:    1c9b        ..      ADDS     r3,r3,#2
        0x080040fc:    2c00        .,      CMP      r4,#0
        0x080040fe:    d1e4        ..      BNE      0x80040ca ; 0x80040ca
        0x08004100:    9829        ).      LDR      r0,[sp,#0xa4]
        0x08004102:    0080        ..      LSLS     r0,r0,#2
        0x08004104:    9923        #.      LDR      r1,[sp,#0x8c]
        0x08004106:    500e        .P      STR      r6,[r1,r0]
        0x08004108:    982c        ,.      LDR      r0,[sp,#0xb0]
        0x0800410a:    0080        ..      LSLS     r0,r0,#2
        0x0800410c:    500a        .P      STR      r2,[r1,r0]
        0x0800410e:    982a        *.      LDR      r0,[sp,#0xa8]
        0x08004110:    0080        ..      LSLS     r0,r0,#2
        0x08004112:    500d        .P      STR      r5,[r1,r0]
        0x08004114:    982b        +.      LDR      r0,[sp,#0xac]
        0x08004116:    0080        ..      LSLS     r0,r0,#2
        0x08004118:    9a32        2.      LDR      r2,[sp,#0xc8]
        0x0800411a:    500a        .P      STR      r2,[r1,r0]
        0x0800411c:    9f25        %.      LDR      r7,[sp,#0x94]
        0x0800411e:    370c        .7      ADDS     r7,r7,#0xc
        0x08004120:    9e27        '.      LDR      r6,[sp,#0x9c]
        0x08004122:    9810        ..      LDR      r0,[sp,#0x40]
        0x08004124:    2800        .(      CMP      r0,#0
        0x08004126:    9a34        4.      LDR      r2,[sp,#0xd0]
        0x08004128:    9d0c        ..      LDR      r5,[sp,#0x30]
        0x0800412a:    9c0b        ..      LDR      r4,[sp,#0x2c]
        0x0800412c:    d000        ..      BEQ      0x8004130 ; 0x8004130
        0x0800412e:    e5ed        ..      B        0x8003d0c ; 0x8003d0c
        0x08004130:    0078        x.      LSLS     r0,r7,#1
        0x08004132:    9914        ..      LDR      r1,[sp,#0x50]
        0x08004134:    1809        ..      ADDS     r1,r1,r0
        0x08004136:    9813        ..      LDR      r0,[sp,#0x4c]
        0x08004138:    2803        .(      CMP      r0,#3
        0x0800413a:    9132        2.      STR      r1,[sp,#0xc8]
        0x0800413c:    d202        ..      BCS      0x8004144 ; 0x8004144
        0x0800413e:    2200        ."      MOVS     r2,#0
        0x08004140:    4613        .F      MOV      r3,r2
        0x08004142:    e025        %.      B        0x8004190 ; 0x8004190
        0x08004144:    9725        %.      STR      r7,[sp,#0x94]
        0x08004146:    2000        .       MOVS     r0,#0
        0x08004148:    9a24        $.      LDR      r2,[sp,#0x90]
        0x0800414a:    460c        .F      MOV      r4,r1
        0x0800414c:    9d22        ".      LDR      r5,[sp,#0x88]
        0x0800414e:    4603        .F      MOV      r3,r0
        0x08004150:    2602        .&      MOVS     r6,#2
        0x08004152:    5f96        ._      LDRSH    r6,[r2,r6]
        0x08004154:    9934        4.      LDR      r1,[sp,#0xd0]
        0x08004156:    5e67        g^      LDRSH    r7,[r4,r1]
        0x08004158:    4377        wC      MULS     r7,r6,r7
        0x0800415a:    5e16        .^      LDRSH    r6,[r2,r0]
        0x0800415c:    5e21        !^      LDRSH    r1,[r4,r0]
        0x0800415e:    4371        qC      MULS     r1,r6,r1
        0x08004160:    18c9        ..      ADDS     r1,r1,r3
        0x08004162:    1879        y.      ADDS     r1,r7,r1
        0x08004164:    2304        .#      MOVS     r3,#4
        0x08004166:    5ed3        .^      LDRSH    r3,[r2,r3]
        0x08004168:    9e1e        ..      LDR      r6,[sp,#0x78]
        0x0800416a:    5fa6        ._      LDRSH    r6,[r4,r6]
        0x0800416c:    435e        ^C      MULS     r6,r3,r6
        0x0800416e:    1871        q.      ADDS     r1,r6,r1
        0x08004170:    9b2d        -.      LDR      r3,[sp,#0xb4]
        0x08004172:    5ed3        .^      LDRSH    r3,[r2,r3]
        0x08004174:    9e1b        ..      LDR      r6,[sp,#0x6c]
        0x08004176:    5fa6        ._      LDRSH    r6,[r4,r6]
        0x08004178:    435e        ^C      MULS     r6,r3,r6
        0x0800417a:    1873        s.      ADDS     r3,r6,r1
        0x0800417c:    991d        ..      LDR      r1,[sp,#0x74]
        0x0800417e:    1864        d.      ADDS     r4,r4,r1
        0x08004180:    3208        .2      ADDS     r2,r2,#8
        0x08004182:    1f2d        -.      SUBS     r5,r5,#4
        0x08004184:    d1e4        ..      BNE      0x8004150 ; 0x8004150
        0x08004186:    9a09        ..      LDR      r2,[sp,#0x24]
        0x08004188:    9e27        '.      LDR      r6,[sp,#0x9c]
        0x0800418a:    9d0c        ..      LDR      r5,[sp,#0x30]
        0x0800418c:    9f25        %.      LDR      r7,[sp,#0x94]
        0x0800418e:    9c0b        ..      LDR      r4,[sp,#0x2c]
        0x08004190:    0060        `.      LSLS     r0,r4,#1
        0x08004192:    9911        ..      LDR      r1,[sp,#0x44]
        0x08004194:    1808        ..      ADDS     r0,r1,r0
        0x08004196:    0051        Q.      LSLS     r1,r2,#1
        0x08004198:    9031        1.      STR      r0,[sp,#0xc4]
        0x0800419a:    5e41        A^      LDRSH    r1,[r0,r1]
        0x0800419c:    4634        4F      MOV      r4,r6
        0x0800419e:    4354        TC      MULS     r4,r2,r4
        0x080041a0:    0064        d.      LSLS     r4,r4,#1
        0x080041a2:    9832        2.      LDR      r0,[sp,#0xc8]
        0x080041a4:    5f04        ._      LDRSH    r4,[r0,r4]
        0x080041a6:    434c        LC      MULS     r4,r1,r4
        0x080041a8:    18e3        ..      ADDS     r3,r4,r3
        0x080041aa:    980f        ..      LDR      r0,[sp,#0x3c]
        0x080041ac:    2801        .(      CMP      r0,#1
        0x080041ae:    d100        ..      BNE      0x80041b2 ; 0x80041b2
        0x080041b0:    e5a8        ..      B        0x8003d04 ; 0x8003d04
        0x080041b2:    1c51        Q.      ADDS     r1,r2,#1
        0x080041b4:    004c        L.      LSLS     r4,r1,#1
        0x080041b6:    9330        0.      STR      r3,[sp,#0xc0]
        0x080041b8:    9b31        1.      LDR      r3,[sp,#0xc4]
        0x080041ba:    5f1b        ._      LDRSH    r3,[r3,r4]
        0x080041bc:    4371        qC      MULS     r1,r6,r1
        0x080041be:    0049        I.      LSLS     r1,r1,#1
        0x080041c0:    9c32        2.      LDR      r4,[sp,#0xc8]
        0x080041c2:    5e61        a^      LDRSH    r1,[r4,r1]
        0x080041c4:    4359        YC      MULS     r1,r3,r1
        0x080041c6:    9b30        0.      LDR      r3,[sp,#0xc0]
        0x080041c8:    18cb        ..      ADDS     r3,r1,r3
        0x080041ca:    2802        .(      CMP      r0,#2
        0x080041cc:    d009        ..      BEQ      0x80041e2 ; 0x80041e2
        0x080041ce:    1c91        ..      ADDS     r1,r2,#2
        0x080041d0:    004a        J.      LSLS     r2,r1,#1
        0x080041d2:    9831        1.      LDR      r0,[sp,#0xc4]
        0x080041d4:    5e82        .^      LDRSH    r2,[r0,r2]
        0x080041d6:    4371        qC      MULS     r1,r6,r1
        0x080041d8:    0049        I.      LSLS     r1,r1,#1
        0x080041da:    9832        2.      LDR      r0,[sp,#0xc8]
        0x080041dc:    5e41        A^      LDRSH    r1,[r0,r1]
        0x080041de:    4351        QC      MULS     r1,r2,r1
        0x080041e0:    18cb        ..      ADDS     r3,r1,r3
        0x080041e2:    9814        ..      LDR      r0,[sp,#0x50]
        0x080041e4:    00b9        ..      LSLS     r1,r7,#2
        0x080041e6:    9a23        #.      LDR      r2,[sp,#0x8c]
        0x080041e8:    5053        SP      STR      r3,[r2,r1]
        0x080041ea:    1c79        y.      ADDS     r1,r7,#1
        0x080041ec:    9130        0.      STR      r1,[sp,#0xc0]
        0x080041ee:    004a        J.      LSLS     r2,r1,#1
        0x080041f0:    1881        ..      ADDS     r1,r0,r2
        0x080041f2:    9813        ..      LDR      r0,[sp,#0x4c]
        0x080041f4:    2803        .(      CMP      r0,#3
        0x080041f6:    9132        2.      STR      r1,[sp,#0xc8]
        0x080041f8:    d202        ..      BCS      0x8004200 ; 0x8004200
        0x080041fa:    2300        .#      MOVS     r3,#0
        0x080041fc:    461c        .F      MOV      r4,r3
        0x080041fe:    e025        %.      B        0x800424c ; 0x800424c
        0x08004200:    9725        %.      STR      r7,[sp,#0x94]
        0x08004202:    950c        ..      STR      r5,[sp,#0x30]
        0x08004204:    2200        ."      MOVS     r2,#0
        0x08004206:    9d24        $.      LDR      r5,[sp,#0x90]
        0x08004208:    460e        .F      MOV      r6,r1
        0x0800420a:    9f22        ".      LDR      r7,[sp,#0x88]
        0x0800420c:    4614        .F      MOV      r4,r2
        0x0800420e:    2102        .!      MOVS     r1,#2
        0x08004210:    5e69        i^      LDRSH    r1,[r5,r1]
        0x08004212:    9834        4.      LDR      r0,[sp,#0xd0]
        0x08004214:    5e33        3^      LDRSH    r3,[r6,r0]
        0x08004216:    434b        KC      MULS     r3,r1,r3
        0x08004218:    5ea9        .^      LDRSH    r1,[r5,r2]
        0x0800421a:    5eb0        .^      LDRSH    r0,[r6,r2]
        0x0800421c:    4348        HC      MULS     r0,r1,r0
        0x0800421e:    1900        ..      ADDS     r0,r0,r4
        0x08004220:    1818        ..      ADDS     r0,r3,r0
        0x08004222:    2104        .!      MOVS     r1,#4
        0x08004224:    5e69        i^      LDRSH    r1,[r5,r1]
        0x08004226:    9b1e        ..      LDR      r3,[sp,#0x78]
        0x08004228:    5ef3        .^      LDRSH    r3,[r6,r3]
        0x0800422a:    434b        KC      MULS     r3,r1,r3
        0x0800422c:    1818        ..      ADDS     r0,r3,r0
        0x0800422e:    992d        -.      LDR      r1,[sp,#0xb4]
        0x08004230:    5e69        i^      LDRSH    r1,[r5,r1]
        0x08004232:    9b1b        ..      LDR      r3,[sp,#0x6c]
        0x08004234:    5ef3        .^      LDRSH    r3,[r6,r3]
        0x08004236:    434b        KC      MULS     r3,r1,r3
        0x08004238:    181c        ..      ADDS     r4,r3,r0
        0x0800423a:    981d        ..      LDR      r0,[sp,#0x74]
        0x0800423c:    1836        6.      ADDS     r6,r6,r0
        0x0800423e:    3508        .5      ADDS     r5,r5,#8
        0x08004240:    1f3f        ?.      SUBS     r7,r7,#4
        0x08004242:    d1e4        ..      BNE      0x800420e ; 0x800420e
        0x08004244:    9b09        ..      LDR      r3,[sp,#0x24]
        0x08004246:    9e27        '.      LDR      r6,[sp,#0x9c]
        0x08004248:    9d0c        ..      LDR      r5,[sp,#0x30]
        0x0800424a:    9f25        %.      LDR      r7,[sp,#0x94]
        0x0800424c:    0058        X.      LSLS     r0,r3,#1
        0x0800424e:    9a31        1.      LDR      r2,[sp,#0xc4]
        0x08004250:    5e10        .^      LDRSH    r0,[r2,r0]
        0x08004252:    902f        /.      STR      r0,[sp,#0xbc]
        0x08004254:    4631        1F      MOV      r1,r6
        0x08004256:    4359        YC      MULS     r1,r3,r1
        0x08004258:    0049        I.      LSLS     r1,r1,#1
        0x0800425a:    9832        2.      LDR      r0,[sp,#0xc8]
        0x0800425c:    5e41        A^      LDRSH    r1,[r0,r1]
        0x0800425e:    982f        /.      LDR      r0,[sp,#0xbc]
        0x08004260:    4341        AC      MULS     r1,r0,r1
        0x08004262:    190c        ..      ADDS     r4,r1,r4
        0x08004264:    932f        /.      STR      r3,[sp,#0xbc]
        0x08004266:    1c59        Y.      ADDS     r1,r3,#1
        0x08004268:    004b        K.      LSLS     r3,r1,#1
        0x0800426a:    5ed3        .^      LDRSH    r3,[r2,r3]
        0x0800426c:    9a32        2.      LDR      r2,[sp,#0xc8]
        0x0800426e:    4371        qC      MULS     r1,r6,r1
        0x08004270:    0049        I.      LSLS     r1,r1,#1
        0x08004272:    5e51        Q^      LDRSH    r1,[r2,r1]
        0x08004274:    4359        YC      MULS     r1,r3,r1
        0x08004276:    190c        ..      ADDS     r4,r1,r4
        0x08004278:    980f        ..      LDR      r0,[sp,#0x3c]
        0x0800427a:    2802        .(      CMP      r0,#2
        0x0800427c:    d104        ..      BNE      0x8004288 ; 0x8004288
        0x0800427e:    9830        0.      LDR      r0,[sp,#0xc0]
        0x08004280:    0080        ..      LSLS     r0,r0,#2
        0x08004282:    9923        #.      LDR      r1,[sp,#0x8c]
        0x08004284:    500c        .P      STR      r4,[r1,r0]
        0x08004286:    e540        @.      B        0x8003d0a ; 0x8003d0a
        0x08004288:    982f        /.      LDR      r0,[sp,#0xbc]
        0x0800428a:    1c80        ..      ADDS     r0,r0,#2
        0x0800428c:    0041        A.      LSLS     r1,r0,#1
        0x0800428e:    9b31        1.      LDR      r3,[sp,#0xc4]
        0x08004290:    5e59        Y^      LDRSH    r1,[r3,r1]
        0x08004292:    4370        pC      MULS     r0,r6,r0
        0x08004294:    0040        @.      LSLS     r0,r0,#1
        0x08004296:    5e10        .^      LDRSH    r0,[r2,r0]
        0x08004298:    4348        HC      MULS     r0,r1,r0
        0x0800429a:    1900        ..      ADDS     r0,r0,r4
        0x0800429c:    9930        0.      LDR      r1,[sp,#0xc0]
        0x0800429e:    0089        ..      LSLS     r1,r1,#2
        0x080042a0:    9a23        #.      LDR      r2,[sp,#0x8c]
        0x080042a2:    5050        PP      STR      r0,[r2,r1]
        0x080042a4:    1cba        ..      ADDS     r2,r7,#2
        0x080042a6:    0050        P.      LSLS     r0,r2,#1
        0x080042a8:    9914        ..      LDR      r1,[sp,#0x50]
        0x080042aa:    1809        ..      ADDS     r1,r1,r0
        0x080042ac:    9813        ..      LDR      r0,[sp,#0x4c]
        0x080042ae:    2803        .(      CMP      r0,#3
        0x080042b0:    9232        2.      STR      r2,[sp,#0xc8]
        0x080042b2:    9130        0.      STR      r1,[sp,#0xc0]
        0x080042b4:    d202        ..      BCS      0x80042bc ; 0x80042bc
        0x080042b6:    2200        ."      MOVS     r2,#0
        0x080042b8:    4614        .F      MOV      r4,r2
        0x080042ba:    e024        $.      B        0x8004306 ; 0x8004306
        0x080042bc:    950c        ..      STR      r5,[sp,#0x30]
        0x080042be:    2200        ."      MOVS     r2,#0
        0x080042c0:    9d24        $.      LDR      r5,[sp,#0x90]
        0x080042c2:    460e        .F      MOV      r6,r1
        0x080042c4:    9f22        ".      LDR      r7,[sp,#0x88]
        0x080042c6:    4614        .F      MOV      r4,r2
        0x080042c8:    2002        .       MOVS     r0,#2
        0x080042ca:    5e28        (^      LDRSH    r0,[r5,r0]
        0x080042cc:    9934        4.      LDR      r1,[sp,#0xd0]
        0x080042ce:    5e71        q^      LDRSH    r1,[r6,r1]
        0x080042d0:    4341        AC      MULS     r1,r0,r1
        0x080042d2:    5ea8        .^      LDRSH    r0,[r5,r2]
        0x080042d4:    5eb3        .^      LDRSH    r3,[r6,r2]
        0x080042d6:    4343        CC      MULS     r3,r0,r3
        0x080042d8:    1918        ..      ADDS     r0,r3,r4
        0x080042da:    1808        ..      ADDS     r0,r1,r0
        0x080042dc:    2104        .!      MOVS     r1,#4
        0x080042de:    5e69        i^      LDRSH    r1,[r5,r1]
        0x080042e0:    9b1e        ..      LDR      r3,[sp,#0x78]
        0x080042e2:    5ef3        .^      LDRSH    r3,[r6,r3]
        0x080042e4:    434b        KC      MULS     r3,r1,r3
        0x080042e6:    1818        ..      ADDS     r0,r3,r0
        0x080042e8:    992d        -.      LDR      r1,[sp,#0xb4]
        0x080042ea:    5e69        i^      LDRSH    r1,[r5,r1]
        0x080042ec:    9b1b        ..      LDR      r3,[sp,#0x6c]
        0x080042ee:    5ef3        .^      LDRSH    r3,[r6,r3]
        0x080042f0:    434b        KC      MULS     r3,r1,r3
        0x080042f2:    181c        ..      ADDS     r4,r3,r0
        0x080042f4:    981d        ..      LDR      r0,[sp,#0x74]
        0x080042f6:    1836        6.      ADDS     r6,r6,r0
        0x080042f8:    3508        .5      ADDS     r5,r5,#8
        0x080042fa:    1f3f        ?.      SUBS     r7,r7,#4
        0x080042fc:    d1e4        ..      BNE      0x80042c8 ; 0x80042c8
        0x080042fe:    9a09        ..      LDR      r2,[sp,#0x24]
        0x08004300:    9e27        '.      LDR      r6,[sp,#0x9c]
        0x08004302:    9d0c        ..      LDR      r5,[sp,#0x30]
        0x08004304:    9b31        1.      LDR      r3,[sp,#0xc4]
        0x08004306:    0050        P.      LSLS     r0,r2,#1
        0x08004308:    5e18        .^      LDRSH    r0,[r3,r0]
        0x0800430a:    4631        1F      MOV      r1,r6
        0x0800430c:    4351        QC      MULS     r1,r2,r1
        0x0800430e:    0049        I.      LSLS     r1,r1,#1
        0x08004310:    9f30        0.      LDR      r7,[sp,#0xc0]
        0x08004312:    5e79        y^      LDRSH    r1,[r7,r1]
        0x08004314:    4341        AC      MULS     r1,r0,r1
        0x08004316:    1908        ..      ADDS     r0,r1,r4
        0x08004318:    1c51        Q.      ADDS     r1,r2,#1
        0x0800431a:    461c        .F      MOV      r4,r3
        0x0800431c:    004b        K.      LSLS     r3,r1,#1
        0x0800431e:    5ee3        .^      LDRSH    r3,[r4,r3]
        0x08004320:    4371        qC      MULS     r1,r6,r1
        0x08004322:    0049        I.      LSLS     r1,r1,#1
        0x08004324:    5e79        y^      LDRSH    r1,[r7,r1]
        0x08004326:    4359        YC      MULS     r1,r3,r1
        0x08004328:    1808        ..      ADDS     r0,r1,r0
        0x0800432a:    1c91        ..      ADDS     r1,r2,#2
        0x0800432c:    004a        J.      LSLS     r2,r1,#1
        0x0800432e:    5ea2        .^      LDRSH    r2,[r4,r2]
        0x08004330:    4371        qC      MULS     r1,r6,r1
        0x08004332:    0049        I.      LSLS     r1,r1,#1
        0x08004334:    5e79        y^      LDRSH    r1,[r7,r1]
        0x08004336:    4351        QC      MULS     r1,r2,r1
        0x08004338:    1808        ..      ADDS     r0,r1,r0
        0x0800433a:    9932        2.      LDR      r1,[sp,#0xc8]
        0x0800433c:    0089        ..      LSLS     r1,r1,#2
        0x0800433e:    9a23        #.      LDR      r2,[sp,#0x8c]
        0x08004340:    5050        PP      STR      r0,[r2,r1]
        0x08004342:    e4e2        ..      B        0x8003d0a ; 0x8003d0a
        0x08004344:    9826        &.      LDR      r0,[sp,#0x98]
        0x08004346:    b200        ..      SXTH     r0,r0
        0x08004348:    9901        ..      LDR      r1,[sp,#4]
        0x0800434a:    f7fcfddb    ....    BL       crc16 ; 0x8000f04
        0x0800434e:    9015        ..      STR      r0,[sp,#0x54]
        0x08004350:    9804        ..      LDR      r0,[sp,#0x10]
        0x08004352:    2800        .(      CMP      r0,#0
        0x08004354:    d007        ..      BEQ      0x8004366 ; 0x8004366
        0x08004356:    9813        ..      LDR      r0,[sp,#0x4c]
        0x08004358:    2803        .(      CMP      r0,#3
        0x0800435a:    d20d        ..      BCS      0x8004378 ; 0x8004378
        0x0800435c:    2200        ."      MOVS     r2,#0
        0x0800435e:    9231        1.      STR      r2,[sp,#0xc4]
        0x08004360:    4616        .F      MOV      r6,r2
        0x08004362:    4614        .F      MOV      r4,r2
        0x08004364:    e0ec        ..      B        0x8004540 ; 0x8004540
        0x08004366:    9805        ..      LDR      r0,[sp,#0x14]
        0x08004368:    2804        .(      CMP      r0,#4
        0x0800436a:    d300        ..      BCC      0x800436e ; 0x800436e
        0x0800436c:    e08b        ..      B        0x8004486 ; 0x8004486
        0x0800436e:    2000        .       MOVS     r0,#0
        0x08004370:    9031        1.      STR      r0,[sp,#0xc4]
        0x08004372:    4606        .F      MOV      r6,r0
        0x08004374:    4602        .F      MOV      r2,r0
        0x08004376:    e106        ..      B        0x8004586 ; 0x8004586
        0x08004378:    200c        .       MOVS     r0,#0xc
        0x0800437a:    4370        pC      MULS     r0,r6,r0
        0x0800437c:    9032        2.      STR      r0,[sp,#0xc8]
        0x0800437e:    00f0        ..      LSLS     r0,r6,#3
        0x08004380:    9030        0.      STR      r0,[sp,#0xc0]
        0x08004382:    00b0        ..      LSLS     r0,r6,#2
        0x08004384:    902f        /.      STR      r0,[sp,#0xbc]
        0x08004386:    0130        0.      LSLS     r0,r6,#4
        0x08004388:    902e        ..      STR      r0,[sp,#0xb8]
        0x0800438a:    2200        ."      MOVS     r2,#0
        0x0800438c:    9812        ..      LDR      r0,[sp,#0x48]
        0x0800438e:    9231        1.      STR      r2,[sp,#0xc4]
        0x08004390:    4616        .F      MOV      r6,r2
        0x08004392:    4614        .F      MOV      r4,r2
        0x08004394:    e007        ..      B        0x80043a6 ; 0x80043a6
        0x08004396:    992e        ..      LDR      r1,[sp,#0xb8]
        0x08004398:    1840        @.      ADDS     r0,r0,r1
        0x0800439a:    9a33        3.      LDR      r2,[sp,#0xcc]
        0x0800439c:    1d12        ..      ADDS     r2,r2,#4
        0x0800439e:    9922        ".      LDR      r1,[sp,#0x88]
        0x080043a0:    428a        .B      CMP      r2,r1
        0x080043a2:    d100        ..      BNE      0x80043a6 ; 0x80043a6
        0x080043a4:    e0cb        ..      B        0x800453e ; 0x800453e
        0x080043a6:    9233        3.      STR      r2,[sp,#0xcc]
        0x080043a8:    4602        .F      MOV      r2,r0
        0x080043aa:    9b27        '.      LDR      r3,[sp,#0x9c]
        0x080043ac:    e006        ..      B        0x80043bc ; 0x80043bc
        0x080043ae:    9c31        1.      LDR      r4,[sp,#0xc4]
        0x080043b0:    192c        ,.      ADDS     r4,r5,r4
        0x080043b2:    9431        1.      STR      r4,[sp,#0xc4]
        0x080043b4:    1e5b        [.      SUBS     r3,r3,#1
        0x080043b6:    460e        .F      MOV      r6,r1
        0x080043b8:    463c        <F      MOV      r4,r7
        0x080043ba:    d010        ..      BEQ      0x80043de ; 0x80043de
        0x080043bc:    ca02        ..      LDM      r2!,{r1}
        0x080043be:    2700        .'      MOVS     r7,#0
        0x080043c0:    42b1        .B      CMP      r1,r6
        0x080043c2:    dc01        ..      BGT      0x80043c8 ; 0x80043c8
        0x080043c4:    463d        =F      MOV      r5,r7
        0x080043c6:    e000        ..      B        0x80043ca ; 0x80043ca
        0x080043c8:    2501        .%      MOVS     r5,#1
        0x080043ca:    190c        ..      ADDS     r4,r1,r4
        0x080043cc:    9e28        (.      LDR      r6,[sp,#0xa0]
        0x080043ce:    42b4        .B      CMP      r4,r6
        0x080043d0:    dd00        ..      BLE      0x80043d4 ; 0x80043d4
        0x080043d2:    250a        .%      MOVS     r5,#0xa
        0x080043d4:    9e28        (.      LDR      r6,[sp,#0xa0]
        0x080043d6:    42b4        .B      CMP      r4,r6
        0x080043d8:    dce9        ..      BGT      0x80043ae ; 0x80043ae
        0x080043da:    4627        'F      MOV      r7,r4
        0x080043dc:    e7e7        ..      B        0x80043ae ; 0x80043ae
        0x080043de:    9e2f        /.      LDR      r6,[sp,#0xbc]
        0x080043e0:    9b27        '.      LDR      r3,[sp,#0x9c]
        0x080043e2:    e007        ..      B        0x80043f4 ; 0x80043f4
        0x080043e4:    9d31        1.      LDR      r5,[sp,#0xc4]
        0x080043e6:    194d        M.      ADDS     r5,r1,r5
        0x080043e8:    9531        1.      STR      r5,[sp,#0xc4]
        0x080043ea:    1d36        6.      ADDS     r6,r6,#4
        0x080043ec:    1e5b        [.      SUBS     r3,r3,#1
        0x080043ee:    4621        !F      MOV      r1,r4
        0x080043f0:    4617        .F      MOV      r7,r2
        0x080043f2:    d010        ..      BEQ      0x8004416 ; 0x8004416
        0x080043f4:    5984        .Y      LDR      r4,[r0,r6]
        0x080043f6:    2200        ."      MOVS     r2,#0
        0x080043f8:    428c        .B      CMP      r4,r1
        0x080043fa:    dc01        ..      BGT      0x8004400 ; 0x8004400
        0x080043fc:    4611        .F      MOV      r1,r2
        0x080043fe:    e000        ..      B        0x8004402 ; 0x8004402
        0x08004400:    2101        .!      MOVS     r1,#1
        0x08004402:    19e5        ..      ADDS     r5,r4,r7
        0x08004404:    9f28        (.      LDR      r7,[sp,#0xa0]
        0x08004406:    42bd        .B      CMP      r5,r7
        0x08004408:    dd00        ..      BLE      0x800440c ; 0x800440c
        0x0800440a:    210a        .!      MOVS     r1,#0xa
        0x0800440c:    9f28        (.      LDR      r7,[sp,#0xa0]
        0x0800440e:    42bd        .B      CMP      r5,r7
        0x08004410:    dce8        ..      BGT      0x80043e4 ; 0x80043e4
        0x08004412:    462a        *F      MOV      r2,r5
        0x08004414:    e7e6        ..      B        0x80043e4 ; 0x80043e4
        0x08004416:    9e30        0.      LDR      r6,[sp,#0xc0]
        0x08004418:    9b27        '.      LDR      r3,[sp,#0x9c]
        0x0800441a:    e007        ..      B        0x800442c ; 0x800442c
        0x0800441c:    9a31        1.      LDR      r2,[sp,#0xc4]
        0x0800441e:    18a2        ..      ADDS     r2,r4,r2
        0x08004420:    9231        1.      STR      r2,[sp,#0xc4]
        0x08004422:    1d36        6.      ADDS     r6,r6,#4
        0x08004424:    1e5b        [.      SUBS     r3,r3,#1
        0x08004426:    460c        .F      MOV      r4,r1
        0x08004428:    463a        :F      MOV      r2,r7
        0x0800442a:    d010        ..      BEQ      0x800444e ; 0x800444e
        0x0800442c:    5981        .Y      LDR      r1,[r0,r6]
        0x0800442e:    2700        .'      MOVS     r7,#0
        0x08004430:    42a1        .B      CMP      r1,r4
        0x08004432:    dc01        ..      BGT      0x8004438 ; 0x8004438
        0x08004434:    463c        <F      MOV      r4,r7
        0x08004436:    e000        ..      B        0x800443a ; 0x800443a
        0x08004438:    2401        .$      MOVS     r4,#1
        0x0800443a:    188a        ..      ADDS     r2,r1,r2
        0x0800443c:    9d28        (.      LDR      r5,[sp,#0xa0]
        0x0800443e:    42aa        .B      CMP      r2,r5
        0x08004440:    dd00        ..      BLE      0x8004444 ; 0x8004444
        0x08004442:    240a        .$      MOVS     r4,#0xa
        0x08004444:    9d28        (.      LDR      r5,[sp,#0xa0]
        0x08004446:    42aa        .B      CMP      r2,r5
        0x08004448:    dce8        ..      BGT      0x800441c ; 0x800441c
        0x0800444a:    4617        .F      MOV      r7,r2
        0x0800444c:    e7e6        ..      B        0x800441c ; 0x800441c
        0x0800444e:    9a32        2.      LDR      r2,[sp,#0xc8]
        0x08004450:    9b27        '.      LDR      r3,[sp,#0x9c]
        0x08004452:    e007        ..      B        0x8004464 ; 0x8004464
        0x08004454:    9d31        1.      LDR      r5,[sp,#0xc4]
        0x08004456:    194d        M.      ADDS     r5,r1,r5
        0x08004458:    9531        1.      STR      r5,[sp,#0xc4]
        0x0800445a:    1d12        ..      ADDS     r2,r2,#4
        0x0800445c:    1e5b        [.      SUBS     r3,r3,#1
        0x0800445e:    4631        1F      MOV      r1,r6
        0x08004460:    4627        'F      MOV      r7,r4
        0x08004462:    d098        ..      BEQ      0x8004396 ; 0x8004396
        0x08004464:    5886        .X      LDR      r6,[r0,r2]
        0x08004466:    2400        .$      MOVS     r4,#0
        0x08004468:    428e        .B      CMP      r6,r1
        0x0800446a:    dc01        ..      BGT      0x8004470 ; 0x8004470
        0x0800446c:    4621        !F      MOV      r1,r4
        0x0800446e:    e000        ..      B        0x8004472 ; 0x8004472
        0x08004470:    2101        .!      MOVS     r1,#1
        0x08004472:    19f5        ..      ADDS     r5,r6,r7
        0x08004474:    9f28        (.      LDR      r7,[sp,#0xa0]
        0x08004476:    42bd        .B      CMP      r5,r7
        0x08004478:    dd00        ..      BLE      0x800447c ; 0x800447c
        0x0800447a:    210a        .!      MOVS     r1,#0xa
        0x0800447c:    9f28        (.      LDR      r7,[sp,#0xa0]
        0x0800447e:    42bd        .B      CMP      r5,r7
        0x08004480:    dce8        ..      BGT      0x8004454 ; 0x8004454
        0x08004482:    462c        ,F      MOV      r4,r5
        0x08004484:    e7e6        ..      B        0x8004454 ; 0x8004454
        0x08004486:    9902        ..      LDR      r1,[sp,#8]
        0x08004488:    981c        ..      LDR      r0,[sp,#0x70]
        0x0800448a:    4381        .C      BICS     r1,r1,r0
        0x0800448c:    2200        ."      MOVS     r2,#0
        0x0800448e:    9c12        ..      LDR      r4,[sp,#0x48]
        0x08004490:    912b        +.      STR      r1,[sp,#0xac]
        0x08004492:    460d        .F      MOV      r5,r1
        0x08004494:    9231        1.      STR      r2,[sp,#0xc4]
        0x08004496:    4616        .F      MOV      r6,r2
        0x08004498:    9232        2.      STR      r2,[sp,#0xc8]
        0x0800449a:    e009        ..      B        0x80044b0 ; 0x80044b0
        0x0800449c:    9931        1.      LDR      r1,[sp,#0xc4]
        0x0800449e:    1840        @.      ADDS     r0,r0,r1
        0x080044a0:    1818        ..      ADDS     r0,r3,r0
        0x080044a2:    992c        ,.      LDR      r1,[sp,#0xb0]
        0x080044a4:    1808        ..      ADDS     r0,r1,r0
        0x080044a6:    1838        8.      ADDS     r0,r7,r0
        0x080044a8:    9031        1.      STR      r0,[sp,#0xc4]
        0x080044aa:    3410        .4      ADDS     r4,r4,#0x10
        0x080044ac:    1f2d        -.      SUBS     r5,r5,#4
        0x080044ae:    d069        i.      BEQ      0x8004584 ; 0x8004584
        0x080044b0:    952f        /.      STR      r5,[sp,#0xbc]
        0x080044b2:    9630        0.      STR      r6,[sp,#0xc0]
        0x080044b4:    6861        ah      LDR      r1,[r4,#4]
        0x080044b6:    68a7        .h      LDR      r7,[r4,#8]
        0x080044b8:    2001        .       MOVS     r0,#1
        0x080044ba:    428f        .B      CMP      r7,r1
        0x080044bc:    9033        3.      STR      r0,[sp,#0xcc]
        0x080044be:    dc00        ..      BGT      0x80044c2 ; 0x80044c2
        0x080044c0:    9832        2.      LDR      r0,[sp,#0xc8]
        0x080044c2:    902c        ,.      STR      r0,[sp,#0xb0]
        0x080044c4:    6820         h      LDR      r0,[r4,#0]
        0x080044c6:    1882        ..      ADDS     r2,r0,r2
        0x080044c8:    9b28        (.      LDR      r3,[sp,#0xa0]
        0x080044ca:    429a        .B      CMP      r2,r3
        0x080044cc:    460e        .F      MOV      r6,r1
        0x080044ce:    dc00        ..      BGT      0x80044d2 ; 0x80044d2
        0x080044d0:    188e        ..      ADDS     r6,r1,r2
        0x080044d2:    9d28        (.      LDR      r5,[sp,#0xa0]
        0x080044d4:    42ae        .B      CMP      r6,r5
        0x080044d6:    463d        =F      MOV      r5,r7
        0x080044d8:    dc00        ..      BGT      0x80044dc ; 0x80044dc
        0x080044da:    19bd        ..      ADDS     r5,r7,r6
        0x080044dc:    972e        ..      STR      r7,[sp,#0xb8]
        0x080044de:    270a        .'      MOVS     r7,#0xa
        0x080044e0:    9b28        (.      LDR      r3,[sp,#0xa0]
        0x080044e2:    429d        .B      CMP      r5,r3
        0x080044e4:    463b        ;F      MOV      r3,r7
        0x080044e6:    dc00        ..      BGT      0x80044ea ; 0x80044ea
        0x080044e8:    9b2c        ,.      LDR      r3,[sp,#0xb0]
        0x080044ea:    932c        ,.      STR      r3,[sp,#0xb0]
        0x080044ec:    4281        .B      CMP      r1,r0
        0x080044ee:    9933        3.      LDR      r1,[sp,#0xcc]
        0x080044f0:    dc00        ..      BGT      0x80044f4 ; 0x80044f4
        0x080044f2:    9932        2.      LDR      r1,[sp,#0xc8]
        0x080044f4:    9b28        (.      LDR      r3,[sp,#0xa0]
        0x080044f6:    429e        .B      CMP      r6,r3
        0x080044f8:    463b        ;F      MOV      r3,r7
        0x080044fa:    dc00        ..      BGT      0x80044fe ; 0x80044fe
        0x080044fc:    460b        .F      MOV      r3,r1
        0x080044fe:    9930        0.      LDR      r1,[sp,#0xc0]
        0x08004500:    4288        .B      CMP      r0,r1
        0x08004502:    9933        3.      LDR      r1,[sp,#0xcc]
        0x08004504:    dc00        ..      BGT      0x8004508 ; 0x8004508
        0x08004506:    9932        2.      LDR      r1,[sp,#0xc8]
        0x08004508:    9828        (.      LDR      r0,[sp,#0xa0]
        0x0800450a:    4282        .B      CMP      r2,r0
        0x0800450c:    4638        8F      MOV      r0,r7
        0x0800450e:    dc00        ..      BGT      0x8004512 ; 0x8004512
        0x08004510:    4608        .F      MOV      r0,r1
        0x08004512:    68e6        .h      LDR      r6,[r4,#0xc]
        0x08004514:    9928        (.      LDR      r1,[sp,#0xa0]
        0x08004516:    428d        .B      CMP      r5,r1
        0x08004518:    4631        1F      MOV      r1,r6
        0x0800451a:    dc00        ..      BGT      0x800451e ; 0x800451e
        0x0800451c:    1971        q.      ADDS     r1,r6,r5
        0x0800451e:    9a2e        ..      LDR      r2,[sp,#0xb8]
        0x08004520:    4296        .B      CMP      r6,r2
        0x08004522:    dc01        ..      BGT      0x8004528 ; 0x8004528
        0x08004524:    9a32        2.      LDR      r2,[sp,#0xc8]
        0x08004526:    9233        3.      STR      r2,[sp,#0xcc]
        0x08004528:    9a28        (.      LDR      r2,[sp,#0xa0]
        0x0800452a:    4291        .B      CMP      r1,r2
        0x0800452c:    dc00        ..      BGT      0x8004530 ; 0x8004530
        0x0800452e:    9f33        3.      LDR      r7,[sp,#0xcc]
        0x08004530:    9a28        (.      LDR      r2,[sp,#0xa0]
        0x08004532:    4291        .B      CMP      r1,r2
        0x08004534:    9a32        2.      LDR      r2,[sp,#0xc8]
        0x08004536:    9d2f        /.      LDR      r5,[sp,#0xbc]
        0x08004538:    dcb0        ..      BGT      0x800449c ; 0x800449c
        0x0800453a:    460a        .F      MOV      r2,r1
        0x0800453c:    e7ae        ..      B        0x800449c ; 0x800449c
        0x0800453e:    9a09        ..      LDR      r2,[sp,#0x24]
        0x08004540:    9810        ..      LDR      r0,[sp,#0x40]
        0x08004542:    2800        .(      CMP      r0,#0
        0x08004544:    d157        W.      BNE      0x80045f6 ; 0x80045f6
        0x08004546:    9b27        '.      LDR      r3,[sp,#0x9c]
        0x08004548:    4618        .F      MOV      r0,r3
        0x0800454a:    4350        PC      MULS     r0,r2,r0
        0x0800454c:    0080        ..      LSLS     r0,r0,#2
        0x0800454e:    9912        ..      LDR      r1,[sp,#0x48]
        0x08004550:    1808        ..      ADDS     r0,r1,r0
        0x08004552:    e006        ..      B        0x8004562 ; 0x8004562
        0x08004554:    9c31        1.      LDR      r4,[sp,#0xc4]
        0x08004556:    192c        ,.      ADDS     r4,r5,r4
        0x08004558:    9431        1.      STR      r4,[sp,#0xc4]
        0x0800455a:    1e5b        [.      SUBS     r3,r3,#1
        0x0800455c:    460e        .F      MOV      r6,r1
        0x0800455e:    463c        <F      MOV      r4,r7
        0x08004560:    d01c        ..      BEQ      0x800459c ; 0x800459c
        0x08004562:    c802        ..      LDM      r0!,{r1}
        0x08004564:    2700        .'      MOVS     r7,#0
        0x08004566:    42b1        .B      CMP      r1,r6
        0x08004568:    dc01        ..      BGT      0x800456e ; 0x800456e
        0x0800456a:    463d        =F      MOV      r5,r7
        0x0800456c:    e000        ..      B        0x8004570 ; 0x8004570
        0x0800456e:    2501        .%      MOVS     r5,#1
        0x08004570:    190c        ..      ADDS     r4,r1,r4
        0x08004572:    9e28        (.      LDR      r6,[sp,#0xa0]
        0x08004574:    42b4        .B      CMP      r4,r6
        0x08004576:    dd00        ..      BLE      0x800457a ; 0x800457a
        0x08004578:    250a        .%      MOVS     r5,#0xa
        0x0800457a:    9e28        (.      LDR      r6,[sp,#0xa0]
        0x0800457c:    42b4        .B      CMP      r4,r6
        0x0800457e:    dce9        ..      BGT      0x8004554 ; 0x8004554
        0x08004580:    4627        'F      MOV      r7,r4
        0x08004582:    e7e7        ..      B        0x8004554 ; 0x8004554
        0x08004584:    982b        +.      LDR      r0,[sp,#0xac]
        0x08004586:    9903        ..      LDR      r1,[sp,#0xc]
        0x08004588:    2900        .)      CMP      r1,#0
        0x0800458a:    d034        4.      BEQ      0x80045f6 ; 0x80045f6
        0x0800458c:    0080        ..      LSLS     r0,r0,#2
        0x0800458e:    9912        ..      LDR      r1,[sp,#0x48]
        0x08004590:    1809        ..      ADDS     r1,r1,r0
        0x08004592:    6809        .h      LDR      r1,[r1,#0]
        0x08004594:    42b1        .B      CMP      r1,r6
        0x08004596:    dc25        %.      BGT      0x80045e4 ; 0x80045e4
        0x08004598:    2000        .       MOVS     r0,#0
        0x0800459a:    e024        $.      B        0x80045e6 ; 0x80045e6
        0x0800459c:    980f        ..      LDR      r0,[sp,#0x3c]
        0x0800459e:    2801        .(      CMP      r0,#1
        0x080045a0:    d029        ).      BEQ      0x80045f6 ; 0x80045f6
        0x080045a2:    1c50        P.      ADDS     r0,r2,#1
        0x080045a4:    9e27        '.      LDR      r6,[sp,#0x9c]
        0x080045a6:    4370        pC      MULS     r0,r6,r0
        0x080045a8:    0080        ..      LSLS     r0,r0,#2
        0x080045aa:    9b12        ..      LDR      r3,[sp,#0x48]
        0x080045ac:    181c        ..      ADDS     r4,r3,r0
        0x080045ae:    e008        ..      B        0x80045c2 ; 0x80045c2
        0x080045b0:    9d31        1.      LDR      r5,[sp,#0xc4]
        0x080045b2:    194d        M.      ADDS     r5,r1,r5
        0x080045b4:    9531        1.      STR      r5,[sp,#0xc4]
        0x080045b6:    1e76        v.      SUBS     r6,r6,#1
        0x080045b8:    4601        .F      MOV      r1,r0
        0x080045ba:    461f        .F      MOV      r7,r3
        0x080045bc:    d101        ..      BNE      0x80045c2 ; 0x80045c2
        0x080045be:    f000fd4d    ..M.    BL       0x800505c ; 0x800505c
        0x080045c2:    cc01        ..      LDM      r4!,{r0}
        0x080045c4:    2300        .#      MOVS     r3,#0
        0x080045c6:    4288        .B      CMP      r0,r1
        0x080045c8:    dc01        ..      BGT      0x80045ce ; 0x80045ce
        0x080045ca:    4619        .F      MOV      r1,r3
        0x080045cc:    e000        ..      B        0x80045d0 ; 0x80045d0
        0x080045ce:    2101        .!      MOVS     r1,#1
        0x080045d0:    19c5        ..      ADDS     r5,r0,r7
        0x080045d2:    9f28        (.      LDR      r7,[sp,#0xa0]
        0x080045d4:    42bd        .B      CMP      r5,r7
        0x080045d6:    dd00        ..      BLE      0x80045da ; 0x80045da
        0x080045d8:    210a        .!      MOVS     r1,#0xa
        0x080045da:    9f28        (.      LDR      r7,[sp,#0xa0]
        0x080045dc:    42bd        .B      CMP      r5,r7
        0x080045de:    dce7        ..      BGT      0x80045b0 ; 0x80045b0
        0x080045e0:    462b        +F      MOV      r3,r5
        0x080045e2:    e7e5        ..      B        0x80045b0 ; 0x80045b0
        0x080045e4:    2001        .       MOVS     r0,#1
        0x080045e6:    1889        ..      ADDS     r1,r1,r2
        0x080045e8:    9a28        (.      LDR      r2,[sp,#0xa0]
        0x080045ea:    4291        .B      CMP      r1,r2
        0x080045ec:    9931        1.      LDR      r1,[sp,#0xc4]
        0x080045ee:    dd00        ..      BLE      0x80045f2 ; 0x80045f2
        0x080045f0:    200a        .       MOVS     r0,#0xa
        0x080045f2:    1841        A.      ADDS     r1,r0,r1
        0x080045f4:    9131        1.      STR      r1,[sp,#0xc4]
        0x080045f6:    9814        ..      LDR      r0,[sp,#0x50]
        0x080045f8:    4601        .F      MOV      r1,r0
        0x080045fa:    311e        .1      ADDS     r1,r1,#0x1e
        0x080045fc:    9118        ..      STR      r1,[sp,#0x60]
        0x080045fe:    4601        .F      MOV      r1,r0
        0x08004600:    3116        .1      ADDS     r1,r1,#0x16
        0x08004602:    9117        ..      STR      r1,[sp,#0x5c]
        0x08004604:    300e        .0      ADDS     r0,r0,#0xe
        0x08004606:    9016        ..      STR      r0,[sp,#0x58]
        0x08004608:    2000        .       MOVS     r0,#0
        0x0800460a:    9911        ..      LDR      r1,[sp,#0x44]
        0x0800460c:    912f        /.      STR      r1,[sp,#0xbc]
        0x0800460e:    9e27        '.      LDR      r6,[sp,#0x9c]
        0x08004610:    9b34        4.      LDR      r3,[sp,#0xd0]
        0x08004612:    e00c        ..      B        0x800462e ; 0x800462e
        0x08004614:    9830        0.      LDR      r0,[sp,#0xc0]
        0x08004616:    0080        ..      LSLS     r0,r0,#2
        0x08004618:    9a2e        ..      LDR      r2,[sp,#0xb8]
        0x0800461a:    5011        .P      STR      r1,[r2,r0]
        0x0800461c:    9b34        4.      LDR      r3,[sp,#0xd0]
        0x0800461e:    982f        /.      LDR      r0,[sp,#0xbc]
        0x08004620:    18c0        ..      ADDS     r0,r0,r3
        0x08004622:    902f        /.      STR      r0,[sp,#0xbc]
        0x08004624:    981f        ..      LDR      r0,[sp,#0x7c]
        0x08004626:    1c40        @.      ADDS     r0,r0,#1
        0x08004628:    42b0        .B      CMP      r0,r6
        0x0800462a:    d100        ..      BNE      0x800462e ; 0x800462e
        0x0800462c:    e3c1        ..      B        0x8004db2 ; 0x8004db2
        0x0800462e:    4634        4F      MOV      r4,r6
        0x08004630:    901f        ..      STR      r0,[sp,#0x7c]
        0x08004632:    4344        DC      MULS     r4,r0,r4
        0x08004634:    00a0        ..      LSLS     r0,r4,#2
        0x08004636:    9912        ..      LDR      r1,[sp,#0x48]
        0x08004638:    1808        ..      ADDS     r0,r1,r0
        0x0800463a:    902e        ..      STR      r0,[sp,#0xb8]
        0x0800463c:    9813        ..      LDR      r0,[sp,#0x4c]
        0x0800463e:    2803        .(      CMP      r0,#3
        0x08004640:    d207        ..      BCS      0x8004652 ; 0x8004652
        0x08004642:    9810        ..      LDR      r0,[sp,#0x40]
        0x08004644:    2800        .(      CMP      r0,#0
        0x08004646:    d1ea        ..      BNE      0x800461e ; 0x800461e
        0x08004648:    2100        .!      MOVS     r1,#0
        0x0800464a:    9f14        ..      LDR      r7,[sp,#0x50]
        0x0800464c:    460a        .F      MOV      r2,r1
        0x0800464e:    9130        0.      STR      r1,[sp,#0xc0]
        0x08004650:    e299        ..      B        0x8004b86 ; 0x8004b86
        0x08004652:    9419        ..      STR      r4,[sp,#0x64]
        0x08004654:    980a        ..      LDR      r0,[sp,#0x28]
        0x08004656:    280c        .(      CMP      r0,#0xc
        0x08004658:    d201        ..      BCS      0x800465e ; 0x800465e
        0x0800465a:    2200        ."      MOVS     r2,#0
        0x0800465c:    e158        X.      B        0x8004910 ; 0x8004910
        0x0800465e:    2000        .       MOVS     r0,#0
        0x08004660:    9918        ..      LDR      r1,[sp,#0x60]
        0x08004662:    912c        ,.      STR      r1,[sp,#0xb0]
        0x08004664:    9917        ..      LDR      r1,[sp,#0x5c]
        0x08004666:    912b        +.      STR      r1,[sp,#0xac]
        0x08004668:    9916        ..      LDR      r1,[sp,#0x58]
        0x0800466a:    912a        *.      STR      r1,[sp,#0xa8]
        0x0800466c:    9b14        ..      LDR      r3,[sp,#0x50]
        0x0800466e:    4602        .F      MOV      r2,r0
        0x08004670:    9020         .      STR      r0,[sp,#0x80]
        0x08004672:    4601        .F      MOV      r1,r0
        0x08004674:    9126        &.      STR      r1,[sp,#0x98]
        0x08004676:    4611        .F      MOV      r1,r2
        0x08004678:    981c        ..      LDR      r0,[sp,#0x70]
        0x0800467a:    4301        .C      ORRS     r1,r1,r0
        0x0800467c:    9125        %.      STR      r1,[sp,#0x94]
        0x0800467e:    2002        .       MOVS     r0,#2
        0x08004680:    4310        .C      ORRS     r0,r0,r2
        0x08004682:    9024        $.      STR      r0,[sp,#0x90]
        0x08004684:    2001        .       MOVS     r0,#1
        0x08004686:    9230        0.      STR      r2,[sp,#0xc0]
        0x08004688:    4310        .C      ORRS     r0,r0,r2
        0x0800468a:    9023        #.      STR      r0,[sp,#0x8c]
        0x0800468c:    9f2f        /.      LDR      r7,[sp,#0xbc]
        0x0800468e:    4631        1F      MOV      r1,r6
        0x08004690:    9329        ).      STR      r3,[sp,#0xa4]
        0x08004692:    4618        .F      MOV      r0,r3
        0x08004694:    9a20         .      LDR      r2,[sp,#0x80]
        0x08004696:    4614        .F      MOV      r4,r2
        0x08004698:    4613        .F      MOV      r3,r2
        0x0800469a:    4616        .F      MOV      r6,r2
        0x0800469c:    9233        3.      STR      r2,[sp,#0xcc]
        0x0800469e:    9432        2.      STR      r4,[sp,#0xc8]
        0x080046a0:    883d        =.      LDRH     r5,[r7,#0]
        0x080046a2:    88c2        ..      LDRH     r2,[r0,#6]
        0x080046a4:    436a        jC      MULS     r2,r5,r2
        0x080046a6:    0514        ..      LSLS     r4,r2,#20
        0x080046a8:    0e64        d.      LSRS     r4,r4,#25
        0x080046aa:    0692        ..      LSLS     r2,r2,#26
        0x080046ac:    0f12        ..      LSRS     r2,r2,#28
        0x080046ae:    4362        bC      MULS     r2,r4,r2
        0x080046b0:    9c33        3.      LDR      r4,[sp,#0xcc]
        0x080046b2:    1914        ..      ADDS     r4,r2,r4
        0x080046b4:    9433        3.      STR      r4,[sp,#0xcc]
        0x080046b6:    8882        ..      LDRH     r2,[r0,#4]
        0x080046b8:    436a        jC      MULS     r2,r5,r2
        0x080046ba:    0514        ..      LSLS     r4,r2,#20
        0x080046bc:    0e64        d.      LSRS     r4,r4,#25
        0x080046be:    0692        ..      LSLS     r2,r2,#26
        0x080046c0:    0f12        ..      LSRS     r2,r2,#28
        0x080046c2:    4362        bC      MULS     r2,r4,r2
        0x080046c4:    1996        ..      ADDS     r6,r2,r6
        0x080046c6:    8842        B.      LDRH     r2,[r0,#2]
        0x080046c8:    436a        jC      MULS     r2,r5,r2
        0x080046ca:    0514        ..      LSLS     r4,r2,#20
        0x080046cc:    0e64        d.      LSRS     r4,r4,#25
        0x080046ce:    0692        ..      LSLS     r2,r2,#26
        0x080046d0:    0f12        ..      LSRS     r2,r2,#28
        0x080046d2:    4362        bC      MULS     r2,r4,r2
        0x080046d4:    18d3        ..      ADDS     r3,r2,r3
        0x080046d6:    8802        ..      LDRH     r2,[r0,#0]
        0x080046d8:    436a        jC      MULS     r2,r5,r2
        0x080046da:    9d34        4.      LDR      r5,[sp,#0xd0]
        0x080046dc:    0514        ..      LSLS     r4,r2,#20
        0x080046de:    0e64        d.      LSRS     r4,r4,#25
        0x080046e0:    0692        ..      LSLS     r2,r2,#26
        0x080046e2:    0f12        ..      LSRS     r2,r2,#28
        0x080046e4:    4362        bC      MULS     r2,r4,r2
        0x080046e6:    9c32        2.      LDR      r4,[sp,#0xc8]
        0x080046e8:    1914        ..      ADDS     r4,r2,r4
        0x080046ea:    1940        @.      ADDS     r0,r0,r5
        0x080046ec:    1cbf        ..      ADDS     r7,r7,#2
        0x080046ee:    1e49        I.      SUBS     r1,r1,#1
        0x080046f0:    d1d5        ..      BNE      0x800469e ; 0x800469e
        0x080046f2:    9823        #.      LDR      r0,[sp,#0x8c]
        0x080046f4:    0080        ..      LSLS     r0,r0,#2
        0x080046f6:    992e        ..      LDR      r1,[sp,#0xb8]
        0x080046f8:    500b        .P      STR      r3,[r1,r0]
        0x080046fa:    9a30        0.      LDR      r2,[sp,#0xc0]
        0x080046fc:    0090        ..      LSLS     r0,r2,#2
        0x080046fe:    500c        .P      STR      r4,[r1,r0]
        0x08004700:    9824        $.      LDR      r0,[sp,#0x90]
        0x08004702:    0080        ..      LSLS     r0,r0,#2
        0x08004704:    500e        .P      STR      r6,[r1,r0]
        0x08004706:    9825        %.      LDR      r0,[sp,#0x94]
        0x08004708:    0080        ..      LSLS     r0,r0,#2
        0x0800470a:    9b33        3.      LDR      r3,[sp,#0xcc]
        0x0800470c:    500b        .P      STR      r3,[r1,r0]
        0x0800470e:    2007        .       MOVS     r0,#7
        0x08004710:    4310        .C      ORRS     r0,r0,r2
        0x08004712:    9025        %.      STR      r0,[sp,#0x94]
        0x08004714:    4611        .F      MOV      r1,r2
        0x08004716:    982d        -.      LDR      r0,[sp,#0xb4]
        0x08004718:    4301        .C      ORRS     r1,r1,r0
        0x0800471a:    9124        $.      STR      r1,[sp,#0x90]
        0x0800471c:    2005        .       MOVS     r0,#5
        0x0800471e:    4310        .C      ORRS     r0,r0,r2
        0x08004720:    9023        #.      STR      r0,[sp,#0x8c]
        0x08004722:    2004        .       MOVS     r0,#4
        0x08004724:    4310        .C      ORRS     r0,r0,r2
        0x08004726:    9021        !.      STR      r0,[sp,#0x84]
        0x08004728:    2500        .%      MOVS     r5,#0
        0x0800472a:    992f        /.      LDR      r1,[sp,#0xbc]
        0x0800472c:    9b27        '.      LDR      r3,[sp,#0x9c]
        0x0800472e:    9f2a        *.      LDR      r7,[sp,#0xa8]
        0x08004730:    462a        *F      MOV      r2,r5
        0x08004732:    462c        ,F      MOV      r4,r5
        0x08004734:    9533        3.      STR      r5,[sp,#0xcc]
        0x08004736:    9532        2.      STR      r5,[sp,#0xc8]
        0x08004738:    880d        ..      LDRH     r5,[r1,#0]
        0x0800473a:    883e        >.      LDRH     r6,[r7,#0]
        0x0800473c:    436e        nC      MULS     r6,r5,r6
        0x0800473e:    0530        0.      LSLS     r0,r6,#20
        0x08004740:    0e40        @.      LSRS     r0,r0,#25
        0x08004742:    06b6        ..      LSLS     r6,r6,#26
        0x08004744:    0f36        6.      LSRS     r6,r6,#28
        0x08004746:    4346        FC      MULS     r6,r0,r6
        0x08004748:    9833        3.      LDR      r0,[sp,#0xcc]
        0x0800474a:    1830        0.      ADDS     r0,r6,r0
        0x0800474c:    9033        3.      STR      r0,[sp,#0xcc]
        0x0800474e:    1eb8        ..      SUBS     r0,r7,#2
        0x08004750:    8800        ..      LDRH     r0,[r0,#0]
        0x08004752:    4368        hC      MULS     r0,r5,r0
        0x08004754:    0506        ..      LSLS     r6,r0,#20
        0x08004756:    0e76        v.      LSRS     r6,r6,#25
        0x08004758:    0680        ..      LSLS     r0,r0,#26
        0x0800475a:    0f00        ..      LSRS     r0,r0,#28
        0x0800475c:    4370        pC      MULS     r0,r6,r0
        0x0800475e:    1904        ..      ADDS     r4,r0,r4
        0x08004760:    1f38        8.      SUBS     r0,r7,#4
        0x08004762:    8800        ..      LDRH     r0,[r0,#0]
        0x08004764:    4368        hC      MULS     r0,r5,r0
        0x08004766:    0506        ..      LSLS     r6,r0,#20
        0x08004768:    0e76        v.      LSRS     r6,r6,#25
        0x0800476a:    0680        ..      LSLS     r0,r0,#26
        0x0800476c:    0f00        ..      LSRS     r0,r0,#28
        0x0800476e:    4370        pC      MULS     r0,r6,r0
        0x08004770:    1882        ..      ADDS     r2,r0,r2
        0x08004772:    1fb8        ..      SUBS     r0,r7,#6
        0x08004774:    8800        ..      LDRH     r0,[r0,#0]
        0x08004776:    4368        hC      MULS     r0,r5,r0
        0x08004778:    0505        ..      LSLS     r5,r0,#20
        0x0800477a:    0e6d        m.      LSRS     r5,r5,#25
        0x0800477c:    0680        ..      LSLS     r0,r0,#26
        0x0800477e:    0f00        ..      LSRS     r0,r0,#28
        0x08004780:    4368        hC      MULS     r0,r5,r0
        0x08004782:    9d32        2.      LDR      r5,[sp,#0xc8]
        0x08004784:    1945        E.      ADDS     r5,r0,r5
        0x08004786:    9834        4.      LDR      r0,[sp,#0xd0]
        0x08004788:    183f        ?.      ADDS     r7,r7,r0
        0x0800478a:    1c89        ..      ADDS     r1,r1,#2
        0x0800478c:    1e5b        [.      SUBS     r3,r3,#1
        0x0800478e:    d1d2        ..      BNE      0x8004736 ; 0x8004736
        0x08004790:    9823        #.      LDR      r0,[sp,#0x8c]
        0x08004792:    0080        ..      LSLS     r0,r0,#2
        0x08004794:    992e        ..      LDR      r1,[sp,#0xb8]
        0x08004796:    500a        .P      STR      r2,[r1,r0]
        0x08004798:    9821        !.      LDR      r0,[sp,#0x84]
        0x0800479a:    0080        ..      LSLS     r0,r0,#2
        0x0800479c:    500d        .P      STR      r5,[r1,r0]
        0x0800479e:    9824        $.      LDR      r0,[sp,#0x90]
        0x080047a0:    0080        ..      LSLS     r0,r0,#2
        0x080047a2:    500c        .P      STR      r4,[r1,r0]
        0x080047a4:    9825        %.      LDR      r0,[sp,#0x94]
        0x080047a6:    0080        ..      LSLS     r0,r0,#2
        0x080047a8:    9a33        3.      LDR      r2,[sp,#0xcc]
        0x080047aa:    500a        .P      STR      r2,[r1,r0]
        0x080047ac:    210b        .!      MOVS     r1,#0xb
        0x080047ae:    9830        0.      LDR      r0,[sp,#0xc0]
        0x080047b0:    4301        .C      ORRS     r1,r1,r0
        0x080047b2:    9125        %.      STR      r1,[sp,#0x94]
        0x080047b4:    210a        .!      MOVS     r1,#0xa
        0x080047b6:    4301        .C      ORRS     r1,r1,r0
        0x080047b8:    9124        $.      STR      r1,[sp,#0x90]
        0x080047ba:    2109        .!      MOVS     r1,#9
        0x080047bc:    4301        .C      ORRS     r1,r1,r0
        0x080047be:    9123        #.      STR      r1,[sp,#0x8c]
        0x080047c0:    2108        .!      MOVS     r1,#8
        0x080047c2:    4301        .C      ORRS     r1,r1,r0
        0x080047c4:    9121        !.      STR      r1,[sp,#0x84]
        0x080047c6:    2500        .%      MOVS     r5,#0
        0x080047c8:    992f        /.      LDR      r1,[sp,#0xbc]
        0x080047ca:    9b27        '.      LDR      r3,[sp,#0x9c]
        0x080047cc:    9f2b        +.      LDR      r7,[sp,#0xac]
        0x080047ce:    4628        (F      MOV      r0,r5
        0x080047d0:    462a        *F      MOV      r2,r5
        0x080047d2:    9533        3.      STR      r5,[sp,#0xcc]
        0x080047d4:    9532        2.      STR      r5,[sp,#0xc8]
        0x080047d6:    880d        ..      LDRH     r5,[r1,#0]
        0x080047d8:    883e        >.      LDRH     r6,[r7,#0]
        0x080047da:    436e        nC      MULS     r6,r5,r6
        0x080047dc:    0534        4.      LSLS     r4,r6,#20
        0x080047de:    0e64        d.      LSRS     r4,r4,#25
        0x080047e0:    06b6        ..      LSLS     r6,r6,#26
        0x080047e2:    0f36        6.      LSRS     r6,r6,#28
        0x080047e4:    4366        fC      MULS     r6,r4,r6
        0x080047e6:    9c33        3.      LDR      r4,[sp,#0xcc]
        0x080047e8:    1934        4.      ADDS     r4,r6,r4
        0x080047ea:    9433        3.      STR      r4,[sp,#0xcc]
        0x080047ec:    1ebc        ..      SUBS     r4,r7,#2
        0x080047ee:    8824        $.      LDRH     r4,[r4,#0]
        0x080047f0:    436c        lC      MULS     r4,r5,r4
        0x080047f2:    0526        &.      LSLS     r6,r4,#20
        0x080047f4:    0e76        v.      LSRS     r6,r6,#25
        0x080047f6:    06a4        ..      LSLS     r4,r4,#26
        0x080047f8:    0f24        $.      LSRS     r4,r4,#28
        0x080047fa:    4374        tC      MULS     r4,r6,r4
        0x080047fc:    18a2        ..      ADDS     r2,r4,r2
        0x080047fe:    1f3c        <.      SUBS     r4,r7,#4
        0x08004800:    8824        $.      LDRH     r4,[r4,#0]
        0x08004802:    436c        lC      MULS     r4,r5,r4
        0x08004804:    0526        &.      LSLS     r6,r4,#20
        0x08004806:    0e76        v.      LSRS     r6,r6,#25
        0x08004808:    06a4        ..      LSLS     r4,r4,#26
        0x0800480a:    0f24        $.      LSRS     r4,r4,#28
        0x0800480c:    4374        tC      MULS     r4,r6,r4
        0x0800480e:    1820         .      ADDS     r0,r4,r0
        0x08004810:    1fbc        ..      SUBS     r4,r7,#6
        0x08004812:    8824        $.      LDRH     r4,[r4,#0]
        0x08004814:    436c        lC      MULS     r4,r5,r4
        0x08004816:    0525        %.      LSLS     r5,r4,#20
        0x08004818:    0e6d        m.      LSRS     r5,r5,#25
        0x0800481a:    06a4        ..      LSLS     r4,r4,#26
        0x0800481c:    0f24        $.      LSRS     r4,r4,#28
        0x0800481e:    436c        lC      MULS     r4,r5,r4
        0x08004820:    9d32        2.      LDR      r5,[sp,#0xc8]
        0x08004822:    1965        e.      ADDS     r5,r4,r5
        0x08004824:    9c34        4.      LDR      r4,[sp,#0xd0]
        0x08004826:    193f        ?.      ADDS     r7,r7,r4
        0x08004828:    1c89        ..      ADDS     r1,r1,#2
        0x0800482a:    1e5b        [.      SUBS     r3,r3,#1
        0x0800482c:    d1d2        ..      BNE      0x80047d4 ; 0x80047d4
        0x0800482e:    9923        #.      LDR      r1,[sp,#0x8c]
        0x08004830:    0089        ..      LSLS     r1,r1,#2
        0x08004832:    9b2e        ..      LDR      r3,[sp,#0xb8]
        0x08004834:    5058        XP      STR      r0,[r3,r1]
        0x08004836:    9821        !.      LDR      r0,[sp,#0x84]
        0x08004838:    0080        ..      LSLS     r0,r0,#2
        0x0800483a:    501d        .P      STR      r5,[r3,r0]
        0x0800483c:    9824        $.      LDR      r0,[sp,#0x90]
        0x0800483e:    0080        ..      LSLS     r0,r0,#2
        0x08004840:    501a        .P      STR      r2,[r3,r0]
        0x08004842:    9825        %.      LDR      r0,[sp,#0x94]
        0x08004844:    0080        ..      LSLS     r0,r0,#2
        0x08004846:    9933        3.      LDR      r1,[sp,#0xcc]
        0x08004848:    5019        .P      STR      r1,[r3,r0]
        0x0800484a:    210f        .!      MOVS     r1,#0xf
        0x0800484c:    9830        0.      LDR      r0,[sp,#0xc0]
        0x0800484e:    4301        .C      ORRS     r1,r1,r0
        0x08004850:    9125        %.      STR      r1,[sp,#0x94]
        0x08004852:    210e        .!      MOVS     r1,#0xe
        0x08004854:    4301        .C      ORRS     r1,r1,r0
        0x08004856:    9124        $.      STR      r1,[sp,#0x90]
        0x08004858:    210d        .!      MOVS     r1,#0xd
        0x0800485a:    4301        .C      ORRS     r1,r1,r0
        0x0800485c:    9123        #.      STR      r1,[sp,#0x8c]
        0x0800485e:    210c        .!      MOVS     r1,#0xc
        0x08004860:    4301        .C      ORRS     r1,r1,r0
        0x08004862:    9121        !.      STR      r1,[sp,#0x84]
        0x08004864:    2500        .%      MOVS     r5,#0
        0x08004866:    992f        /.      LDR      r1,[sp,#0xbc]
        0x08004868:    9b27        '.      LDR      r3,[sp,#0x9c]
        0x0800486a:    9f2c        ,.      LDR      r7,[sp,#0xb0]
        0x0800486c:    4628        (F      MOV      r0,r5
        0x0800486e:    462a        *F      MOV      r2,r5
        0x08004870:    9533        3.      STR      r5,[sp,#0xcc]
        0x08004872:    9532        2.      STR      r5,[sp,#0xc8]
        0x08004874:    880d        ..      LDRH     r5,[r1,#0]
        0x08004876:    883e        >.      LDRH     r6,[r7,#0]
        0x08004878:    436e        nC      MULS     r6,r5,r6
        0x0800487a:    0534        4.      LSLS     r4,r6,#20
        0x0800487c:    0e64        d.      LSRS     r4,r4,#25
        0x0800487e:    06b6        ..      LSLS     r6,r6,#26
        0x08004880:    0f36        6.      LSRS     r6,r6,#28
        0x08004882:    4366        fC      MULS     r6,r4,r6
        0x08004884:    9c33        3.      LDR      r4,[sp,#0xcc]
        0x08004886:    1934        4.      ADDS     r4,r6,r4
        0x08004888:    9433        3.      STR      r4,[sp,#0xcc]
        0x0800488a:    1ebc        ..      SUBS     r4,r7,#2
        0x0800488c:    8824        $.      LDRH     r4,[r4,#0]
        0x0800488e:    436c        lC      MULS     r4,r5,r4
        0x08004890:    0526        &.      LSLS     r6,r4,#20
        0x08004892:    0e76        v.      LSRS     r6,r6,#25
        0x08004894:    06a4        ..      LSLS     r4,r4,#26
        0x08004896:    0f24        $.      LSRS     r4,r4,#28
        0x08004898:    4374        tC      MULS     r4,r6,r4
        0x0800489a:    18a2        ..      ADDS     r2,r4,r2
        0x0800489c:    1f3c        <.      SUBS     r4,r7,#4
        0x0800489e:    8824        $.      LDRH     r4,[r4,#0]
        0x080048a0:    436c        lC      MULS     r4,r5,r4
        0x080048a2:    0526        &.      LSLS     r6,r4,#20
        0x080048a4:    0e76        v.      LSRS     r6,r6,#25
        0x080048a6:    06a4        ..      LSLS     r4,r4,#26
        0x080048a8:    0f24        $.      LSRS     r4,r4,#28
        0x080048aa:    4374        tC      MULS     r4,r6,r4
        0x080048ac:    1820         .      ADDS     r0,r4,r0
        0x080048ae:    1fbc        ..      SUBS     r4,r7,#6
        0x080048b0:    8824        $.      LDRH     r4,[r4,#0]
        0x080048b2:    436c        lC      MULS     r4,r5,r4
        0x080048b4:    0525        %.      LSLS     r5,r4,#20
        0x080048b6:    0e6d        m.      LSRS     r5,r5,#25
        0x080048b8:    06a4        ..      LSLS     r4,r4,#26
        0x080048ba:    0f24        $.      LSRS     r4,r4,#28
        0x080048bc:    436c        lC      MULS     r4,r5,r4
        0x080048be:    9d32        2.      LDR      r5,[sp,#0xc8]
        0x080048c0:    1965        e.      ADDS     r5,r4,r5
        0x080048c2:    9c34        4.      LDR      r4,[sp,#0xd0]
        0x080048c4:    193f        ?.      ADDS     r7,r7,r4
        0x080048c6:    1c89        ..      ADDS     r1,r1,#2
        0x080048c8:    1e5b        [.      SUBS     r3,r3,#1
        0x080048ca:    d1d2        ..      BNE      0x8004872 ; 0x8004872
        0x080048cc:    9923        #.      LDR      r1,[sp,#0x8c]
        0x080048ce:    0089        ..      LSLS     r1,r1,#2
        0x080048d0:    9b2e        ..      LDR      r3,[sp,#0xb8]
        0x080048d2:    5058        XP      STR      r0,[r3,r1]
        0x080048d4:    9821        !.      LDR      r0,[sp,#0x84]
        0x080048d6:    0080        ..      LSLS     r0,r0,#2
        0x080048d8:    501d        .P      STR      r5,[r3,r0]
        0x080048da:    9824        $.      LDR      r0,[sp,#0x90]
        0x080048dc:    0080        ..      LSLS     r0,r0,#2
        0x080048de:    501a        .P      STR      r2,[r3,r0]
        0x080048e0:    9825        %.      LDR      r0,[sp,#0x94]
        0x080048e2:    0080        ..      LSLS     r0,r0,#2
        0x080048e4:    9933        3.      LDR      r1,[sp,#0xcc]
        0x080048e6:    5019        .P      STR      r1,[r3,r0]
        0x080048e8:    982c        ,.      LDR      r0,[sp,#0xb0]
        0x080048ea:    3020         0      ADDS     r0,r0,#0x20
        0x080048ec:    902c        ,.      STR      r0,[sp,#0xb0]
        0x080048ee:    982b        +.      LDR      r0,[sp,#0xac]
        0x080048f0:    3020         0      ADDS     r0,r0,#0x20
        0x080048f2:    902b        +.      STR      r0,[sp,#0xac]
        0x080048f4:    982a        *.      LDR      r0,[sp,#0xa8]
        0x080048f6:    3020         0      ADDS     r0,r0,#0x20
        0x080048f8:    902a        *.      STR      r0,[sp,#0xa8]
        0x080048fa:    9b29        ).      LDR      r3,[sp,#0xa4]
        0x080048fc:    3320         3      ADDS     r3,r3,#0x20
        0x080048fe:    9926        &.      LDR      r1,[sp,#0x98]
        0x08004900:    1d09        ..      ADDS     r1,r1,#4
        0x08004902:    9a30        0.      LDR      r2,[sp,#0xc0]
        0x08004904:    3210        .2      ADDS     r2,r2,#0x10
        0x08004906:    981a        ..      LDR      r0,[sp,#0x68]
        0x08004908:    4281        .B      CMP      r1,r0
        0x0800490a:    9e27        '.      LDR      r6,[sp,#0x9c]
        0x0800490c:    d000        ..      BEQ      0x8004910 ; 0x8004910
        0x0800490e:    e6b1        ..      B        0x8004674 ; 0x8004674
        0x08004910:    980d        ..      LDR      r0,[sp,#0x34]
        0x08004912:    2800        .(      CMP      r0,#0
        0x08004914:    d100        ..      BNE      0x8004918 ; 0x8004918
        0x08004916:    e0f1        ..      B        0x8004afc ; 0x8004afc
        0x08004918:    0050        P.      LSLS     r0,r2,#1
        0x0800491a:    9914        ..      LDR      r1,[sp,#0x50]
        0x0800491c:    180c        ..      ADDS     r4,r1,r0
        0x0800491e:    1cd0        ..      ADDS     r0,r2,#3
        0x08004920:    902c        ,.      STR      r0,[sp,#0xb0]
        0x08004922:    1c90        ..      ADDS     r0,r2,#2
        0x08004924:    902b        +.      STR      r0,[sp,#0xac]
        0x08004926:    9230        0.      STR      r2,[sp,#0xc0]
        0x08004928:    1c50        P.      ADDS     r0,r2,#1
        0x0800492a:    902a        *.      STR      r0,[sp,#0xa8]
        0x0800492c:    2500        .%      MOVS     r5,#0
        0x0800492e:    4630        0F      MOV      r0,r6
        0x08004930:    9e2f        /.      LDR      r6,[sp,#0xbc]
        0x08004932:    462b        +F      MOV      r3,r5
        0x08004934:    462f        /F      MOV      r7,r5
        0x08004936:    9533        3.      STR      r5,[sp,#0xcc]
        0x08004938:    9532        2.      STR      r5,[sp,#0xc8]
        0x0800493a:    8835        5.      LDRH     r5,[r6,#0]
        0x0800493c:    88e1        ..      LDRH     r1,[r4,#6]
        0x0800493e:    4369        iC      MULS     r1,r5,r1
        0x08004940:    050a        ..      LSLS     r2,r1,#20
        0x08004942:    0e52        R.      LSRS     r2,r2,#25
        0x08004944:    0689        ..      LSLS     r1,r1,#26
        0x08004946:    0f09        ..      LSRS     r1,r1,#28
        0x08004948:    4351        QC      MULS     r1,r2,r1
        0x0800494a:    9a33        3.      LDR      r2,[sp,#0xcc]
        0x0800494c:    188a        ..      ADDS     r2,r1,r2
        0x0800494e:    9233        3.      STR      r2,[sp,#0xcc]
        0x08004950:    88a1        ..      LDRH     r1,[r4,#4]
        0x08004952:    4369        iC      MULS     r1,r5,r1
        0x08004954:    050a        ..      LSLS     r2,r1,#20
        0x08004956:    0e52        R.      LSRS     r2,r2,#25
        0x08004958:    0689        ..      LSLS     r1,r1,#26
        0x0800495a:    0f09        ..      LSRS     r1,r1,#28
        0x0800495c:    4351        QC      MULS     r1,r2,r1
        0x0800495e:    19cf        ..      ADDS     r7,r1,r7
        0x08004960:    8861        a.      LDRH     r1,[r4,#2]
        0x08004962:    4369        iC      MULS     r1,r5,r1
        0x08004964:    050a        ..      LSLS     r2,r1,#20
        0x08004966:    0e52        R.      LSRS     r2,r2,#25
        0x08004968:    0689        ..      LSLS     r1,r1,#26
        0x0800496a:    0f09        ..      LSRS     r1,r1,#28
        0x0800496c:    4351        QC      MULS     r1,r2,r1
        0x0800496e:    18cb        ..      ADDS     r3,r1,r3
        0x08004970:    8821        !.      LDRH     r1,[r4,#0]
        0x08004972:    4369        iC      MULS     r1,r5,r1
        0x08004974:    9d32        2.      LDR      r5,[sp,#0xc8]
        0x08004976:    050a        ..      LSLS     r2,r1,#20
        0x08004978:    0e52        R.      LSRS     r2,r2,#25
        0x0800497a:    0689        ..      LSLS     r1,r1,#26
        0x0800497c:    0f09        ..      LSRS     r1,r1,#28
        0x0800497e:    4351        QC      MULS     r1,r2,r1
        0x08004980:    194d        M.      ADDS     r5,r1,r5
        0x08004982:    9934        4.      LDR      r1,[sp,#0xd0]
        0x08004984:    1864        d.      ADDS     r4,r4,r1
        0x08004986:    1e40        @.      SUBS     r0,r0,#1
        0x08004988:    1cb6        ..      ADDS     r6,r6,#2
        0x0800498a:    2800        .(      CMP      r0,#0
        0x0800498c:    d1d4        ..      BNE      0x8004938 ; 0x8004938
        0x0800498e:    982a        *.      LDR      r0,[sp,#0xa8]
        0x08004990:    0080        ..      LSLS     r0,r0,#2
        0x08004992:    992e        ..      LDR      r1,[sp,#0xb8]
        0x08004994:    500b        .P      STR      r3,[r1,r0]
        0x08004996:    9a30        0.      LDR      r2,[sp,#0xc0]
        0x08004998:    0090        ..      LSLS     r0,r2,#2
        0x0800499a:    500d        .P      STR      r5,[r1,r0]
        0x0800499c:    982b        +.      LDR      r0,[sp,#0xac]
        0x0800499e:    0080        ..      LSLS     r0,r0,#2
        0x080049a0:    500f        .P      STR      r7,[r1,r0]
        0x080049a2:    982c        ,.      LDR      r0,[sp,#0xb0]
        0x080049a4:    0080        ..      LSLS     r0,r0,#2
        0x080049a6:    9b33        3.      LDR      r3,[sp,#0xcc]
        0x080049a8:    500b        .P      STR      r3,[r1,r0]
        0x080049aa:    1d11        ..      ADDS     r1,r2,#4
        0x080049ac:    980d        ..      LDR      r0,[sp,#0x34]
        0x080049ae:    2801        .(      CMP      r0,#1
        0x080049b0:    d051        Q.      BEQ      0x8004a56 ; 0x8004a56
        0x080049b2:    912c        ,.      STR      r1,[sp,#0xb0]
        0x080049b4:    1dd0        ..      ADDS     r0,r2,#7
        0x080049b6:    902b        +.      STR      r0,[sp,#0xac]
        0x080049b8:    0040        @.      LSLS     r0,r0,#1
        0x080049ba:    9914        ..      LDR      r1,[sp,#0x50]
        0x080049bc:    180e        ..      ADDS     r6,r1,r0
        0x080049be:    1d90        ..      ADDS     r0,r2,#6
        0x080049c0:    902a        *.      STR      r0,[sp,#0xa8]
        0x080049c2:    1d50        P.      ADDS     r0,r2,#5
        0x080049c4:    9029        ).      STR      r0,[sp,#0xa4]
        0x080049c6:    2400        .$      MOVS     r4,#0
        0x080049c8:    9a27        '.      LDR      r2,[sp,#0x9c]
        0x080049ca:    982f        /.      LDR      r0,[sp,#0xbc]
        0x080049cc:    4627        'F      MOV      r7,r4
        0x080049ce:    4623        #F      MOV      r3,r4
        0x080049d0:    9433        3.      STR      r4,[sp,#0xcc]
        0x080049d2:    9432        2.      STR      r4,[sp,#0xc8]
        0x080049d4:    8805        ..      LDRH     r5,[r0,#0]
        0x080049d6:    8831        1.      LDRH     r1,[r6,#0]
        0x080049d8:    4369        iC      MULS     r1,r5,r1
        0x080049da:    050c        ..      LSLS     r4,r1,#20
        0x080049dc:    0e64        d.      LSRS     r4,r4,#25
        0x080049de:    0689        ..      LSLS     r1,r1,#26
        0x080049e0:    0f09        ..      LSRS     r1,r1,#28
        0x080049e2:    4361        aC      MULS     r1,r4,r1
        0x080049e4:    9c33        3.      LDR      r4,[sp,#0xcc]
        0x080049e6:    190c        ..      ADDS     r4,r1,r4
        0x080049e8:    9433        3.      STR      r4,[sp,#0xcc]
        0x080049ea:    1eb1        ..      SUBS     r1,r6,#2
        0x080049ec:    8809        ..      LDRH     r1,[r1,#0]
        0x080049ee:    4369        iC      MULS     r1,r5,r1
        0x080049f0:    050c        ..      LSLS     r4,r1,#20
        0x080049f2:    0e64        d.      LSRS     r4,r4,#25
        0x080049f4:    0689        ..      LSLS     r1,r1,#26
        0x080049f6:    0f09        ..      LSRS     r1,r1,#28
        0x080049f8:    4361        aC      MULS     r1,r4,r1
        0x080049fa:    18cb        ..      ADDS     r3,r1,r3
        0x080049fc:    1f31        1.      SUBS     r1,r6,#4
        0x080049fe:    8809        ..      LDRH     r1,[r1,#0]
        0x08004a00:    4369        iC      MULS     r1,r5,r1
        0x08004a02:    050c        ..      LSLS     r4,r1,#20
        0x08004a04:    0e64        d.      LSRS     r4,r4,#25
        0x08004a06:    0689        ..      LSLS     r1,r1,#26
        0x08004a08:    0f09        ..      LSRS     r1,r1,#28
        0x08004a0a:    4361        aC      MULS     r1,r4,r1
        0x08004a0c:    19cf        ..      ADDS     r7,r1,r7
        0x08004a0e:    1fb1        ..      SUBS     r1,r6,#6
        0x08004a10:    8809        ..      LDRH     r1,[r1,#0]
        0x08004a12:    4369        iC      MULS     r1,r5,r1
        0x08004a14:    050c        ..      LSLS     r4,r1,#20
        0x08004a16:    0e64        d.      LSRS     r4,r4,#25
        0x08004a18:    0689        ..      LSLS     r1,r1,#26
        0x08004a1a:    0f09        ..      LSRS     r1,r1,#28
        0x08004a1c:    4361        aC      MULS     r1,r4,r1
        0x08004a1e:    9c32        2.      LDR      r4,[sp,#0xc8]
        0x08004a20:    190c        ..      ADDS     r4,r1,r4
        0x08004a22:    9934        4.      LDR      r1,[sp,#0xd0]
        0x08004a24:    1876        v.      ADDS     r6,r6,r1
        0x08004a26:    1e52        R.      SUBS     r2,r2,#1
        0x08004a28:    1c80        ..      ADDS     r0,r0,#2
        0x08004a2a:    2a00        .*      CMP      r2,#0
        0x08004a2c:    d1d1        ..      BNE      0x80049d2 ; 0x80049d2
        0x08004a2e:    9829        ).      LDR      r0,[sp,#0xa4]
        0x08004a30:    0080        ..      LSLS     r0,r0,#2
        0x08004a32:    992e        ..      LDR      r1,[sp,#0xb8]
        0x08004a34:    500f        .P      STR      r7,[r1,r0]
        0x08004a36:    982c        ,.      LDR      r0,[sp,#0xb0]
        0x08004a38:    0080        ..      LSLS     r0,r0,#2
        0x08004a3a:    500c        .P      STR      r4,[r1,r0]
        0x08004a3c:    982a        *.      LDR      r0,[sp,#0xa8]
        0x08004a3e:    0080        ..      LSLS     r0,r0,#2
        0x08004a40:    500b        .P      STR      r3,[r1,r0]
        0x08004a42:    982b        +.      LDR      r0,[sp,#0xac]
        0x08004a44:    0080        ..      LSLS     r0,r0,#2
        0x08004a46:    9a33        3.      LDR      r2,[sp,#0xcc]
        0x08004a48:    500a        .P      STR      r2,[r1,r0]
        0x08004a4a:    9a30        0.      LDR      r2,[sp,#0xc0]
        0x08004a4c:    4611        .F      MOV      r1,r2
        0x08004a4e:    3108        .1      ADDS     r1,r1,#8
        0x08004a50:    980d        ..      LDR      r0,[sp,#0x34]
        0x08004a52:    2802        .(      CMP      r0,#2
        0x08004a54:    d101        ..      BNE      0x8004a5a ; 0x8004a5a
        0x08004a56:    460a        .F      MOV      r2,r1
        0x08004a58:    e04f        O.      B        0x8004afa ; 0x8004afa
        0x08004a5a:    912c        ,.      STR      r1,[sp,#0xb0]
        0x08004a5c:    4610        .F      MOV      r0,r2
        0x08004a5e:    300b        .0      ADDS     r0,r0,#0xb
        0x08004a60:    902b        +.      STR      r0,[sp,#0xac]
        0x08004a62:    0040        @.      LSLS     r0,r0,#1
        0x08004a64:    9914        ..      LDR      r1,[sp,#0x50]
        0x08004a66:    180c        ..      ADDS     r4,r1,r0
        0x08004a68:    4610        .F      MOV      r0,r2
        0x08004a6a:    300a        .0      ADDS     r0,r0,#0xa
        0x08004a6c:    902a        *.      STR      r0,[sp,#0xa8]
        0x08004a6e:    3209        .2      ADDS     r2,r2,#9
        0x08004a70:    9229        ).      STR      r2,[sp,#0xa4]
        0x08004a72:    2500        .%      MOVS     r5,#0
        0x08004a74:    9a27        '.      LDR      r2,[sp,#0x9c]
        0x08004a76:    982f        /.      LDR      r0,[sp,#0xbc]
        0x08004a78:    462f        /F      MOV      r7,r5
        0x08004a7a:    462b        +F      MOV      r3,r5
        0x08004a7c:    9533        3.      STR      r5,[sp,#0xcc]
        0x08004a7e:    9532        2.      STR      r5,[sp,#0xc8]
        0x08004a80:    8805        ..      LDRH     r5,[r0,#0]
        0x08004a82:    8821        !.      LDRH     r1,[r4,#0]
        0x08004a84:    4369        iC      MULS     r1,r5,r1
        0x08004a86:    050e        ..      LSLS     r6,r1,#20
        0x08004a88:    0e76        v.      LSRS     r6,r6,#25
        0x08004a8a:    0689        ..      LSLS     r1,r1,#26
        0x08004a8c:    0f09        ..      LSRS     r1,r1,#28
        0x08004a8e:    4371        qC      MULS     r1,r6,r1
        0x08004a90:    9e33        3.      LDR      r6,[sp,#0xcc]
        0x08004a92:    198e        ..      ADDS     r6,r1,r6
        0x08004a94:    9633        3.      STR      r6,[sp,#0xcc]
        0x08004a96:    1ea1        ..      SUBS     r1,r4,#2
        0x08004a98:    8809        ..      LDRH     r1,[r1,#0]
        0x08004a9a:    4369        iC      MULS     r1,r5,r1
        0x08004a9c:    050e        ..      LSLS     r6,r1,#20
        0x08004a9e:    0e76        v.      LSRS     r6,r6,#25
        0x08004aa0:    0689        ..      LSLS     r1,r1,#26
        0x08004aa2:    0f09        ..      LSRS     r1,r1,#28
        0x08004aa4:    4371        qC      MULS     r1,r6,r1
        0x08004aa6:    18cb        ..      ADDS     r3,r1,r3
        0x08004aa8:    1f21        !.      SUBS     r1,r4,#4
        0x08004aaa:    8809        ..      LDRH     r1,[r1,#0]
        0x08004aac:    4369        iC      MULS     r1,r5,r1
        0x08004aae:    050e        ..      LSLS     r6,r1,#20
        0x08004ab0:    0e76        v.      LSRS     r6,r6,#25
        0x08004ab2:    0689        ..      LSLS     r1,r1,#26
        0x08004ab4:    0f09        ..      LSRS     r1,r1,#28
        0x08004ab6:    4371        qC      MULS     r1,r6,r1
        0x08004ab8:    19cf        ..      ADDS     r7,r1,r7
        0x08004aba:    1fa1        ..      SUBS     r1,r4,#6
        0x08004abc:    8809        ..      LDRH     r1,[r1,#0]
        0x08004abe:    4369        iC      MULS     r1,r5,r1
        0x08004ac0:    050d        ..      LSLS     r5,r1,#20
        0x08004ac2:    0e6d        m.      LSRS     r5,r5,#25
        0x08004ac4:    0689        ..      LSLS     r1,r1,#26
        0x08004ac6:    0f09        ..      LSRS     r1,r1,#28
        0x08004ac8:    4369        iC      MULS     r1,r5,r1
        0x08004aca:    9d32        2.      LDR      r5,[sp,#0xc8]
        0x08004acc:    194d        M.      ADDS     r5,r1,r5
        0x08004ace:    9934        4.      LDR      r1,[sp,#0xd0]
        0x08004ad0:    1864        d.      ADDS     r4,r4,r1
        0x08004ad2:    1e52        R.      SUBS     r2,r2,#1
        0x08004ad4:    1c80        ..      ADDS     r0,r0,#2
        0x08004ad6:    2a00        .*      CMP      r2,#0
        0x08004ad8:    d1d1        ..      BNE      0x8004a7e ; 0x8004a7e
        0x08004ada:    9829        ).      LDR      r0,[sp,#0xa4]
        0x08004adc:    0080        ..      LSLS     r0,r0,#2
        0x08004ade:    992e        ..      LDR      r1,[sp,#0xb8]
        0x08004ae0:    500f        .P      STR      r7,[r1,r0]
        0x08004ae2:    982c        ,.      LDR      r0,[sp,#0xb0]
        0x08004ae4:    0080        ..      LSLS     r0,r0,#2
        0x08004ae6:    500d        .P      STR      r5,[r1,r0]
        0x08004ae8:    982a        *.      LDR      r0,[sp,#0xa8]
        0x08004aea:    0080        ..      LSLS     r0,r0,#2
        0x08004aec:    500b        .P      STR      r3,[r1,r0]
        0x08004aee:    982b        +.      LDR      r0,[sp,#0xac]
        0x08004af0:    0080        ..      LSLS     r0,r0,#2
        0x08004af2:    9a33        3.      LDR      r2,[sp,#0xcc]
        0x08004af4:    500a        .P      STR      r2,[r1,r0]
        0x08004af6:    9a30        0.      LDR      r2,[sp,#0xc0]
        0x08004af8:    320c        .2      ADDS     r2,r2,#0xc
        0x08004afa:    9e27        '.      LDR      r6,[sp,#0x9c]
        0x08004afc:    9810        ..      LDR      r0,[sp,#0x40]
        0x08004afe:    2800        .(      CMP      r0,#0
        0x08004b00:    9b34        4.      LDR      r3,[sp,#0xd0]
        0x08004b02:    9c19        ..      LDR      r4,[sp,#0x64]
        0x08004b04:    d000        ..      BEQ      0x8004b08 ; 0x8004b08
        0x08004b06:    e58a        ..      B        0x800461e ; 0x800461e
        0x08004b08:    0050        P.      LSLS     r0,r2,#1
        0x08004b0a:    9914        ..      LDR      r1,[sp,#0x50]
        0x08004b0c:    180f        ..      ADDS     r7,r1,r0
        0x08004b0e:    9813        ..      LDR      r0,[sp,#0x4c]
        0x08004b10:    2803        .(      CMP      r0,#3
        0x08004b12:    9230        0.      STR      r2,[sp,#0xc0]
        0x08004b14:    d202        ..      BCS      0x8004b1c ; 0x8004b1c
        0x08004b16:    2200        ."      MOVS     r2,#0
        0x08004b18:    4611        .F      MOV      r1,r2
        0x08004b1a:    e034        4.      B        0x8004b86 ; 0x8004b86
        0x08004b1c:    2100        .!      MOVS     r1,#0
        0x08004b1e:    982f        /.      LDR      r0,[sp,#0xbc]
        0x08004b20:    9733        3.      STR      r7,[sp,#0xcc]
        0x08004b22:    463a        :F      MOV      r2,r7
        0x08004b24:    9c22        ".      LDR      r4,[sp,#0x88]
        0x08004b26:    9b1b        ..      LDR      r3,[sp,#0x6c]
        0x08004b28:    9d34        4.      LDR      r5,[sp,#0xd0]
        0x08004b2a:    5b55        U[      LDRH     r5,[r2,r5]
        0x08004b2c:    8846        F.      LDRH     r6,[r0,#2]
        0x08004b2e:    436e        nC      MULS     r6,r5,r6
        0x08004b30:    0535        5.      LSLS     r5,r6,#20
        0x08004b32:    0e6d        m.      LSRS     r5,r5,#25
        0x08004b34:    06b6        ..      LSLS     r6,r6,#26
        0x08004b36:    0f36        6.      LSRS     r6,r6,#28
        0x08004b38:    436e        nC      MULS     r6,r5,r6
        0x08004b3a:    8805        ..      LDRH     r5,[r0,#0]
        0x08004b3c:    8817        ..      LDRH     r7,[r2,#0]
        0x08004b3e:    436f        oC      MULS     r7,r5,r7
        0x08004b40:    053d        =.      LSLS     r5,r7,#20
        0x08004b42:    0e6d        m.      LSRS     r5,r5,#25
        0x08004b44:    06bf        ..      LSLS     r7,r7,#26
        0x08004b46:    0f3f        ?.      LSRS     r7,r7,#28
        0x08004b48:    436f        oC      MULS     r7,r5,r7
        0x08004b4a:    1879        y.      ADDS     r1,r7,r1
        0x08004b4c:    1871        q.      ADDS     r1,r6,r1
        0x08004b4e:    9d1e        ..      LDR      r5,[sp,#0x78]
        0x08004b50:    5b55        U[      LDRH     r5,[r2,r5]
        0x08004b52:    8886        ..      LDRH     r6,[r0,#4]
        0x08004b54:    436e        nC      MULS     r6,r5,r6
        0x08004b56:    0535        5.      LSLS     r5,r6,#20
        0x08004b58:    0e6d        m.      LSRS     r5,r5,#25
        0x08004b5a:    06b6        ..      LSLS     r6,r6,#26
        0x08004b5c:    0f36        6.      LSRS     r6,r6,#28
        0x08004b5e:    436e        nC      MULS     r6,r5,r6
        0x08004b60:    1871        q.      ADDS     r1,r6,r1
        0x08004b62:    5ad5        .Z      LDRH     r5,[r2,r3]
        0x08004b64:    88c6        ..      LDRH     r6,[r0,#6]
        0x08004b66:    436e        nC      MULS     r6,r5,r6
        0x08004b68:    0535        5.      LSLS     r5,r6,#20
        0x08004b6a:    0e6d        m.      LSRS     r5,r5,#25
        0x08004b6c:    06b6        ..      LSLS     r6,r6,#26
        0x08004b6e:    0f36        6.      LSRS     r6,r6,#28
        0x08004b70:    436e        nC      MULS     r6,r5,r6
        0x08004b72:    1871        q.      ADDS     r1,r6,r1
        0x08004b74:    9d1d        ..      LDR      r5,[sp,#0x74]
        0x08004b76:    1952        R.      ADDS     r2,r2,r5
        0x08004b78:    3008        .0      ADDS     r0,r0,#8
        0x08004b7a:    1f24        $.      SUBS     r4,r4,#4
        0x08004b7c:    d1d4        ..      BNE      0x8004b28 ; 0x8004b28
        0x08004b7e:    9a09        ..      LDR      r2,[sp,#0x24]
        0x08004b80:    9e27        '.      LDR      r6,[sp,#0x9c]
        0x08004b82:    9c19        ..      LDR      r4,[sp,#0x64]
        0x08004b84:    9f33        3.      LDR      r7,[sp,#0xcc]
        0x08004b86:    0060        `.      LSLS     r0,r4,#1
        0x08004b88:    9c11        ..      LDR      r4,[sp,#0x44]
        0x08004b8a:    1820         .      ADDS     r0,r4,r0
        0x08004b8c:    0054        T.      LSLS     r4,r2,#1
        0x08004b8e:    5b04        .[      LDRH     r4,[r0,r4]
        0x08004b90:    4635        5F      MOV      r5,r6
        0x08004b92:    4355        UC      MULS     r5,r2,r5
        0x08004b94:    006d        m.      LSLS     r5,r5,#1
        0x08004b96:    5b7d        }[      LDRH     r5,[r7,r5]
        0x08004b98:    4365        eC      MULS     r5,r4,r5
        0x08004b9a:    052c        ,.      LSLS     r4,r5,#20
        0x08004b9c:    0e64        d.      LSRS     r4,r4,#25
        0x08004b9e:    06ad        ..      LSLS     r5,r5,#26
        0x08004ba0:    0f2d        -.      LSRS     r5,r5,#28
        0x08004ba2:    4365        eC      MULS     r5,r4,r5
        0x08004ba4:    1869        i.      ADDS     r1,r5,r1
        0x08004ba6:    463b        ;F      MOV      r3,r7
        0x08004ba8:    9f0f        ..      LDR      r7,[sp,#0x3c]
        0x08004baa:    2f01        ./      CMP      r7,#1
        0x08004bac:    d100        ..      BNE      0x8004bb0 ; 0x8004bb0
        0x08004bae:    e531        1.      B        0x8004614 ; 0x8004614
        0x08004bb0:    1c54        T.      ADDS     r4,r2,#1
        0x08004bb2:    0065        e.      LSLS     r5,r4,#1
        0x08004bb4:    5b45        E[      LDRH     r5,[r0,r5]
        0x08004bb6:    4374        tC      MULS     r4,r6,r4
        0x08004bb8:    0064        d.      LSLS     r4,r4,#1
        0x08004bba:    5b1c        .[      LDRH     r4,[r3,r4]
        0x08004bbc:    436c        lC      MULS     r4,r5,r4
        0x08004bbe:    0525        %.      LSLS     r5,r4,#20
        0x08004bc0:    0e6d        m.      LSRS     r5,r5,#25
        0x08004bc2:    06a4        ..      LSLS     r4,r4,#26
        0x08004bc4:    0f24        $.      LSRS     r4,r4,#28
        0x08004bc6:    436c        lC      MULS     r4,r5,r4
        0x08004bc8:    1861        a.      ADDS     r1,r4,r1
        0x08004bca:    2f02        ./      CMP      r7,#2
        0x08004bcc:    9033        3.      STR      r0,[sp,#0xcc]
        0x08004bce:    d00c        ..      BEQ      0x8004bea ; 0x8004bea
        0x08004bd0:    1c92        ..      ADDS     r2,r2,#2
        0x08004bd2:    0054        T.      LSLS     r4,r2,#1
        0x08004bd4:    5b04        .[      LDRH     r4,[r0,r4]
        0x08004bd6:    4372        rC      MULS     r2,r6,r2
        0x08004bd8:    0052        R.      LSLS     r2,r2,#1
        0x08004bda:    5a9a        .Z      LDRH     r2,[r3,r2]
        0x08004bdc:    4362        bC      MULS     r2,r4,r2
        0x08004bde:    0513        ..      LSLS     r3,r2,#20
        0x08004be0:    0e5b        [.      LSRS     r3,r3,#25
        0x08004be2:    0692        ..      LSLS     r2,r2,#26
        0x08004be4:    0f12        ..      LSRS     r2,r2,#28
        0x08004be6:    435a        ZC      MULS     r2,r3,r2
        0x08004be8:    1851        Q.      ADDS     r1,r2,r1
        0x08004bea:    9b30        0.      LDR      r3,[sp,#0xc0]
        0x08004bec:    009a        ..      LSLS     r2,r3,#2
        0x08004bee:    982e        ..      LDR      r0,[sp,#0xb8]
        0x08004bf0:    5081        .P      STR      r1,[r0,r2]
        0x08004bf2:    1c5f        _.      ADDS     r7,r3,#1
        0x08004bf4:    0079        y.      LSLS     r1,r7,#1
        0x08004bf6:    9a14        ..      LDR      r2,[sp,#0x50]
        0x08004bf8:    1850        P.      ADDS     r0,r2,r1
        0x08004bfa:    9913        ..      LDR      r1,[sp,#0x4c]
        0x08004bfc:    2903        .)      CMP      r1,#3
        0x08004bfe:    9032        2.      STR      r0,[sp,#0xc8]
        0x08004c00:    d203        ..      BCS      0x8004c0a ; 0x8004c0a
        0x08004c02:    9330        0.      STR      r3,[sp,#0xc0]
        0x08004c04:    2100        .!      MOVS     r1,#0
        0x08004c06:    460a        .F      MOV      r2,r1
        0x08004c08:    e033        3.      B        0x8004c72 ; 0x8004c72
        0x08004c0a:    972c        ,.      STR      r7,[sp,#0xb0]
        0x08004c0c:    2200        ."      MOVS     r2,#0
        0x08004c0e:    992f        /.      LDR      r1,[sp,#0xbc]
        0x08004c10:    4606        .F      MOV      r6,r0
        0x08004c12:    9f22        ".      LDR      r7,[sp,#0x88]
        0x08004c14:    9834        4.      LDR      r0,[sp,#0xd0]
        0x08004c16:    5a35        5Z      LDRH     r5,[r6,r0]
        0x08004c18:    884b        K.      LDRH     r3,[r1,#2]
        0x08004c1a:    436b        kC      MULS     r3,r5,r3
        0x08004c1c:    051d        ..      LSLS     r5,r3,#20
        0x08004c1e:    0e6d        m.      LSRS     r5,r5,#25
        0x08004c20:    069b        ..      LSLS     r3,r3,#26
        0x08004c22:    0f1b        ..      LSRS     r3,r3,#28
        0x08004c24:    436b        kC      MULS     r3,r5,r3
        0x08004c26:    880d        ..      LDRH     r5,[r1,#0]
        0x08004c28:    8834        4.      LDRH     r4,[r6,#0]
        0x08004c2a:    436c        lC      MULS     r4,r5,r4
        0x08004c2c:    0525        %.      LSLS     r5,r4,#20
        0x08004c2e:    0e6d        m.      LSRS     r5,r5,#25
        0x08004c30:    06a4        ..      LSLS     r4,r4,#26
        0x08004c32:    0f24        $.      LSRS     r4,r4,#28
        0x08004c34:    436c        lC      MULS     r4,r5,r4
        0x08004c36:    18a2        ..      ADDS     r2,r4,r2
        0x08004c38:    189a        ..      ADDS     r2,r3,r2
        0x08004c3a:    9b1e        ..      LDR      r3,[sp,#0x78]
        0x08004c3c:    5af3        .Z      LDRH     r3,[r6,r3]
        0x08004c3e:    888c        ..      LDRH     r4,[r1,#4]
        0x08004c40:    435c        \C      MULS     r4,r3,r4
        0x08004c42:    0523        #.      LSLS     r3,r4,#20
        0x08004c44:    0e5b        [.      LSRS     r3,r3,#25
        0x08004c46:    06a4        ..      LSLS     r4,r4,#26
        0x08004c48:    0f24        $.      LSRS     r4,r4,#28
        0x08004c4a:    435c        \C      MULS     r4,r3,r4
        0x08004c4c:    18a2        ..      ADDS     r2,r4,r2
        0x08004c4e:    9b1b        ..      LDR      r3,[sp,#0x6c]
        0x08004c50:    5af3        .Z      LDRH     r3,[r6,r3]
        0x08004c52:    88cc        ..      LDRH     r4,[r1,#6]
        0x08004c54:    435c        \C      MULS     r4,r3,r4
        0x08004c56:    0523        #.      LSLS     r3,r4,#20
        0x08004c58:    0e5b        [.      LSRS     r3,r3,#25
        0x08004c5a:    06a4        ..      LSLS     r4,r4,#26
        0x08004c5c:    0f24        $.      LSRS     r4,r4,#28
        0x08004c5e:    435c        \C      MULS     r4,r3,r4
        0x08004c60:    18a2        ..      ADDS     r2,r4,r2
        0x08004c62:    9b1d        ..      LDR      r3,[sp,#0x74]
        0x08004c64:    18f6        ..      ADDS     r6,r6,r3
        0x08004c66:    3108        .1      ADDS     r1,r1,#8
        0x08004c68:    1f3f        ?.      SUBS     r7,r7,#4
        0x08004c6a:    d1d4        ..      BNE      0x8004c16 ; 0x8004c16
        0x08004c6c:    9909        ..      LDR      r1,[sp,#0x24]
        0x08004c6e:    9e27        '.      LDR      r6,[sp,#0x9c]
        0x08004c70:    9f2c        ,.      LDR      r7,[sp,#0xb0]
        0x08004c72:    004b        K.      LSLS     r3,r1,#1
        0x08004c74:    9833        3.      LDR      r0,[sp,#0xcc]
        0x08004c76:    5ac3        .Z      LDRH     r3,[r0,r3]
        0x08004c78:    4634        4F      MOV      r4,r6
        0x08004c7a:    434c        LC      MULS     r4,r1,r4
        0x08004c7c:    0064        d.      LSLS     r4,r4,#1
        0x08004c7e:    9d32        2.      LDR      r5,[sp,#0xc8]
        0x08004c80:    5b2c        ,[      LDRH     r4,[r5,r4]
        0x08004c82:    435c        \C      MULS     r4,r3,r4
        0x08004c84:    0523        #.      LSLS     r3,r4,#20
        0x08004c86:    0e5b        [.      LSRS     r3,r3,#25
        0x08004c88:    06a4        ..      LSLS     r4,r4,#26
        0x08004c8a:    0f24        $.      LSRS     r4,r4,#28
        0x08004c8c:    435c        \C      MULS     r4,r3,r4
        0x08004c8e:    18a2        ..      ADDS     r2,r4,r2
        0x08004c90:    1c4b        K.      ADDS     r3,r1,#1
        0x08004c92:    005c        \.      LSLS     r4,r3,#1
        0x08004c94:    5b04        .[      LDRH     r4,[r0,r4]
        0x08004c96:    4373        sC      MULS     r3,r6,r3
        0x08004c98:    005b        [.      LSLS     r3,r3,#1
        0x08004c9a:    5aeb        .Z      LDRH     r3,[r5,r3]
        0x08004c9c:    4363        cC      MULS     r3,r4,r3
        0x08004c9e:    051c        ..      LSLS     r4,r3,#20
        0x08004ca0:    0e64        d.      LSRS     r4,r4,#25
        0x08004ca2:    069b        ..      LSLS     r3,r3,#26
        0x08004ca4:    0f1b        ..      LSRS     r3,r3,#28
        0x08004ca6:    4363        cC      MULS     r3,r4,r3
        0x08004ca8:    189a        ..      ADDS     r2,r3,r2
        0x08004caa:    9b0f        ..      LDR      r3,[sp,#0x3c]
        0x08004cac:    2b02        .+      CMP      r3,#2
        0x08004cae:    d103        ..      BNE      0x8004cb8 ; 0x8004cb8
        0x08004cb0:    00b8        ..      LSLS     r0,r7,#2
        0x08004cb2:    992e        ..      LDR      r1,[sp,#0xb8]
        0x08004cb4:    500a        .P      STR      r2,[r1,r0]
        0x08004cb6:    e4b1        ..      B        0x800461c ; 0x800461c
        0x08004cb8:    1c89        ..      ADDS     r1,r1,#2
        0x08004cba:    004b        K.      LSLS     r3,r1,#1
        0x08004cbc:    5ac3        .Z      LDRH     r3,[r0,r3]
        0x08004cbe:    4371        qC      MULS     r1,r6,r1
        0x08004cc0:    0049        I.      LSLS     r1,r1,#1
        0x08004cc2:    5a69        iZ      LDRH     r1,[r5,r1]
        0x08004cc4:    4359        YC      MULS     r1,r3,r1
        0x08004cc6:    050b        ..      LSLS     r3,r1,#20
        0x08004cc8:    0e5b        [.      LSRS     r3,r3,#25
        0x08004cca:    0689        ..      LSLS     r1,r1,#26
        0x08004ccc:    0f09        ..      LSRS     r1,r1,#28
        0x08004cce:    4359        YC      MULS     r1,r3,r1
        0x08004cd0:    1889        ..      ADDS     r1,r1,r2
        0x08004cd2:    00ba        ..      LSLS     r2,r7,#2
        0x08004cd4:    982e        ..      LDR      r0,[sp,#0xb8]
        0x08004cd6:    5081        .P      STR      r1,[r0,r2]
        0x08004cd8:    9830        0.      LDR      r0,[sp,#0xc0]
        0x08004cda:    1c85        ..      ADDS     r5,r0,#2
        0x08004cdc:    0069        i.      LSLS     r1,r5,#1
        0x08004cde:    9a14        ..      LDR      r2,[sp,#0x50]
        0x08004ce0:    1857        W.      ADDS     r7,r2,r1
        0x08004ce2:    9913        ..      LDR      r1,[sp,#0x4c]
        0x08004ce4:    2903        .)      CMP      r1,#3
        0x08004ce6:    d202        ..      BCS      0x8004cee ; 0x8004cee
        0x08004ce8:    2100        .!      MOVS     r1,#0
        0x08004cea:    460c        .F      MOV      r4,r1
        0x08004cec:    e035        5.      B        0x8004d5a ; 0x8004d5a
        0x08004cee:    9532        2.      STR      r5,[sp,#0xc8]
        0x08004cf0:    2400        .$      MOVS     r4,#0
        0x08004cf2:    992f        /.      LDR      r1,[sp,#0xbc]
        0x08004cf4:    9730        0.      STR      r7,[sp,#0xc0]
        0x08004cf6:    463e        >F      MOV      r6,r7
        0x08004cf8:    9f22        ".      LDR      r7,[sp,#0x88]
        0x08004cfa:    9834        4.      LDR      r0,[sp,#0xd0]
        0x08004cfc:    5a35        5Z      LDRH     r5,[r6,r0]
        0x08004cfe:    884a        J.      LDRH     r2,[r1,#2]
        0x08004d00:    436a        jC      MULS     r2,r5,r2
        0x08004d02:    0515        ..      LSLS     r5,r2,#20
        0x08004d04:    0e6d        m.      LSRS     r5,r5,#25
        0x08004d06:    0692        ..      LSLS     r2,r2,#26
        0x08004d08:    0f12        ..      LSRS     r2,r2,#28
        0x08004d0a:    436a        jC      MULS     r2,r5,r2
        0x08004d0c:    880d        ..      LDRH     r5,[r1,#0]
        0x08004d0e:    8833        3.      LDRH     r3,[r6,#0]
        0x08004d10:    436b        kC      MULS     r3,r5,r3
        0x08004d12:    051d        ..      LSLS     r5,r3,#20
        0x08004d14:    0e6d        m.      LSRS     r5,r5,#25
        0x08004d16:    069b        ..      LSLS     r3,r3,#26
        0x08004d18:    0f1b        ..      LSRS     r3,r3,#28
        0x08004d1a:    436b        kC      MULS     r3,r5,r3
        0x08004d1c:    191b        ..      ADDS     r3,r3,r4
        0x08004d1e:    18d2        ..      ADDS     r2,r2,r3
        0x08004d20:    9b1e        ..      LDR      r3,[sp,#0x78]
        0x08004d22:    5af3        .Z      LDRH     r3,[r6,r3]
        0x08004d24:    888c        ..      LDRH     r4,[r1,#4]
        0x08004d26:    435c        \C      MULS     r4,r3,r4
        0x08004d28:    0523        #.      LSLS     r3,r4,#20
        0x08004d2a:    0e5b        [.      LSRS     r3,r3,#25
        0x08004d2c:    06a4        ..      LSLS     r4,r4,#26
        0x08004d2e:    0f24        $.      LSRS     r4,r4,#28
        0x08004d30:    435c        \C      MULS     r4,r3,r4
        0x08004d32:    18a2        ..      ADDS     r2,r4,r2
        0x08004d34:    9b1b        ..      LDR      r3,[sp,#0x6c]
        0x08004d36:    5af3        .Z      LDRH     r3,[r6,r3]
        0x08004d38:    88cc        ..      LDRH     r4,[r1,#6]
        0x08004d3a:    435c        \C      MULS     r4,r3,r4
        0x08004d3c:    0523        #.      LSLS     r3,r4,#20
        0x08004d3e:    0e5b        [.      LSRS     r3,r3,#25
        0x08004d40:    06a4        ..      LSLS     r4,r4,#26
        0x08004d42:    0f24        $.      LSRS     r4,r4,#28
        0x08004d44:    435c        \C      MULS     r4,r3,r4
        0x08004d46:    18a4        ..      ADDS     r4,r4,r2
        0x08004d48:    9a1d        ..      LDR      r2,[sp,#0x74]
        0x08004d4a:    18b6        ..      ADDS     r6,r6,r2
        0x08004d4c:    3108        .1      ADDS     r1,r1,#8
        0x08004d4e:    1f3f        ?.      SUBS     r7,r7,#4
        0x08004d50:    d1d4        ..      BNE      0x8004cfc ; 0x8004cfc
        0x08004d52:    9909        ..      LDR      r1,[sp,#0x24]
        0x08004d54:    9e27        '.      LDR      r6,[sp,#0x9c]
        0x08004d56:    9d32        2.      LDR      r5,[sp,#0xc8]
        0x08004d58:    9f30        0.      LDR      r7,[sp,#0xc0]
        0x08004d5a:    004a        J.      LSLS     r2,r1,#1
        0x08004d5c:    9833        3.      LDR      r0,[sp,#0xcc]
        0x08004d5e:    5a82        .Z      LDRH     r2,[r0,r2]
        0x08004d60:    4633        3F      MOV      r3,r6
        0x08004d62:    434b        KC      MULS     r3,r1,r3
        0x08004d64:    005b        [.      LSLS     r3,r3,#1
        0x08004d66:    5afb        .Z      LDRH     r3,[r7,r3]
        0x08004d68:    4353        SC      MULS     r3,r2,r3
        0x08004d6a:    051a        ..      LSLS     r2,r3,#20
        0x08004d6c:    0e52        R.      LSRS     r2,r2,#25
        0x08004d6e:    069b        ..      LSLS     r3,r3,#26
        0x08004d70:    0f1b        ..      LSRS     r3,r3,#28
        0x08004d72:    4353        SC      MULS     r3,r2,r3
        0x08004d74:    191a        ..      ADDS     r2,r3,r4
        0x08004d76:    1c4b        K.      ADDS     r3,r1,#1
        0x08004d78:    005c        \.      LSLS     r4,r3,#1
        0x08004d7a:    5b04        .[      LDRH     r4,[r0,r4]
        0x08004d7c:    4373        sC      MULS     r3,r6,r3
        0x08004d7e:    005b        [.      LSLS     r3,r3,#1
        0x08004d80:    5afb        .Z      LDRH     r3,[r7,r3]
        0x08004d82:    4363        cC      MULS     r3,r4,r3
        0x08004d84:    051c        ..      LSLS     r4,r3,#20
        0x08004d86:    0e64        d.      LSRS     r4,r4,#25
        0x08004d88:    069b        ..      LSLS     r3,r3,#26
        0x08004d8a:    0f1b        ..      LSRS     r3,r3,#28
        0x08004d8c:    4363        cC      MULS     r3,r4,r3
        0x08004d8e:    189a        ..      ADDS     r2,r3,r2
        0x08004d90:    1c89        ..      ADDS     r1,r1,#2
        0x08004d92:    004b        K.      LSLS     r3,r1,#1
        0x08004d94:    5ac0        .Z      LDRH     r0,[r0,r3]
        0x08004d96:    4371        qC      MULS     r1,r6,r1
        0x08004d98:    0049        I.      LSLS     r1,r1,#1
        0x08004d9a:    5a79        yZ      LDRH     r1,[r7,r1]
        0x08004d9c:    4341        AC      MULS     r1,r0,r1
        0x08004d9e:    0508        ..      LSLS     r0,r1,#20
        0x08004da0:    0e40        @.      LSRS     r0,r0,#25
        0x08004da2:    0689        ..      LSLS     r1,r1,#26
        0x08004da4:    0f09        ..      LSRS     r1,r1,#28
        0x08004da6:    4341        AC      MULS     r1,r0,r1
        0x08004da8:    1888        ..      ADDS     r0,r1,r2
        0x08004daa:    00a9        ..      LSLS     r1,r5,#2
        0x08004dac:    9a2e        ..      LDR      r2,[sp,#0xb8]
        0x08004dae:    5050        PP      STR      r0,[r2,r1]
        0x08004db0:    e434        4.      B        0x800461c ; 0x800461c
        0x08004db2:    9831        1.      LDR      r0,[sp,#0xc4]
        0x08004db4:    b200        ..      SXTH     r0,r0
        0x08004db6:    9915        ..      LDR      r1,[sp,#0x54]
        0x08004db8:    f7fcf8a4    ....    BL       crc16 ; 0x8000f04
        0x08004dbc:    4604        .F      MOV      r4,r0
        0x08004dbe:    9804        ..      LDR      r0,[sp,#0x10]
        0x08004dc0:    2800        .(      CMP      r0,#0
        0x08004dc2:    d008        ..      BEQ      0x8004dd6 ; 0x8004dd6
        0x08004dc4:    9813        ..      LDR      r0,[sp,#0x4c]
        0x08004dc6:    2803        .(      CMP      r0,#3
        0x08004dc8:    942c        ,.      STR      r4,[sp,#0xb0]
        0x08004dca:    d20e        ..      BCS      0x8004dea ; 0x8004dea
        0x08004dcc:    2100        .!      MOVS     r1,#0
        0x08004dce:    4608        .F      MOV      r0,r1
        0x08004dd0:    460f        .F      MOV      r7,r1
        0x08004dd2:    9109        ..      STR      r1,[sp,#0x24]
        0x08004dd4:    e0e9        ..      B        0x8004faa ; 0x8004faa
        0x08004dd6:    9805        ..      LDR      r0,[sp,#0x14]
        0x08004dd8:    2804        .(      CMP      r0,#4
        0x08004dda:    981c        ..      LDR      r0,[sp,#0x70]
        0x08004ddc:    d300        ..      BCC      0x8004de0 ; 0x8004de0
        0x08004dde:    e084        ..      B        0x8004eea ; 0x8004eea
        0x08004de0:    2200        ."      MOVS     r2,#0
        0x08004de2:    4610        .F      MOV      r0,r2
        0x08004de4:    4617        .F      MOV      r7,r2
        0x08004de6:    4615        .F      MOV      r5,r2
        0x08004de8:    e104        ..      B        0x8004ff4 ; 0x8004ff4
        0x08004dea:    200c        .       MOVS     r0,#0xc
        0x08004dec:    4370        pC      MULS     r0,r6,r0
        0x08004dee:    9032        2.      STR      r0,[sp,#0xc8]
        0x08004df0:    0130        0.      LSLS     r0,r6,#4
        0x08004df2:    9031        1.      STR      r0,[sp,#0xc4]
        0x08004df4:    2300        .#      MOVS     r3,#0
        0x08004df6:    9d12        ..      LDR      r5,[sp,#0x48]
        0x08004df8:    4618        .F      MOV      r0,r3
        0x08004dfa:    461f        .F      MOV      r7,r3
        0x08004dfc:    4619        .F      MOV      r1,r3
        0x08004dfe:    e009        ..      B        0x8004e14 ; 0x8004e14
        0x08004e00:    9a31        1.      LDR      r2,[sp,#0xc4]
        0x08004e02:    9d34        4.      LDR      r5,[sp,#0xd0]
        0x08004e04:    18ad        ..      ADDS     r5,r5,r2
        0x08004e06:    9b33        3.      LDR      r3,[sp,#0xcc]
        0x08004e08:    1d1b        ..      ADDS     r3,r3,#4
        0x08004e0a:    9a22        ".      LDR      r2,[sp,#0x88]
        0x08004e0c:    4293        .B      CMP      r3,r2
        0x08004e0e:    9e27        '.      LDR      r6,[sp,#0x9c]
        0x08004e10:    d100        ..      BNE      0x8004e14 ; 0x8004e14
        0x08004e12:    e0c9        ..      B        0x8004fa8 ; 0x8004fa8
        0x08004e14:    9333        3.      STR      r3,[sp,#0xcc]
        0x08004e16:    9534        4.      STR      r5,[sp,#0xd0]
        0x08004e18:    4634        4F      MOV      r4,r6
        0x08004e1a:    e004        ..      B        0x8004e26 ; 0x8004e26
        0x08004e1c:    1838        8.      ADDS     r0,r7,r0
        0x08004e1e:    1e64        d.      SUBS     r4,r4,#1
        0x08004e20:    461f        .F      MOV      r7,r3
        0x08004e22:    4631        1F      MOV      r1,r6
        0x08004e24:    d010        ..      BEQ      0x8004e48 ; 0x8004e48
        0x08004e26:    cd08        ..      LDM      r5!,{r3}
        0x08004e28:    2600        .&      MOVS     r6,#0
        0x08004e2a:    42bb        .B      CMP      r3,r7
        0x08004e2c:    dc01        ..      BGT      0x8004e32 ; 0x8004e32
        0x08004e2e:    4637        7F      MOV      r7,r6
        0x08004e30:    e000        ..      B        0x8004e34 ; 0x8004e34
        0x08004e32:    2701        .'      MOVS     r7,#1
        0x08004e34:    1859        Y.      ADDS     r1,r3,r1
        0x08004e36:    9a28        (.      LDR      r2,[sp,#0xa0]
        0x08004e38:    4291        .B      CMP      r1,r2
        0x08004e3a:    dd00        ..      BLE      0x8004e3e ; 0x8004e3e
        0x08004e3c:    270a        .'      MOVS     r7,#0xa
        0x08004e3e:    9a28        (.      LDR      r2,[sp,#0xa0]
        0x08004e40:    4291        .B      CMP      r1,r2
        0x08004e42:    dceb        ..      BGT      0x8004e1c ; 0x8004e1c
        0x08004e44:    460e        .F      MOV      r6,r1
        0x08004e46:    e7e9        ..      B        0x8004e1c ; 0x8004e1c
        0x08004e48:    9d1e        ..      LDR      r5,[sp,#0x78]
        0x08004e4a:    9c27        '.      LDR      r4,[sp,#0x9c]
        0x08004e4c:    e005        ..      B        0x8004e5a ; 0x8004e5a
        0x08004e4e:    1818        ..      ADDS     r0,r3,r0
        0x08004e50:    1d2d        -.      ADDS     r5,r5,#4
        0x08004e52:    1e64        d.      SUBS     r4,r4,#1
        0x08004e54:    463b        ;F      MOV      r3,r7
        0x08004e56:    460e        .F      MOV      r6,r1
        0x08004e58:    d011        ..      BEQ      0x8004e7e ; 0x8004e7e
        0x08004e5a:    9934        4.      LDR      r1,[sp,#0xd0]
        0x08004e5c:    594f        OY      LDR      r7,[r1,r5]
        0x08004e5e:    2100        .!      MOVS     r1,#0
        0x08004e60:    429f        .B      CMP      r7,r3
        0x08004e62:    dc01        ..      BGT      0x8004e68 ; 0x8004e68
        0x08004e64:    460b        .F      MOV      r3,r1
        0x08004e66:    e000        ..      B        0x8004e6a ; 0x8004e6a
        0x08004e68:    2301        .#      MOVS     r3,#1
        0x08004e6a:    19be        ..      ADDS     r6,r7,r6
        0x08004e6c:    9a28        (.      LDR      r2,[sp,#0xa0]
        0x08004e6e:    4296        .B      CMP      r6,r2
        0x08004e70:    dd00        ..      BLE      0x8004e74 ; 0x8004e74
        0x08004e72:    230a        .#      MOVS     r3,#0xa
        0x08004e74:    9a28        (.      LDR      r2,[sp,#0xa0]
        0x08004e76:    4296        .B      CMP      r6,r2
        0x08004e78:    dce9        ..      BGT      0x8004e4e ; 0x8004e4e
        0x08004e7a:    4631        1F      MOV      r1,r6
        0x08004e7c:    e7e7        ..      B        0x8004e4e ; 0x8004e4e
        0x08004e7e:    9d1d        ..      LDR      r5,[sp,#0x74]
        0x08004e80:    9c27        '.      LDR      r4,[sp,#0x9c]
        0x08004e82:    e005        ..      B        0x8004e90 ; 0x8004e90
        0x08004e84:    1838        8.      ADDS     r0,r7,r0
        0x08004e86:    1d2d        -.      ADDS     r5,r5,#4
        0x08004e88:    1e64        d.      SUBS     r4,r4,#1
        0x08004e8a:    461f        .F      MOV      r7,r3
        0x08004e8c:    4631        1F      MOV      r1,r6
        0x08004e8e:    d011        ..      BEQ      0x8004eb4 ; 0x8004eb4
        0x08004e90:    9a34        4.      LDR      r2,[sp,#0xd0]
        0x08004e92:    5953        SY      LDR      r3,[r2,r5]
        0x08004e94:    2600        .&      MOVS     r6,#0
        0x08004e96:    42bb        .B      CMP      r3,r7
        0x08004e98:    dc01        ..      BGT      0x8004e9e ; 0x8004e9e
        0x08004e9a:    4637        7F      MOV      r7,r6
        0x08004e9c:    e000        ..      B        0x8004ea0 ; 0x8004ea0
        0x08004e9e:    2701        .'      MOVS     r7,#1
        0x08004ea0:    1859        Y.      ADDS     r1,r3,r1
        0x08004ea2:    9a28        (.      LDR      r2,[sp,#0xa0]
        0x08004ea4:    4291        .B      CMP      r1,r2
        0x08004ea6:    dd00        ..      BLE      0x8004eaa ; 0x8004eaa
        0x08004ea8:    270a        .'      MOVS     r7,#0xa
        0x08004eaa:    9a28        (.      LDR      r2,[sp,#0xa0]
        0x08004eac:    4291        .B      CMP      r1,r2
        0x08004eae:    dce9        ..      BGT      0x8004e84 ; 0x8004e84
        0x08004eb0:    460e        .F      MOV      r6,r1
        0x08004eb2:    e7e7        ..      B        0x8004e84 ; 0x8004e84
        0x08004eb4:    9d32        2.      LDR      r5,[sp,#0xc8]
        0x08004eb6:    9c27        '.      LDR      r4,[sp,#0x9c]
        0x08004eb8:    e005        ..      B        0x8004ec6 ; 0x8004ec6
        0x08004eba:    1818        ..      ADDS     r0,r3,r0
        0x08004ebc:    1d2d        -.      ADDS     r5,r5,#4
        0x08004ebe:    1e64        d.      SUBS     r4,r4,#1
        0x08004ec0:    463b        ;F      MOV      r3,r7
        0x08004ec2:    460e        .F      MOV      r6,r1
        0x08004ec4:    d09c        ..      BEQ      0x8004e00 ; 0x8004e00
        0x08004ec6:    9934        4.      LDR      r1,[sp,#0xd0]
        0x08004ec8:    594f        OY      LDR      r7,[r1,r5]
        0x08004eca:    2100        .!      MOVS     r1,#0
        0x08004ecc:    429f        .B      CMP      r7,r3
        0x08004ece:    dc01        ..      BGT      0x8004ed4 ; 0x8004ed4
        0x08004ed0:    460b        .F      MOV      r3,r1
        0x08004ed2:    e000        ..      B        0x8004ed6 ; 0x8004ed6
        0x08004ed4:    2301        .#      MOVS     r3,#1
        0x08004ed6:    19be        ..      ADDS     r6,r7,r6
        0x08004ed8:    9a28        (.      LDR      r2,[sp,#0xa0]
        0x08004eda:    4296        .B      CMP      r6,r2
        0x08004edc:    dd00        ..      BLE      0x8004ee0 ; 0x8004ee0
        0x08004ede:    230a        .#      MOVS     r3,#0xa
        0x08004ee0:    9a28        (.      LDR      r2,[sp,#0xa0]
        0x08004ee2:    4296        .B      CMP      r6,r2
        0x08004ee4:    dce9        ..      BGT      0x8004eba ; 0x8004eba
        0x08004ee6:    4631        1F      MOV      r1,r6
        0x08004ee8:    e7e7        ..      B        0x8004eba ; 0x8004eba
        0x08004eea:    942c        ,.      STR      r4,[sp,#0xb0]
        0x08004eec:    9902        ..      LDR      r1,[sp,#8]
        0x08004eee:    4381        .C      BICS     r1,r1,r0
        0x08004ef0:    2200        ."      MOVS     r2,#0
        0x08004ef2:    9e12        ..      LDR      r6,[sp,#0x48]
        0x08004ef4:    912b        +.      STR      r1,[sp,#0xac]
        0x08004ef6:    460c        .F      MOV      r4,r1
        0x08004ef8:    4610        .F      MOV      r0,r2
        0x08004efa:    4617        .F      MOV      r7,r2
        0x08004efc:    9233        3.      STR      r2,[sp,#0xcc]
        0x08004efe:    4611        .F      MOV      r1,r2
        0x08004f00:    e008        ..      B        0x8004f14 ; 0x8004f14
        0x08004f02:    1810        ..      ADDS     r0,r2,r0
        0x08004f04:    9a2e        ..      LDR      r2,[sp,#0xb8]
        0x08004f06:    1810        ..      ADDS     r0,r2,r0
        0x08004f08:    9a2f        /.      LDR      r2,[sp,#0xbc]
        0x08004f0a:    1810        ..      ADDS     r0,r2,r0
        0x08004f0c:    1828        (.      ADDS     r0,r5,r0
        0x08004f0e:    3610        .6      ADDS     r6,r6,#0x10
        0x08004f10:    1f24        $.      SUBS     r4,r4,#4
        0x08004f12:    d06b        k.      BEQ      0x8004fec ; 0x8004fec
        0x08004f14:    9431        1.      STR      r4,[sp,#0xc4]
        0x08004f16:    9732        2.      STR      r7,[sp,#0xc8]
        0x08004f18:    6874        th      LDR      r4,[r6,#4]
        0x08004f1a:    68b5        .h      LDR      r5,[r6,#8]
        0x08004f1c:    2201        ."      MOVS     r2,#1
        0x08004f1e:    42a5        .B      CMP      r5,r4
        0x08004f20:    9234        4.      STR      r2,[sp,#0xd0]
        0x08004f22:    dc00        ..      BGT      0x8004f26 ; 0x8004f26
        0x08004f24:    9a33        3.      LDR      r2,[sp,#0xcc]
        0x08004f26:    922f        /.      STR      r2,[sp,#0xbc]
        0x08004f28:    6837        7h      LDR      r7,[r6,#0]
        0x08004f2a:    187a        z.      ADDS     r2,r7,r1
        0x08004f2c:    9928        (.      LDR      r1,[sp,#0xa0]
        0x08004f2e:    428a        .B      CMP      r2,r1
        0x08004f30:    4623        #F      MOV      r3,r4
        0x08004f32:    dc00        ..      BGT      0x8004f36 ; 0x8004f36
        0x08004f34:    18a3        ..      ADDS     r3,r4,r2
        0x08004f36:    922d        -.      STR      r2,[sp,#0xb4]
        0x08004f38:    9928        (.      LDR      r1,[sp,#0xa0]
        0x08004f3a:    428b        .B      CMP      r3,r1
        0x08004f3c:    4629        )F      MOV      r1,r5
        0x08004f3e:    dc00        ..      BGT      0x8004f42 ; 0x8004f42
        0x08004f40:    18e9        ..      ADDS     r1,r5,r3
        0x08004f42:    9530        0.      STR      r5,[sp,#0xc0]
        0x08004f44:    250a        .%      MOVS     r5,#0xa
        0x08004f46:    9a28        (.      LDR      r2,[sp,#0xa0]
        0x08004f48:    4291        .B      CMP      r1,r2
        0x08004f4a:    462a        *F      MOV      r2,r5
        0x08004f4c:    dc00        ..      BGT      0x8004f50 ; 0x8004f50
        0x08004f4e:    9a2f        /.      LDR      r2,[sp,#0xbc]
        0x08004f50:    922f        /.      STR      r2,[sp,#0xbc]
        0x08004f52:    42bc        .B      CMP      r4,r7
        0x08004f54:    9c34        4.      LDR      r4,[sp,#0xd0]
        0x08004f56:    dc00        ..      BGT      0x8004f5a ; 0x8004f5a
        0x08004f58:    9c33        3.      LDR      r4,[sp,#0xcc]
        0x08004f5a:    9a28        (.      LDR      r2,[sp,#0xa0]
        0x08004f5c:    4293        .B      CMP      r3,r2
        0x08004f5e:    462a        *F      MOV      r2,r5
        0x08004f60:    dc00        ..      BGT      0x8004f64 ; 0x8004f64
        0x08004f62:    4622        "F      MOV      r2,r4
        0x08004f64:    922e        ..      STR      r2,[sp,#0xb8]
        0x08004f66:    9a32        2.      LDR      r2,[sp,#0xc8]
        0x08004f68:    4297        .B      CMP      r7,r2
        0x08004f6a:    9b34        4.      LDR      r3,[sp,#0xd0]
        0x08004f6c:    dc00        ..      BGT      0x8004f70 ; 0x8004f70
        0x08004f6e:    9b33        3.      LDR      r3,[sp,#0xcc]
        0x08004f70:    9a28        (.      LDR      r2,[sp,#0xa0]
        0x08004f72:    9c2d        -.      LDR      r4,[sp,#0xb4]
        0x08004f74:    4294        .B      CMP      r4,r2
        0x08004f76:    462a        *F      MOV      r2,r5
        0x08004f78:    dc00        ..      BGT      0x8004f7c ; 0x8004f7c
        0x08004f7a:    461a        .F      MOV      r2,r3
        0x08004f7c:    68f7        .h      LDR      r7,[r6,#0xc]
        0x08004f7e:    9b28        (.      LDR      r3,[sp,#0xa0]
        0x08004f80:    4299        .B      CMP      r1,r3
        0x08004f82:    463b        ;F      MOV      r3,r7
        0x08004f84:    dc00        ..      BGT      0x8004f88 ; 0x8004f88
        0x08004f86:    187b        {.      ADDS     r3,r7,r1
        0x08004f88:    9930        0.      LDR      r1,[sp,#0xc0]
        0x08004f8a:    428f        .B      CMP      r7,r1
        0x08004f8c:    dc01        ..      BGT      0x8004f92 ; 0x8004f92
        0x08004f8e:    9933        3.      LDR      r1,[sp,#0xcc]
        0x08004f90:    9134        4.      STR      r1,[sp,#0xd0]
        0x08004f92:    9928        (.      LDR      r1,[sp,#0xa0]
        0x08004f94:    428b        .B      CMP      r3,r1
        0x08004f96:    dc00        ..      BGT      0x8004f9a ; 0x8004f9a
        0x08004f98:    9d34        4.      LDR      r5,[sp,#0xd0]
        0x08004f9a:    9928        (.      LDR      r1,[sp,#0xa0]
        0x08004f9c:    428b        .B      CMP      r3,r1
        0x08004f9e:    9933        3.      LDR      r1,[sp,#0xcc]
        0x08004fa0:    9c31        1.      LDR      r4,[sp,#0xc4]
        0x08004fa2:    dcae        ..      BGT      0x8004f02 ; 0x8004f02
        0x08004fa4:    4619        .F      MOV      r1,r3
        0x08004fa6:    e7ac        ..      B        0x8004f02 ; 0x8004f02
        0x08004fa8:    9c2c        ,.      LDR      r4,[sp,#0xb0]
        0x08004faa:    9a10        ..      LDR      r2,[sp,#0x40]
        0x08004fac:    2a00        .*      CMP      r2,#0
        0x08004fae:    d179        y.      BNE      0x80050a4 ; 0x80050a4
        0x08004fb0:    4632        2F      MOV      r2,r6
        0x08004fb2:    9b09        ..      LDR      r3,[sp,#0x24]
        0x08004fb4:    435a        ZC      MULS     r2,r3,r2
        0x08004fb6:    0092        ..      LSLS     r2,r2,#2
        0x08004fb8:    9b12        ..      LDR      r3,[sp,#0x48]
        0x08004fba:    189a        ..      ADDS     r2,r3,r2
        0x08004fbc:    4635        5F      MOV      r5,r6
        0x08004fbe:    e004        ..      B        0x8004fca ; 0x8004fca
        0x08004fc0:    1830        0.      ADDS     r0,r6,r0
        0x08004fc2:    1e6d        m.      SUBS     r5,r5,#1
        0x08004fc4:    461f        .F      MOV      r7,r3
        0x08004fc6:    4621        !F      MOV      r1,r4
        0x08004fc8:    d01f        ..      BEQ      0x800500a ; 0x800500a
        0x08004fca:    ca08        ..      LDM      r2!,{r3}
        0x08004fcc:    2400        .$      MOVS     r4,#0
        0x08004fce:    42bb        .B      CMP      r3,r7
        0x08004fd0:    dc01        ..      BGT      0x8004fd6 ; 0x8004fd6
        0x08004fd2:    4626        &F      MOV      r6,r4
        0x08004fd4:    e000        ..      B        0x8004fd8 ; 0x8004fd8
        0x08004fd6:    2601        .&      MOVS     r6,#1
        0x08004fd8:    1859        Y.      ADDS     r1,r3,r1
        0x08004fda:    9f28        (.      LDR      r7,[sp,#0xa0]
        0x08004fdc:    42b9        .B      CMP      r1,r7
        0x08004fde:    dd00        ..      BLE      0x8004fe2 ; 0x8004fe2
        0x08004fe0:    260a        .&      MOVS     r6,#0xa
        0x08004fe2:    9f28        (.      LDR      r7,[sp,#0xa0]
        0x08004fe4:    42b9        .B      CMP      r1,r7
        0x08004fe6:    dceb        ..      BGT      0x8004fc0 ; 0x8004fc0
        0x08004fe8:    460c        .F      MOV      r4,r1
        0x08004fea:    e7e9        ..      B        0x8004fc0 ; 0x8004fc0
        0x08004fec:    460d        .F      MOV      r5,r1
        0x08004fee:    9e27        '.      LDR      r6,[sp,#0x9c]
        0x08004ff0:    9c2c        ,.      LDR      r4,[sp,#0xb0]
        0x08004ff2:    9a2b        +.      LDR      r2,[sp,#0xac]
        0x08004ff4:    9903        ..      LDR      r1,[sp,#0xc]
        0x08004ff6:    2900        .)      CMP      r1,#0
        0x08004ff8:    d054        T.      BEQ      0x80050a4 ; 0x80050a4
        0x08004ffa:    0091        ..      LSLS     r1,r2,#2
        0x08004ffc:    9a12        ..      LDR      r2,[sp,#0x48]
        0x08004ffe:    1851        Q.      ADDS     r1,r2,r1
        0x08005000:    680a        .h      LDR      r2,[r1,#0]
        0x08005002:    42ba        .B      CMP      r2,r7
        0x08005004:    dc22        ".      BGT      0x800504c ; 0x800504c
        0x08005006:    2100        .!      MOVS     r1,#0
        0x08005008:    e021        !.      B        0x800504e ; 0x800504e
        0x0800500a:    990f        ..      LDR      r1,[sp,#0x3c]
        0x0800500c:    2901        .)      CMP      r1,#1
        0x0800500e:    d047        G.      BEQ      0x80050a0 ; 0x80050a0
        0x08005010:    9909        ..      LDR      r1,[sp,#0x24]
        0x08005012:    1c49        I.      ADDS     r1,r1,#1
        0x08005014:    9e27        '.      LDR      r6,[sp,#0x9c]
        0x08005016:    4371        qC      MULS     r1,r6,r1
        0x08005018:    0089        ..      LSLS     r1,r1,#2
        0x0800501a:    9a12        ..      LDR      r2,[sp,#0x48]
        0x0800501c:    1851        Q.      ADDS     r1,r2,r1
        0x0800501e:    e004        ..      B        0x800502a ; 0x800502a
        0x08005020:    1818        ..      ADDS     r0,r3,r0
        0x08005022:    1e76        v.      SUBS     r6,r6,#1
        0x08005024:    4613        .F      MOV      r3,r2
        0x08005026:    462c        ,F      MOV      r4,r5
        0x08005028:    d036        6.      BEQ      0x8005098 ; 0x8005098
        0x0800502a:    c904        ..      LDM      r1!,{r2}
        0x0800502c:    2500        .%      MOVS     r5,#0
        0x0800502e:    429a        .B      CMP      r2,r3
        0x08005030:    dc01        ..      BGT      0x8005036 ; 0x8005036
        0x08005032:    462b        +F      MOV      r3,r5
        0x08005034:    e000        ..      B        0x8005038 ; 0x8005038
        0x08005036:    2301        .#      MOVS     r3,#1
        0x08005038:    1914        ..      ADDS     r4,r2,r4
        0x0800503a:    9f28        (.      LDR      r7,[sp,#0xa0]
        0x0800503c:    42bc        .B      CMP      r4,r7
        0x0800503e:    dd00        ..      BLE      0x8005042 ; 0x8005042
        0x08005040:    230a        .#      MOVS     r3,#0xa
        0x08005042:    9f28        (.      LDR      r7,[sp,#0xa0]
        0x08005044:    42bc        .B      CMP      r4,r7
        0x08005046:    dceb        ..      BGT      0x8005020 ; 0x8005020
        0x08005048:    4625        %F      MOV      r5,r4
        0x0800504a:    e7e9        ..      B        0x8005020 ; 0x8005020
        0x0800504c:    2101        .!      MOVS     r1,#1
        0x0800504e:    1952        R.      ADDS     r2,r2,r5
        0x08005050:    9b28        (.      LDR      r3,[sp,#0xa0]
        0x08005052:    429a        .B      CMP      r2,r3
        0x08005054:    dd00        ..      BLE      0x8005058 ; 0x8005058
        0x08005056:    210a        .!      MOVS     r1,#0xa
        0x08005058:    1808        ..      ADDS     r0,r1,r0
        0x0800505a:    e023        #.      B        0x80050a4 ; 0x80050a4
        0x0800505c:    990f        ..      LDR      r1,[sp,#0x3c]
        0x0800505e:    2902        .)      CMP      r1,#2
        0x08005060:    d101        ..      BNE      0x8005066 ; 0x8005066
        0x08005062:    f7fffac8    ....    BL       0x80045f6 ; 0x80045f6
        0x08005066:    1c91        ..      ADDS     r1,r2,#2
        0x08005068:    9a27        '.      LDR      r2,[sp,#0x9c]
        0x0800506a:    4351        QC      MULS     r1,r2,r1
        0x0800506c:    0089        ..      LSLS     r1,r1,#2
        0x0800506e:    9a12        ..      LDR      r2,[sp,#0x48]
        0x08005070:    1856        V.      ADDS     r6,r2,r1
        0x08005072:    9913        ..      LDR      r1,[sp,#0x4c]
        0x08005074:    2903        .)      CMP      r1,#3
        0x08005076:    962b        +.      STR      r6,[sp,#0xac]
        0x08005078:    d300        ..      BCC      0x800507c ; 0x800507c
        0x0800507a:    e181        ..      B        0x8005380 ; 0x8005380
        0x0800507c:    2200        ."      MOVS     r2,#0
        0x0800507e:    990f        ..      LDR      r1,[sp,#0x3c]
        0x08005080:    2900        .)      CMP      r1,#0
        0x08005082:    d101        ..      BNE      0x8005088 ; 0x8005088
        0x08005084:    f7fffab7    ....    BL       0x80045f6 ; 0x80045f6
        0x08005088:    0091        ..      LSLS     r1,r2,#2
        0x0800508a:    9e2b        +.      LDR      r6,[sp,#0xac]
        0x0800508c:    5872        rX      LDR      r2,[r6,r1]
        0x0800508e:    4282        .B      CMP      r2,r0
        0x08005090:    dd00        ..      BLE      0x8005094 ; 0x8005094
        0x08005092:    e31c        ..      B        0x80056ce ; 0x80056ce
        0x08005094:    2400        .$      MOVS     r4,#0
        0x08005096:    e31b        ..      B        0x80056d0 ; 0x80056d0
        0x08005098:    990f        ..      LDR      r1,[sp,#0x3c]
        0x0800509a:    2902        .)      CMP      r1,#2
        0x0800509c:    d000        ..      BEQ      0x80050a0 ; 0x80050a0
        0x0800509e:    e13a        :.      B        0x8005316 ; 0x8005316
        0x080050a0:    9e27        '.      LDR      r6,[sp,#0x9c]
        0x080050a2:    9c2c        ,.      LDR      r4,[sp,#0xb0]
        0x080050a4:    b200        ..      SXTH     r0,r0
        0x080050a6:    4621        !F      MOV      r1,r4
        0x080050a8:    f7fbff2c    ..,.    BL       crc16 ; 0x8000f04
        0x080050ac:    9904        ..      LDR      r1,[sp,#0x10]
        0x080050ae:    2900        .)      CMP      r1,#0
        0x080050b0:    d00b        ..      BEQ      0x80050ca ; 0x80050ca
        0x080050b2:    9913        ..      LDR      r1,[sp,#0x4c]
        0x080050b4:    2903        .)      CMP      r1,#3
        0x080050b6:    9f0e        ..      LDR      r7,[sp,#0x38]
        0x080050b8:    d20f        ..      BCS      0x80050da ; 0x80050da
        0x080050ba:    9910        ..      LDR      r1,[sp,#0x40]
        0x080050bc:    2900        .)      CMP      r1,#0
        0x080050be:    d000        ..      BEQ      0x80050c2 ; 0x80050c2
        0x080050c0:    e205        ..      B        0x80054ce ; 0x80054ce
        0x080050c2:    2100        .!      MOVS     r1,#0
        0x080050c4:    9a11        ..      LDR      r2,[sp,#0x44]
        0x080050c6:    460b        .F      MOV      r3,r1
        0x080050c8:    e1c7        ..      B        0x800545a ; 0x800545a
        0x080050ca:    9905        ..      LDR      r1,[sp,#0x14]
        0x080050cc:    2904        .)      CMP      r1,#4
        0x080050ce:    9f0e        ..      LDR      r7,[sp,#0x38]
        0x080050d0:    d300        ..      BCC      0x80050d4 ; 0x80050d4
        0x080050d2:    e0cb        ..      B        0x800526c ; 0x800526c
        0x080050d4:    2100        .!      MOVS     r1,#0
        0x080050d6:    9d03        ..      LDR      r5,[sp,#0xc]
        0x080050d8:    e0de        ..      B        0x8005298 ; 0x8005298
        0x080050da:    9034        4.      STR      r0,[sp,#0xd0]
        0x080050dc:    2200        ."      MOVS     r2,#0
        0x080050de:    4611        .F      MOV      r1,r2
        0x080050e0:    e004        ..      B        0x80050ec ; 0x80050ec
        0x080050e2:    1d09        ..      ADDS     r1,r1,#4
        0x080050e4:    42b1        .B      CMP      r1,r6
        0x080050e6:    9e27        '.      LDR      r6,[sp,#0x9c]
        0x080050e8:    d100        ..      BNE      0x80050ec ; 0x80050ec
        0x080050ea:    e0df        ..      B        0x80052ac ; 0x80052ac
        0x080050ec:    4633        3F      MOV      r3,r6
        0x080050ee:    434b        KC      MULS     r3,r1,r3
        0x080050f0:    005b        [.      LSLS     r3,r3,#1
        0x080050f2:    9c11        ..      LDR      r4,[sp,#0x44]
        0x080050f4:    18e3        ..      ADDS     r3,r4,r3
        0x080050f6:    461d        .F      MOV      r5,r3
        0x080050f8:    4614        .F      MOV      r4,r2
        0x080050fa:    9822        ".      LDR      r0,[sp,#0x88]
        0x080050fc:    882e        ..      LDRH     r6,[r5,#0]
        0x080050fe:    1bf6        ..      SUBS     r6,r6,r7
        0x08005100:    802e        ..      STRH     r6,[r5,#0]
        0x08005102:    886e        n.      LDRH     r6,[r5,#2]
        0x08005104:    1bf6        ..      SUBS     r6,r6,r7
        0x08005106:    806e        n.      STRH     r6,[r5,#2]
        0x08005108:    88ae        ..      LDRH     r6,[r5,#4]
        0x0800510a:    1bf6        ..      SUBS     r6,r6,r7
        0x0800510c:    80ae        ..      STRH     r6,[r5,#4]
        0x0800510e:    88ee        ..      LDRH     r6,[r5,#6]
        0x08005110:    1bf6        ..      SUBS     r6,r6,r7
        0x08005112:    80ee        ..      STRH     r6,[r5,#6]
        0x08005114:    3508        .5      ADDS     r5,r5,#8
        0x08005116:    1d24        $.      ADDS     r4,r4,#4
        0x08005118:    42a0        .B      CMP      r0,r4
        0x0800511a:    d1ef        ..      BNE      0x80050fc ; 0x80050fc
        0x0800511c:    9d10        ..      LDR      r5,[sp,#0x40]
        0x0800511e:    2d00        .-      CMP      r5,#0
        0x08005120:    d110        ..      BNE      0x8005144 ; 0x8005144
        0x08005122:    0064        d.      LSLS     r4,r4,#1
        0x08005124:    5b1d        .[      LDRH     r5,[r3,r4]
        0x08005126:    1bed        ..      SUBS     r5,r5,r7
        0x08005128:    531d        .S      STRH     r5,[r3,r4]
        0x0800512a:    9d0f        ..      LDR      r5,[sp,#0x3c]
        0x0800512c:    2d01        .-      CMP      r5,#1
        0x0800512e:    d009        ..      BEQ      0x8005144 ; 0x8005144
        0x08005130:    191b        ..      ADDS     r3,r3,r4
        0x08005132:    885c        \.      LDRH     r4,[r3,#2]
        0x08005134:    1be4        ..      SUBS     r4,r4,r7
        0x08005136:    805c        \.      STRH     r4,[r3,#2]
        0x08005138:    9c0f        ..      LDR      r4,[sp,#0x3c]
        0x0800513a:    2c02        .,      CMP      r4,#2
        0x0800513c:    d002        ..      BEQ      0x8005144 ; 0x8005144
        0x0800513e:    889c        ..      LDRH     r4,[r3,#4]
        0x08005140:    1be4        ..      SUBS     r4,r4,r7
        0x08005142:    809c        ..      STRH     r4,[r3,#4]
        0x08005144:    2301        .#      MOVS     r3,#1
        0x08005146:    430b        .C      ORRS     r3,r3,r1
        0x08005148:    9c27        '.      LDR      r4,[sp,#0x9c]
        0x0800514a:    4363        cC      MULS     r3,r4,r3
        0x0800514c:    005b        [.      LSLS     r3,r3,#1
        0x0800514e:    9c11        ..      LDR      r4,[sp,#0x44]
        0x08005150:    18e3        ..      ADDS     r3,r4,r3
        0x08005152:    2400        .$      MOVS     r4,#0
        0x08005154:    461d        .F      MOV      r5,r3
        0x08005156:    882e        ..      LDRH     r6,[r5,#0]
        0x08005158:    1bf6        ..      SUBS     r6,r6,r7
        0x0800515a:    802e        ..      STRH     r6,[r5,#0]
        0x0800515c:    886e        n.      LDRH     r6,[r5,#2]
        0x0800515e:    1bf6        ..      SUBS     r6,r6,r7
        0x08005160:    806e        n.      STRH     r6,[r5,#2]
        0x08005162:    88ae        ..      LDRH     r6,[r5,#4]
        0x08005164:    1bf6        ..      SUBS     r6,r6,r7
        0x08005166:    80ae        ..      STRH     r6,[r5,#4]
        0x08005168:    88ee        ..      LDRH     r6,[r5,#6]
        0x0800516a:    1bf6        ..      SUBS     r6,r6,r7
        0x0800516c:    80ee        ..      STRH     r6,[r5,#6]
        0x0800516e:    3508        .5      ADDS     r5,r5,#8
        0x08005170:    1d24        $.      ADDS     r4,r4,#4
        0x08005172:    9822        ".      LDR      r0,[sp,#0x88]
        0x08005174:    42a0        .B      CMP      r0,r4
        0x08005176:    d1ee        ..      BNE      0x8005156 ; 0x8005156
        0x08005178:    9d10        ..      LDR      r5,[sp,#0x40]
        0x0800517a:    2d00        .-      CMP      r5,#0
        0x0800517c:    d110        ..      BNE      0x80051a0 ; 0x80051a0
        0x0800517e:    0064        d.      LSLS     r4,r4,#1
        0x08005180:    5b1d        .[      LDRH     r5,[r3,r4]
        0x08005182:    1bed        ..      SUBS     r5,r5,r7
        0x08005184:    531d        .S      STRH     r5,[r3,r4]
        0x08005186:    9d0f        ..      LDR      r5,[sp,#0x3c]
        0x08005188:    2d01        .-      CMP      r5,#1
        0x0800518a:    d009        ..      BEQ      0x80051a0 ; 0x80051a0
        0x0800518c:    191b        ..      ADDS     r3,r3,r4
        0x0800518e:    885c        \.      LDRH     r4,[r3,#2]
        0x08005190:    1be4        ..      SUBS     r4,r4,r7
        0x08005192:    805c        \.      STRH     r4,[r3,#2]
        0x08005194:    9c0f        ..      LDR      r4,[sp,#0x3c]
        0x08005196:    2c02        .,      CMP      r4,#2
        0x08005198:    d002        ..      BEQ      0x80051a0 ; 0x80051a0
        0x0800519a:    889c        ..      LDRH     r4,[r3,#4]
        0x0800519c:    1be4        ..      SUBS     r4,r4,r7
        0x0800519e:    809c        ..      STRH     r4,[r3,#4]
        0x080051a0:    2302        .#      MOVS     r3,#2
        0x080051a2:    430b        .C      ORRS     r3,r3,r1
        0x080051a4:    9c27        '.      LDR      r4,[sp,#0x9c]
        0x080051a6:    4363        cC      MULS     r3,r4,r3
        0x080051a8:    005b        [.      LSLS     r3,r3,#1
        0x080051aa:    9c11        ..      LDR      r4,[sp,#0x44]
        0x080051ac:    18e3        ..      ADDS     r3,r4,r3
        0x080051ae:    2400        .$      MOVS     r4,#0
        0x080051b0:    461d        .F      MOV      r5,r3
        0x080051b2:    882e        ..      LDRH     r6,[r5,#0]
        0x080051b4:    1bf6        ..      SUBS     r6,r6,r7
        0x080051b6:    802e        ..      STRH     r6,[r5,#0]
        0x080051b8:    886e        n.      LDRH     r6,[r5,#2]
        0x080051ba:    1bf6        ..      SUBS     r6,r6,r7
        0x080051bc:    806e        n.      STRH     r6,[r5,#2]
        0x080051be:    88ae        ..      LDRH     r6,[r5,#4]
        0x080051c0:    1bf6        ..      SUBS     r6,r6,r7
        0x080051c2:    80ae        ..      STRH     r6,[r5,#4]
        0x080051c4:    88ee        ..      LDRH     r6,[r5,#6]
        0x080051c6:    1bf6        ..      SUBS     r6,r6,r7
        0x080051c8:    80ee        ..      STRH     r6,[r5,#6]
        0x080051ca:    3508        .5      ADDS     r5,r5,#8
        0x080051cc:    1d24        $.      ADDS     r4,r4,#4
        0x080051ce:    9822        ".      LDR      r0,[sp,#0x88]
        0x080051d0:    42a0        .B      CMP      r0,r4
        0x080051d2:    d1ee        ..      BNE      0x80051b2 ; 0x80051b2
        0x080051d4:    9d10        ..      LDR      r5,[sp,#0x40]
        0x080051d6:    2d00        .-      CMP      r5,#0
        0x080051d8:    d110        ..      BNE      0x80051fc ; 0x80051fc
        0x080051da:    0064        d.      LSLS     r4,r4,#1
        0x080051dc:    5b1d        .[      LDRH     r5,[r3,r4]
        0x080051de:    1bed        ..      SUBS     r5,r5,r7
        0x080051e0:    531d        .S      STRH     r5,[r3,r4]
        0x080051e2:    9d0f        ..      LDR      r5,[sp,#0x3c]
        0x080051e4:    2d01        .-      CMP      r5,#1
        0x080051e6:    d009        ..      BEQ      0x80051fc ; 0x80051fc
        0x080051e8:    191b        ..      ADDS     r3,r3,r4
        0x080051ea:    885c        \.      LDRH     r4,[r3,#2]
        0x080051ec:    1be4        ..      SUBS     r4,r4,r7
        0x080051ee:    805c        \.      STRH     r4,[r3,#2]
        0x080051f0:    9c0f        ..      LDR      r4,[sp,#0x3c]
        0x080051f2:    2c02        .,      CMP      r4,#2
        0x080051f4:    d002        ..      BEQ      0x80051fc ; 0x80051fc
        0x080051f6:    889c        ..      LDRH     r4,[r3,#4]
        0x080051f8:    1be4        ..      SUBS     r4,r4,r7
        0x080051fa:    809c        ..      STRH     r4,[r3,#4]
        0x080051fc:    460b        .F      MOV      r3,r1
        0x080051fe:    9c1c        ..      LDR      r4,[sp,#0x70]
        0x08005200:    4323        #C      ORRS     r3,r3,r4
        0x08005202:    9c27        '.      LDR      r4,[sp,#0x9c]
        0x08005204:    4363        cC      MULS     r3,r4,r3
        0x08005206:    005b        [.      LSLS     r3,r3,#1
        0x08005208:    9c11        ..      LDR      r4,[sp,#0x44]
        0x0800520a:    18e3        ..      ADDS     r3,r4,r3
        0x0800520c:    2400        .$      MOVS     r4,#0
        0x0800520e:    461d        .F      MOV      r5,r3
        0x08005210:    882e        ..      LDRH     r6,[r5,#0]
        0x08005212:    1bf6        ..      SUBS     r6,r6,r7
        0x08005214:    802e        ..      STRH     r6,[r5,#0]
        0x08005216:    886e        n.      LDRH     r6,[r5,#2]
        0x08005218:    1bf6        ..      SUBS     r6,r6,r7
        0x0800521a:    806e        n.      STRH     r6,[r5,#2]
        0x0800521c:    88ae        ..      LDRH     r6,[r5,#4]
        0x0800521e:    1bf6        ..      SUBS     r6,r6,r7
        0x08005220:    80ae        ..      STRH     r6,[r5,#4]
        0x08005222:    88ee        ..      LDRH     r6,[r5,#6]
        0x08005224:    1bf6        ..      SUBS     r6,r6,r7
        0x08005226:    80ee        ..      STRH     r6,[r5,#6]
        0x08005228:    9e22        ".      LDR      r6,[sp,#0x88]
        0x0800522a:    3508        .5      ADDS     r5,r5,#8
        0x0800522c:    1d24        $.      ADDS     r4,r4,#4
        0x0800522e:    42a6        .B      CMP      r6,r4
        0x08005230:    d1ee        ..      BNE      0x8005210 ; 0x8005210
        0x08005232:    9d10        ..      LDR      r5,[sp,#0x40]
        0x08005234:    2d00        .-      CMP      r5,#0
        0x08005236:    d005        ..      BEQ      0x8005244 ; 0x8005244
        0x08005238:    1d09        ..      ADDS     r1,r1,#4
        0x0800523a:    42b1        .B      CMP      r1,r6
        0x0800523c:    9e27        '.      LDR      r6,[sp,#0x9c]
        0x0800523e:    d000        ..      BEQ      0x8005242 ; 0x8005242
        0x08005240:    e754        T.      B        0x80050ec ; 0x80050ec
        0x08005242:    e143        C.      B        0x80054cc ; 0x80054cc
        0x08005244:    0064        d.      LSLS     r4,r4,#1
        0x08005246:    5b1d        .[      LDRH     r5,[r3,r4]
        0x08005248:    1bed        ..      SUBS     r5,r5,r7
        0x0800524a:    531d        .S      STRH     r5,[r3,r4]
        0x0800524c:    9d0f        ..      LDR      r5,[sp,#0x3c]
        0x0800524e:    2d01        .-      CMP      r5,#1
        0x08005250:    d100        ..      BNE      0x8005254 ; 0x8005254
        0x08005252:    e746        F.      B        0x80050e2 ; 0x80050e2
        0x08005254:    191b        ..      ADDS     r3,r3,r4
        0x08005256:    885c        \.      LDRH     r4,[r3,#2]
        0x08005258:    1be4        ..      SUBS     r4,r4,r7
        0x0800525a:    805c        \.      STRH     r4,[r3,#2]
        0x0800525c:    9c0f        ..      LDR      r4,[sp,#0x3c]
        0x0800525e:    2c02        .,      CMP      r4,#2
        0x08005260:    d100        ..      BNE      0x8005264 ; 0x8005264
        0x08005262:    e73e        >.      B        0x80050e2 ; 0x80050e2
        0x08005264:    889c        ..      LDRH     r4,[r3,#4]
        0x08005266:    1be4        ..      SUBS     r4,r4,r7
        0x08005268:    809c        ..      STRH     r4,[r3,#4]
        0x0800526a:    e73a        :.      B        0x80050e2 ; 0x80050e2
        0x0800526c:    9c02        ..      LDR      r4,[sp,#8]
        0x0800526e:    991c        ..      LDR      r1,[sp,#0x70]
        0x08005270:    438c        .C      BICS     r4,r4,r1
        0x08005272:    2100        .!      MOVS     r1,#0
        0x08005274:    9a11        ..      LDR      r2,[sp,#0x44]
        0x08005276:    9d03        ..      LDR      r5,[sp,#0xc]
        0x08005278:    8813        ..      LDRH     r3,[r2,#0]
        0x0800527a:    1bdb        ..      SUBS     r3,r3,r7
        0x0800527c:    8013        ..      STRH     r3,[r2,#0]
        0x0800527e:    8853        S.      LDRH     r3,[r2,#2]
        0x08005280:    1bdb        ..      SUBS     r3,r3,r7
        0x08005282:    8053        S.      STRH     r3,[r2,#2]
        0x08005284:    8893        ..      LDRH     r3,[r2,#4]
        0x08005286:    1bdb        ..      SUBS     r3,r3,r7
        0x08005288:    8093        ..      STRH     r3,[r2,#4]
        0x0800528a:    88d3        ..      LDRH     r3,[r2,#6]
        0x0800528c:    1bdb        ..      SUBS     r3,r3,r7
        0x0800528e:    80d3        ..      STRH     r3,[r2,#6]
        0x08005290:    3208        .2      ADDS     r2,r2,#8
        0x08005292:    1d09        ..      ADDS     r1,r1,#4
        0x08005294:    428c        .B      CMP      r4,r1
        0x08005296:    d1ef        ..      BNE      0x8005278 ; 0x8005278
        0x08005298:    2d00        .-      CMP      r5,#0
        0x0800529a:    d100        ..      BNE      0x800529e ; 0x800529e
        0x0800529c:    e117        ..      B        0x80054ce ; 0x80054ce
        0x0800529e:    0049        I.      LSLS     r1,r1,#1
        0x080052a0:    9a11        ..      LDR      r2,[sp,#0x44]
        0x080052a2:    1851        Q.      ADDS     r1,r2,r1
        0x080052a4:    880a        ..      LDRH     r2,[r1,#0]
        0x080052a6:    1bd2        ..      SUBS     r2,r2,r7
        0x080052a8:    800a        ..      STRH     r2,[r1,#0]
        0x080052aa:    e110        ..      B        0x80054ce ; 0x80054ce
        0x080052ac:    9a10        ..      LDR      r2,[sp,#0x40]
        0x080052ae:    2a00        .*      CMP      r2,#0
        0x080052b0:    d000        ..      BEQ      0x80052b4 ; 0x80052b4
        0x080052b2:    e10b        ..      B        0x80054cc ; 0x80054cc
        0x080052b4:    4632        2F      MOV      r2,r6
        0x080052b6:    434a        JC      MULS     r2,r1,r2
        0x080052b8:    0052        R.      LSLS     r2,r2,#1
        0x080052ba:    9b11        ..      LDR      r3,[sp,#0x44]
        0x080052bc:    189a        ..      ADDS     r2,r3,r2
        0x080052be:    9b13        ..      LDR      r3,[sp,#0x4c]
        0x080052c0:    2b03        .+      CMP      r3,#3
        0x080052c2:    d300        ..      BCC      0x80052c6 ; 0x80052c6
        0x080052c4:    e0b5        ..      B        0x8005432 ; 0x8005432
        0x080052c6:    2300        .#      MOVS     r3,#0
        0x080052c8:    e0c6        ..      B        0x8005458 ; 0x8005458
        0x080052ca:    2101        .!      MOVS     r1,#1
        0x080052cc:    9833        3.      LDR      r0,[sp,#0xcc]
        0x080052ce:    4308        .C      ORRS     r0,r0,r1
        0x080052d0:    4370        pC      MULS     r0,r6,r0
        0x080052d2:    0080        ..      LSLS     r0,r0,#2
        0x080052d4:    9a12        ..      LDR      r2,[sp,#0x48]
        0x080052d6:    1812        ..      ADDS     r2,r2,r0
        0x080052d8:    e006        ..      B        0x80052e8 ; 0x80052e8
        0x080052da:    9d26        &.      LDR      r5,[sp,#0x98]
        0x080052dc:    195d        ].      ADDS     r5,r3,r5
        0x080052de:    9526        &.      STR      r5,[sp,#0x98]
        0x080052e0:    1e76        v.      SUBS     r6,r6,#1
        0x080052e2:    4603        .F      MOV      r3,r0
        0x080052e4:    4625        %F      MOV      r5,r4
        0x080052e6:    d00f        ..      BEQ      0x8005308 ; 0x8005308
        0x080052e8:    ca01        ..      LDM      r2!,{r0}
        0x080052ea:    2400        .$      MOVS     r4,#0
        0x080052ec:    4298        .B      CMP      r0,r3
        0x080052ee:    460b        .F      MOV      r3,r1
        0x080052f0:    dc00        ..      BGT      0x80052f4 ; 0x80052f4
        0x080052f2:    4623        #F      MOV      r3,r4
        0x080052f4:    1945        E.      ADDS     r5,r0,r5
        0x080052f6:    9f28        (.      LDR      r7,[sp,#0xa0]
        0x080052f8:    42bd        .B      CMP      r5,r7
        0x080052fa:    dd00        ..      BLE      0x80052fe ; 0x80052fe
        0x080052fc:    230a        .#      MOVS     r3,#0xa
        0x080052fe:    9f28        (.      LDR      r7,[sp,#0xa0]
        0x08005300:    42bd        .B      CMP      r5,r7
        0x08005302:    dcea        ..      BGT      0x80052da ; 0x80052da
        0x08005304:    462c        ,F      MOV      r4,r5
        0x08005306:    e7e8        ..      B        0x80052da ; 0x80052da
        0x08005308:    990f        ..      LDR      r1,[sp,#0x3c]
        0x0800530a:    2902        .)      CMP      r1,#2
        0x0800530c:    d11d        ..      BNE      0x800534a ; 0x800534a
        0x0800530e:    9e27        '.      LDR      r6,[sp,#0x9c]
        0x08005310:    991c        ..      LDR      r1,[sp,#0x70]
        0x08005312:    f7fefcce    ....    BL       0x8003cb2 ; 0x8003cb2
        0x08005316:    9909        ..      LDR      r1,[sp,#0x24]
        0x08005318:    1c89        ..      ADDS     r1,r1,#2
        0x0800531a:    9e27        '.      LDR      r6,[sp,#0x9c]
        0x0800531c:    4371        qC      MULS     r1,r6,r1
        0x0800531e:    0089        ..      LSLS     r1,r1,#2
        0x08005320:    9b12        ..      LDR      r3,[sp,#0x48]
        0x08005322:    185f        _.      ADDS     r7,r3,r1
        0x08005324:    9913        ..      LDR      r1,[sp,#0x4c]
        0x08005326:    2903        .)      CMP      r1,#3
        0x08005328:    972b        +.      STR      r7,[sp,#0xac]
        0x0800532a:    d300        ..      BCC      0x800532e ; 0x800532e
        0x0800532c:    e0e0        ..      B        0x80054f0 ; 0x80054f0
        0x0800532e:    2300        .#      MOVS     r3,#0
        0x08005330:    990f        ..      LDR      r1,[sp,#0x3c]
        0x08005332:    2900        .)      CMP      r1,#0
        0x08005334:    9c2c        ,.      LDR      r4,[sp,#0xb0]
        0x08005336:    d100        ..      BNE      0x800533a ; 0x800533a
        0x08005338:    e6b4        ..      B        0x80050a4 ; 0x80050a4
        0x0800533a:    0099        ..      LSLS     r1,r3,#2
        0x0800533c:    9f2b        +.      LDR      r7,[sp,#0xac]
        0x0800533e:    587b        {X      LDR      r3,[r7,r1]
        0x08005340:    4293        .B      CMP      r3,r2
        0x08005342:    dd00        ..      BLE      0x8005346 ; 0x8005346
        0x08005344:    e1d1        ..      B        0x80056ea ; 0x80056ea
        0x08005346:    2400        .$      MOVS     r4,#0
        0x08005348:    e1d0        ..      B        0x80056ec ; 0x80056ec
        0x0800534a:    9913        ..      LDR      r1,[sp,#0x4c]
        0x0800534c:    2903        .)      CMP      r1,#3
        0x0800534e:    9e27        '.      LDR      r6,[sp,#0x9c]
        0x08005350:    d300        ..      BCC      0x8005354 ; 0x8005354
        0x08005352:    e12b        +.      B        0x80055ac ; 0x80055ac
        0x08005354:    2300        .#      MOVS     r3,#0
        0x08005356:    9926        &.      LDR      r1,[sp,#0x98]
        0x08005358:    9126        &.      STR      r1,[sp,#0x98]
        0x0800535a:    990f        ..      LDR      r1,[sp,#0x3c]
        0x0800535c:    2900        .)      CMP      r1,#0
        0x0800535e:    d101        ..      BNE      0x8005364 ; 0x8005364
        0x08005360:    f7fefc9b    ....    BL       0x8003c9a ; 0x8003c9a
        0x08005364:    2102        .!      MOVS     r1,#2
        0x08005366:    9a33        3.      LDR      r2,[sp,#0xcc]
        0x08005368:    430a        .C      ORRS     r2,r2,r1
        0x0800536a:    4372        rC      MULS     r2,r6,r2
        0x0800536c:    0091        ..      LSLS     r1,r2,#2
        0x0800536e:    9a12        ..      LDR      r2,[sp,#0x48]
        0x08005370:    1851        Q.      ADDS     r1,r2,r1
        0x08005372:    009b        ..      LSLS     r3,r3,#2
        0x08005374:    58ca        .X      LDR      r2,[r1,r3]
        0x08005376:    4282        .B      CMP      r2,r0
        0x08005378:    dd00        ..      BLE      0x800537c ; 0x800537c
        0x0800537a:    e1d7        ..      B        0x800572c ; 0x800572c
        0x0800537c:    2500        .%      MOVS     r5,#0
        0x0800537e:    e1d6        ..      B        0x800572e ; 0x800572e
        0x08005380:    2500        .%      MOVS     r5,#0
        0x08005382:    462a        *F      MOV      r2,r5
        0x08005384:    952c        ,.      STR      r5,[sp,#0xb0]
        0x08005386:    e00d        ..      B        0x80053a4 ; 0x80053a4
        0x08005388:    9a31        1.      LDR      r2,[sp,#0xc4]
        0x0800538a:    1889        ..      ADDS     r1,r1,r2
        0x0800538c:    1861        a.      ADDS     r1,r4,r1
        0x0800538e:    9a2f        /.      LDR      r2,[sp,#0xbc]
        0x08005390:    1851        Q.      ADDS     r1,r2,r1
        0x08005392:    1879        y.      ADDS     r1,r7,r1
        0x08005394:    9131        1.      STR      r1,[sp,#0xc4]
        0x08005396:    3610        .6      ADDS     r6,r6,#0x10
        0x08005398:    9a32        2.      LDR      r2,[sp,#0xc8]
        0x0800539a:    1d12        ..      ADDS     r2,r2,#4
        0x0800539c:    9922        ".      LDR      r1,[sp,#0x88]
        0x0800539e:    4291        .B      CMP      r1,r2
        0x080053a0:    d100        ..      BNE      0x80053a4 ; 0x80053a4
        0x080053a2:    e66c        l.      B        0x800507e ; 0x800507e
        0x080053a4:    9232        2.      STR      r2,[sp,#0xc8]
        0x080053a6:    6874        th      LDR      r4,[r6,#4]
        0x080053a8:    68b7        .h      LDR      r7,[r6,#8]
        0x080053aa:    2101        .!      MOVS     r1,#1
        0x080053ac:    42a7        .B      CMP      r7,r4
        0x080053ae:    9133        3.      STR      r1,[sp,#0xcc]
        0x080053b0:    dc00        ..      BGT      0x80053b4 ; 0x80053b4
        0x080053b2:    4629        )F      MOV      r1,r5
        0x080053b4:    912f        /.      STR      r1,[sp,#0xbc]
        0x080053b6:    6832        2h      LDR      r2,[r6,#0]
        0x080053b8:    18d3        ..      ADDS     r3,r2,r3
        0x080053ba:    9928        (.      LDR      r1,[sp,#0xa0]
        0x080053bc:    428b        .B      CMP      r3,r1
        0x080053be:    4621        !F      MOV      r1,r4
        0x080053c0:    dc00        ..      BGT      0x80053c4 ; 0x80053c4
        0x080053c2:    18e1        ..      ADDS     r1,r4,r3
        0x080053c4:    932e        ..      STR      r3,[sp,#0xb8]
        0x080053c6:    9b28        (.      LDR      r3,[sp,#0xa0]
        0x080053c8:    4299        .B      CMP      r1,r3
        0x080053ca:    463b        ;F      MOV      r3,r7
        0x080053cc:    dc00        ..      BGT      0x80053d0 ; 0x80053d0
        0x080053ce:    187b        {.      ADDS     r3,r7,r1
        0x080053d0:    9730        0.      STR      r7,[sp,#0xc0]
        0x080053d2:    270a        .'      MOVS     r7,#0xa
        0x080053d4:    9d28        (.      LDR      r5,[sp,#0xa0]
        0x080053d6:    42ab        .B      CMP      r3,r5
        0x080053d8:    463d        =F      MOV      r5,r7
        0x080053da:    dc00        ..      BGT      0x80053de ; 0x80053de
        0x080053dc:    9d2f        /.      LDR      r5,[sp,#0xbc]
        0x080053de:    952f        /.      STR      r5,[sp,#0xbc]
        0x080053e0:    4294        .B      CMP      r4,r2
        0x080053e2:    9c33        3.      LDR      r4,[sp,#0xcc]
        0x080053e4:    dc00        ..      BGT      0x80053e8 ; 0x80053e8
        0x080053e6:    9c2c        ,.      LDR      r4,[sp,#0xb0]
        0x080053e8:    9d28        (.      LDR      r5,[sp,#0xa0]
        0x080053ea:    42a9        .B      CMP      r1,r5
        0x080053ec:    4639        9F      MOV      r1,r7
        0x080053ee:    dc00        ..      BGT      0x80053f2 ; 0x80053f2
        0x080053f0:    4621        !F      MOV      r1,r4
        0x080053f2:    460c        .F      MOV      r4,r1
        0x080053f4:    4282        .B      CMP      r2,r0
        0x080053f6:    9833        3.      LDR      r0,[sp,#0xcc]
        0x080053f8:    9d2c        ,.      LDR      r5,[sp,#0xb0]
        0x080053fa:    dc00        ..      BGT      0x80053fe ; 0x80053fe
        0x080053fc:    4628        (F      MOV      r0,r5
        0x080053fe:    9928        (.      LDR      r1,[sp,#0xa0]
        0x08005400:    9a2e        ..      LDR      r2,[sp,#0xb8]
        0x08005402:    428a        .B      CMP      r2,r1
        0x08005404:    4639        9F      MOV      r1,r7
        0x08005406:    dc00        ..      BGT      0x800540a ; 0x800540a
        0x08005408:    4601        .F      MOV      r1,r0
        0x0800540a:    68f0        .h      LDR      r0,[r6,#0xc]
        0x0800540c:    9a28        (.      LDR      r2,[sp,#0xa0]
        0x0800540e:    4293        .B      CMP      r3,r2
        0x08005410:    4602        .F      MOV      r2,r0
        0x08005412:    dc00        ..      BGT      0x8005416 ; 0x8005416
        0x08005414:    18c2        ..      ADDS     r2,r0,r3
        0x08005416:    9b30        0.      LDR      r3,[sp,#0xc0]
        0x08005418:    4298        .B      CMP      r0,r3
        0x0800541a:    dc00        ..      BGT      0x800541e ; 0x800541e
        0x0800541c:    9533        3.      STR      r5,[sp,#0xcc]
        0x0800541e:    9b28        (.      LDR      r3,[sp,#0xa0]
        0x08005420:    429a        .B      CMP      r2,r3
        0x08005422:    dc00        ..      BGT      0x8005426 ; 0x8005426
        0x08005424:    9f33        3.      LDR      r7,[sp,#0xcc]
        0x08005426:    9b28        (.      LDR      r3,[sp,#0xa0]
        0x08005428:    429a        .B      CMP      r2,r3
        0x0800542a:    462b        +F      MOV      r3,r5
        0x0800542c:    dcac        ..      BGT      0x8005388 ; 0x8005388
        0x0800542e:    4613        .F      MOV      r3,r2
        0x08005430:    e7aa        ..      B        0x8005388 ; 0x8005388
        0x08005432:    2300        .#      MOVS     r3,#0
        0x08005434:    4614        .F      MOV      r4,r2
        0x08005436:    9822        ".      LDR      r0,[sp,#0x88]
        0x08005438:    8825        %.      LDRH     r5,[r4,#0]
        0x0800543a:    1bed        ..      SUBS     r5,r5,r7
        0x0800543c:    8025        %.      STRH     r5,[r4,#0]
        0x0800543e:    8865        e.      LDRH     r5,[r4,#2]
        0x08005440:    1bed        ..      SUBS     r5,r5,r7
        0x08005442:    8065        e.      STRH     r5,[r4,#2]
        0x08005444:    88a5        ..      LDRH     r5,[r4,#4]
        0x08005446:    1bed        ..      SUBS     r5,r5,r7
        0x08005448:    80a5        ..      STRH     r5,[r4,#4]
        0x0800544a:    88e5        ..      LDRH     r5,[r4,#6]
        0x0800544c:    1bed        ..      SUBS     r5,r5,r7
        0x0800544e:    80e5        ..      STRH     r5,[r4,#6]
        0x08005450:    3408        .4      ADDS     r4,r4,#8
        0x08005452:    1d1b        ..      ADDS     r3,r3,#4
        0x08005454:    4298        .B      CMP      r0,r3
        0x08005456:    d1ef        ..      BNE      0x8005438 ; 0x8005438
        0x08005458:    9834        4.      LDR      r0,[sp,#0xd0]
        0x0800545a:    005b        [.      LSLS     r3,r3,#1
        0x0800545c:    5ad4        .Z      LDRH     r4,[r2,r3]
        0x0800545e:    1be4        ..      SUBS     r4,r4,r7
        0x08005460:    52d4        .R      STRH     r4,[r2,r3]
        0x08005462:    9c0f        ..      LDR      r4,[sp,#0x3c]
        0x08005464:    2c01        .,      CMP      r4,#1
        0x08005466:    d032        2.      BEQ      0x80054ce ; 0x80054ce
        0x08005468:    18d2        ..      ADDS     r2,r2,r3
        0x0800546a:    8853        S.      LDRH     r3,[r2,#2]
        0x0800546c:    1bdb        ..      SUBS     r3,r3,r7
        0x0800546e:    8053        S.      STRH     r3,[r2,#2]
        0x08005470:    2c02        .,      CMP      r4,#2
        0x08005472:    d002        ..      BEQ      0x800547a ; 0x800547a
        0x08005474:    8893        ..      LDRH     r3,[r2,#4]
        0x08005476:    1bdb        ..      SUBS     r3,r3,r7
        0x08005478:    8093        ..      STRH     r3,[r2,#4]
        0x0800547a:    9034        4.      STR      r0,[sp,#0xd0]
        0x0800547c:    1c4a        J.      ADDS     r2,r1,#1
        0x0800547e:    4372        rC      MULS     r2,r6,r2
        0x08005480:    0052        R.      LSLS     r2,r2,#1
        0x08005482:    9b11        ..      LDR      r3,[sp,#0x44]
        0x08005484:    1898        ..      ADDS     r0,r3,r2
        0x08005486:    9b13        ..      LDR      r3,[sp,#0x4c]
        0x08005488:    2b03        .+      CMP      r3,#3
        0x0800548a:    d201        ..      BCS      0x8005490 ; 0x8005490
        0x0800548c:    2300        .#      MOVS     r3,#0
        0x0800548e:    e012        ..      B        0x80054b6 ; 0x80054b6
        0x08005490:    2300        .#      MOVS     r3,#0
        0x08005492:    4604        .F      MOV      r4,r0
        0x08005494:    9a22        ".      LDR      r2,[sp,#0x88]
        0x08005496:    8825        %.      LDRH     r5,[r4,#0]
        0x08005498:    1bed        ..      SUBS     r5,r5,r7
        0x0800549a:    8025        %.      STRH     r5,[r4,#0]
        0x0800549c:    8865        e.      LDRH     r5,[r4,#2]
        0x0800549e:    1bed        ..      SUBS     r5,r5,r7
        0x080054a0:    8065        e.      STRH     r5,[r4,#2]
        0x080054a2:    88a5        ..      LDRH     r5,[r4,#4]
        0x080054a4:    1bed        ..      SUBS     r5,r5,r7
        0x080054a6:    80a5        ..      STRH     r5,[r4,#4]
        0x080054a8:    88e5        ..      LDRH     r5,[r4,#6]
        0x080054aa:    1bed        ..      SUBS     r5,r5,r7
        0x080054ac:    80e5        ..      STRH     r5,[r4,#6]
        0x080054ae:    3408        .4      ADDS     r4,r4,#8
        0x080054b0:    1d1b        ..      ADDS     r3,r3,#4
        0x080054b2:    429a        .B      CMP      r2,r3
        0x080054b4:    d1ef        ..      BNE      0x8005496 ; 0x8005496
        0x080054b6:    005b        [.      LSLS     r3,r3,#1
        0x080054b8:    5ac4        .Z      LDRH     r4,[r0,r3]
        0x080054ba:    1be4        ..      SUBS     r4,r4,r7
        0x080054bc:    52c4        .R      STRH     r4,[r0,r3]
        0x080054be:    18c2        ..      ADDS     r2,r0,r3
        0x080054c0:    8853        S.      LDRH     r3,[r2,#2]
        0x080054c2:    1bdb        ..      SUBS     r3,r3,r7
        0x080054c4:    8053        S.      STRH     r3,[r2,#2]
        0x080054c6:    9b0f        ..      LDR      r3,[sp,#0x3c]
        0x080054c8:    2b02        .+      CMP      r3,#2
        0x080054ca:    d103        ..      BNE      0x80054d4 ; 0x80054d4
        0x080054cc:    9834        4.      LDR      r0,[sp,#0xd0]
        0x080054ce:    b200        ..      SXTH     r0,r0
        0x080054d0:    b035        5.      ADD      sp,sp,#0xd4
        0x080054d2:    bdf0        ..      POP      {r4-r7,pc}
        0x080054d4:    8893        ..      LDRH     r3,[r2,#4]
        0x080054d6:    1bdb        ..      SUBS     r3,r3,r7
        0x080054d8:    8093        ..      STRH     r3,[r2,#4]
        0x080054da:    1c89        ..      ADDS     r1,r1,#2
        0x080054dc:    434e        NC      MULS     r6,r1,r6
        0x080054de:    0071        q.      LSLS     r1,r6,#1
        0x080054e0:    9a11        ..      LDR      r2,[sp,#0x44]
        0x080054e2:    1851        Q.      ADDS     r1,r2,r1
        0x080054e4:    9a13        ..      LDR      r2,[sp,#0x4c]
        0x080054e6:    2a03        .*      CMP      r2,#3
        0x080054e8:    d300        ..      BCC      0x80054ec ; 0x80054ec
        0x080054ea:    e0d2        ..      B        0x8005692 ; 0x8005692
        0x080054ec:    2200        ."      MOVS     r2,#0
        0x080054ee:    e0e3        ..      B        0x80056b8 ; 0x80056b8
        0x080054f0:    2300        .#      MOVS     r3,#0
        0x080054f2:    9332        2.      STR      r3,[sp,#0xc8]
        0x080054f4:    e00c        ..      B        0x8005510 ; 0x8005510
        0x080054f6:    1818        ..      ADDS     r0,r3,r0
        0x080054f8:    9b2f        /.      LDR      r3,[sp,#0xbc]
        0x080054fa:    1818        ..      ADDS     r0,r3,r0
        0x080054fc:    9b30        0.      LDR      r3,[sp,#0xc0]
        0x080054fe:    1818        ..      ADDS     r0,r3,r0
        0x08005500:    1808        ..      ADDS     r0,r1,r0
        0x08005502:    3710        .7      ADDS     r7,r7,#0x10
        0x08005504:    9b31        1.      LDR      r3,[sp,#0xc4]
        0x08005506:    1d1b        ..      ADDS     r3,r3,#4
        0x08005508:    9922        ".      LDR      r1,[sp,#0x88]
        0x0800550a:    4299        .B      CMP      r1,r3
        0x0800550c:    d100        ..      BNE      0x8005510 ; 0x8005510
        0x0800550e:    e70f        ..      B        0x8005330 ; 0x8005330
        0x08005510:    9331        1.      STR      r3,[sp,#0xc4]
        0x08005512:    687c        |h      LDR      r4,[r7,#4]
        0x08005514:    68bb        .h      LDR      r3,[r7,#8]
        0x08005516:    2101        .!      MOVS     r1,#1
        0x08005518:    9333        3.      STR      r3,[sp,#0xcc]
        0x0800551a:    42a3        .B      CMP      r3,r4
        0x0800551c:    9134        4.      STR      r1,[sp,#0xd0]
        0x0800551e:    dc00        ..      BGT      0x8005522 ; 0x8005522
        0x08005520:    9932        2.      LDR      r1,[sp,#0xc8]
        0x08005522:    9130        0.      STR      r1,[sp,#0xc0]
        0x08005524:    6839        9h      LDR      r1,[r7,#0]
        0x08005526:    912d        -.      STR      r1,[sp,#0xb4]
        0x08005528:    194b        K.      ADDS     r3,r1,r5
        0x0800552a:    9928        (.      LDR      r1,[sp,#0xa0]
        0x0800552c:    428b        .B      CMP      r3,r1
        0x0800552e:    4626        &F      MOV      r6,r4
        0x08005530:    dc00        ..      BGT      0x8005534 ; 0x8005534
        0x08005532:    18e6        ..      ADDS     r6,r4,r3
        0x08005534:    932f        /.      STR      r3,[sp,#0xbc]
        0x08005536:    9928        (.      LDR      r1,[sp,#0xa0]
        0x08005538:    428e        .B      CMP      r6,r1
        0x0800553a:    9933        3.      LDR      r1,[sp,#0xcc]
        0x0800553c:    dc01        ..      BGT      0x8005542 ; 0x8005542
        0x0800553e:    9933        3.      LDR      r1,[sp,#0xcc]
        0x08005540:    1989        ..      ADDS     r1,r1,r6
        0x08005542:    230a        .#      MOVS     r3,#0xa
        0x08005544:    9d28        (.      LDR      r5,[sp,#0xa0]
        0x08005546:    912e        ..      STR      r1,[sp,#0xb8]
        0x08005548:    42a9        .B      CMP      r1,r5
        0x0800554a:    4619        .F      MOV      r1,r3
        0x0800554c:    461d        .F      MOV      r5,r3
        0x0800554e:    dc00        ..      BGT      0x8005552 ; 0x8005552
        0x08005550:    9d30        0.      LDR      r5,[sp,#0xc0]
        0x08005552:    9530        0.      STR      r5,[sp,#0xc0]
        0x08005554:    9b2d        -.      LDR      r3,[sp,#0xb4]
        0x08005556:    429c        .B      CMP      r4,r3
        0x08005558:    9c34        4.      LDR      r4,[sp,#0xd0]
        0x0800555a:    dc00        ..      BGT      0x800555e ; 0x800555e
        0x0800555c:    9c32        2.      LDR      r4,[sp,#0xc8]
        0x0800555e:    9d28        (.      LDR      r5,[sp,#0xa0]
        0x08005560:    42ae        .B      CMP      r6,r5
        0x08005562:    460d        .F      MOV      r5,r1
        0x08005564:    dc00        ..      BGT      0x8005568 ; 0x8005568
        0x08005566:    4625        %F      MOV      r5,r4
        0x08005568:    4293        .B      CMP      r3,r2
        0x0800556a:    9a34        4.      LDR      r2,[sp,#0xd0]
        0x0800556c:    9e27        '.      LDR      r6,[sp,#0x9c]
        0x0800556e:    dc00        ..      BGT      0x8005572 ; 0x8005572
        0x08005570:    9a32        2.      LDR      r2,[sp,#0xc8]
        0x08005572:    9b28        (.      LDR      r3,[sp,#0xa0]
        0x08005574:    9c2f        /.      LDR      r4,[sp,#0xbc]
        0x08005576:    429c        .B      CMP      r4,r3
        0x08005578:    460b        .F      MOV      r3,r1
        0x0800557a:    dc00        ..      BGT      0x800557e ; 0x800557e
        0x0800557c:    4613        .F      MOV      r3,r2
        0x0800557e:    952f        /.      STR      r5,[sp,#0xbc]
        0x08005580:    68fa        .h      LDR      r2,[r7,#0xc]
        0x08005582:    9c28        (.      LDR      r4,[sp,#0xa0]
        0x08005584:    9d2e        ..      LDR      r5,[sp,#0xb8]
        0x08005586:    42a5        .B      CMP      r5,r4
        0x08005588:    4614        .F      MOV      r4,r2
        0x0800558a:    dc00        ..      BGT      0x800558e ; 0x800558e
        0x0800558c:    1954        T.      ADDS     r4,r2,r5
        0x0800558e:    9d33        3.      LDR      r5,[sp,#0xcc]
        0x08005590:    42aa        .B      CMP      r2,r5
        0x08005592:    dc01        ..      BGT      0x8005598 ; 0x8005598
        0x08005594:    9d32        2.      LDR      r5,[sp,#0xc8]
        0x08005596:    9534        4.      STR      r5,[sp,#0xd0]
        0x08005598:    9d28        (.      LDR      r5,[sp,#0xa0]
        0x0800559a:    42ac        .B      CMP      r4,r5
        0x0800559c:    dc00        ..      BGT      0x80055a0 ; 0x80055a0
        0x0800559e:    9934        4.      LDR      r1,[sp,#0xd0]
        0x080055a0:    9d28        (.      LDR      r5,[sp,#0xa0]
        0x080055a2:    42ac        .B      CMP      r4,r5
        0x080055a4:    9d32        2.      LDR      r5,[sp,#0xc8]
        0x080055a6:    dca6        ..      BGT      0x80054f6 ; 0x80054f6
        0x080055a8:    4625        %F      MOV      r5,r4
        0x080055aa:    e7a4        ..      B        0x80054f6 ; 0x80054f6
        0x080055ac:    4632        2F      MOV      r2,r6
        0x080055ae:    991c        ..      LDR      r1,[sp,#0x70]
        0x080055b0:    438a        .C      BICS     r2,r2,r1
        0x080055b2:    922c        ,.      STR      r2,[sp,#0xb0]
        0x080055b4:    9933        3.      LDR      r1,[sp,#0xcc]
        0x080055b6:    1c89        ..      ADDS     r1,r1,#2
        0x080055b8:    4371        qC      MULS     r1,r6,r1
        0x080055ba:    0089        ..      LSLS     r1,r1,#2
        0x080055bc:    9a12        ..      LDR      r2,[sp,#0x48]
        0x080055be:    1855        U.      ADDS     r5,r2,r1
        0x080055c0:    2700        .'      MOVS     r7,#0
        0x080055c2:    463b        ;F      MOV      r3,r7
        0x080055c4:    9926        &.      LDR      r1,[sp,#0x98]
        0x080055c6:    972d        -.      STR      r7,[sp,#0xb4]
        0x080055c8:    e00d        ..      B        0x80055e6 ; 0x80055e6
        0x080055ca:    9b26        &.      LDR      r3,[sp,#0x98]
        0x080055cc:    18d2        ..      ADDS     r2,r2,r3
        0x080055ce:    9b2f        /.      LDR      r3,[sp,#0xbc]
        0x080055d0:    189a        ..      ADDS     r2,r3,r2
        0x080055d2:    9b30        0.      LDR      r3,[sp,#0xc0]
        0x080055d4:    189a        ..      ADDS     r2,r3,r2
        0x080055d6:    1889        ..      ADDS     r1,r1,r2
        0x080055d8:    3510        .5      ADDS     r5,r5,#0x10
        0x080055da:    9b31        1.      LDR      r3,[sp,#0xc4]
        0x080055dc:    1d1b        ..      ADDS     r3,r3,#4
        0x080055de:    9a2c        ,.      LDR      r2,[sp,#0xb0]
        0x080055e0:    429a        .B      CMP      r2,r3
        0x080055e2:    d100        ..      BNE      0x80055e6 ; 0x80055e6
        0x080055e4:    e6b8        ..      B        0x8005358 ; 0x8005358
        0x080055e6:    9126        &.      STR      r1,[sp,#0x98]
        0x080055e8:    686e        nh      LDR      r6,[r5,#4]
        0x080055ea:    68aa        .h      LDR      r2,[r5,#8]
        0x080055ec:    2101        .!      MOVS     r1,#1
        0x080055ee:    9232        2.      STR      r2,[sp,#0xc8]
        0x080055f0:    42b2        .B      CMP      r2,r6
        0x080055f2:    9134        4.      STR      r1,[sp,#0xd0]
        0x080055f4:    dc00        ..      BGT      0x80055f8 ; 0x80055f8
        0x080055f6:    4639        9F      MOV      r1,r7
        0x080055f8:    9130        0.      STR      r1,[sp,#0xc0]
        0x080055fa:    682a        *h      LDR      r2,[r5,#0]
        0x080055fc:    1914        ..      ADDS     r4,r2,r4
        0x080055fe:    9928        (.      LDR      r1,[sp,#0xa0]
        0x08005600:    428c        .B      CMP      r4,r1
        0x08005602:    4637        7F      MOV      r7,r6
        0x08005604:    dc00        ..      BGT      0x8005608 ; 0x8005608
        0x08005606:    1937        7.      ADDS     r7,r6,r4
        0x08005608:    942e        ..      STR      r4,[sp,#0xb8]
        0x0800560a:    9331        1.      STR      r3,[sp,#0xc4]
        0x0800560c:    9928        (.      LDR      r1,[sp,#0xa0]
        0x0800560e:    428f        .B      CMP      r7,r1
        0x08005610:    9c32        2.      LDR      r4,[sp,#0xc8]
        0x08005612:    dc01        ..      BGT      0x8005618 ; 0x8005618
        0x08005614:    9932        2.      LDR      r1,[sp,#0xc8]
        0x08005616:    19cc        ..      ADDS     r4,r1,r7
        0x08005618:    210a        .!      MOVS     r1,#0xa
        0x0800561a:    9b28        (.      LDR      r3,[sp,#0xa0]
        0x0800561c:    429c        .B      CMP      r4,r3
        0x0800561e:    460b        .F      MOV      r3,r1
        0x08005620:    dc00        ..      BGT      0x8005624 ; 0x8005624
        0x08005622:    9b30        0.      LDR      r3,[sp,#0xc0]
        0x08005624:    9330        0.      STR      r3,[sp,#0xc0]
        0x08005626:    4296        .B      CMP      r6,r2
        0x08005628:    9e34        4.      LDR      r6,[sp,#0xd0]
        0x0800562a:    dc00        ..      BGT      0x800562e ; 0x800562e
        0x0800562c:    9e2d        -.      LDR      r6,[sp,#0xb4]
        0x0800562e:    9b28        (.      LDR      r3,[sp,#0xa0]
        0x08005630:    429f        .B      CMP      r7,r3
        0x08005632:    460b        .F      MOV      r3,r1
        0x08005634:    dc00        ..      BGT      0x8005638 ; 0x8005638
        0x08005636:    4633        3F      MOV      r3,r6
        0x08005638:    4282        .B      CMP      r2,r0
        0x0800563a:    9834        4.      LDR      r0,[sp,#0xd0]
        0x0800563c:    9f2d        -.      LDR      r7,[sp,#0xb4]
        0x0800563e:    dc00        ..      BGT      0x8005642 ; 0x8005642
        0x08005640:    4638        8F      MOV      r0,r7
        0x08005642:    932f        /.      STR      r3,[sp,#0xbc]
        0x08005644:    9a28        (.      LDR      r2,[sp,#0xa0]
        0x08005646:    9b2e        ..      LDR      r3,[sp,#0xb8]
        0x08005648:    4293        .B      CMP      r3,r2
        0x0800564a:    460a        .F      MOV      r2,r1
        0x0800564c:    9e27        '.      LDR      r6,[sp,#0x9c]
        0x0800564e:    dc00        ..      BGT      0x8005652 ; 0x8005652
        0x08005650:    4602        .F      MOV      r2,r0
        0x08005652:    68e8        .h      LDR      r0,[r5,#0xc]
        0x08005654:    9b28        (.      LDR      r3,[sp,#0xa0]
        0x08005656:    429c        .B      CMP      r4,r3
        0x08005658:    4603        .F      MOV      r3,r0
        0x0800565a:    dc00        ..      BGT      0x800565e ; 0x800565e
        0x0800565c:    1903        ..      ADDS     r3,r0,r4
        0x0800565e:    9c32        2.      LDR      r4,[sp,#0xc8]
        0x08005660:    42a0        .B      CMP      r0,r4
        0x08005662:    dc00        ..      BGT      0x8005666 ; 0x8005666
        0x08005664:    9734        4.      STR      r7,[sp,#0xd0]
        0x08005666:    9c28        (.      LDR      r4,[sp,#0xa0]
        0x08005668:    42a3        .B      CMP      r3,r4
        0x0800566a:    dc00        ..      BGT      0x800566e ; 0x800566e
        0x0800566c:    9934        4.      LDR      r1,[sp,#0xd0]
        0x0800566e:    9c28        (.      LDR      r4,[sp,#0xa0]
        0x08005670:    42a3        .B      CMP      r3,r4
        0x08005672:    463c        <F      MOV      r4,r7
        0x08005674:    dca9        ..      BGT      0x80055ca ; 0x80055ca
        0x08005676:    461c        .F      MOV      r4,r3
        0x08005678:    e7a7        ..      B        0x80055ca ; 0x80055ca
        0x0800567a:    1952        R.      ADDS     r2,r2,r5
        0x0800567c:    6855        Uh      LDR      r5,[r2,#4]
        0x0800567e:    9c28        (.      LDR      r4,[sp,#0xa0]
        0x08005680:    42a1        .B      CMP      r1,r4
        0x08005682:    462c        ,F      MOV      r4,r5
        0x08005684:    9e27        '.      LDR      r6,[sp,#0x9c]
        0x08005686:    dc00        ..      BGT      0x800568a ; 0x800568a
        0x08005688:    1865        e.      ADDS     r5,r4,r1
        0x0800568a:    429c        .B      CMP      r4,r3
        0x0800568c:    dc68        h.      BGT      0x8005760 ; 0x8005760
        0x0800568e:    2100        .!      MOVS     r1,#0
        0x08005690:    e067        g.      B        0x8005762 ; 0x8005762
        0x08005692:    2200        ."      MOVS     r2,#0
        0x08005694:    460b        .F      MOV      r3,r1
        0x08005696:    9d22        ".      LDR      r5,[sp,#0x88]
        0x08005698:    881c        ..      LDRH     r4,[r3,#0]
        0x0800569a:    1be4        ..      SUBS     r4,r4,r7
        0x0800569c:    801c        ..      STRH     r4,[r3,#0]
        0x0800569e:    885c        \.      LDRH     r4,[r3,#2]
        0x080056a0:    1be4        ..      SUBS     r4,r4,r7
        0x080056a2:    805c        \.      STRH     r4,[r3,#2]
        0x080056a4:    889c        ..      LDRH     r4,[r3,#4]
        0x080056a6:    1be4        ..      SUBS     r4,r4,r7
        0x080056a8:    809c        ..      STRH     r4,[r3,#4]
        0x080056aa:    88dc        ..      LDRH     r4,[r3,#6]
        0x080056ac:    1be4        ..      SUBS     r4,r4,r7
        0x080056ae:    80dc        ..      STRH     r4,[r3,#6]
        0x080056b0:    3308        .3      ADDS     r3,r3,#8
        0x080056b2:    1d12        ..      ADDS     r2,r2,#4
        0x080056b4:    4295        .B      CMP      r5,r2
        0x080056b6:    d1ef        ..      BNE      0x8005698 ; 0x8005698
        0x080056b8:    0052        R.      LSLS     r2,r2,#1
        0x080056ba:    5a8b        .Z      LDRH     r3,[r1,r2]
        0x080056bc:    1bdb        ..      SUBS     r3,r3,r7
        0x080056be:    528b        .R      STRH     r3,[r1,r2]
        0x080056c0:    1889        ..      ADDS     r1,r1,r2
        0x080056c2:    884a        J.      LDRH     r2,[r1,#2]
        0x080056c4:    1bd2        ..      SUBS     r2,r2,r7
        0x080056c6:    804a        J.      STRH     r2,[r1,#2]
        0x080056c8:    1d09        ..      ADDS     r1,r1,#4
        0x080056ca:    9834        4.      LDR      r0,[sp,#0xd0]
        0x080056cc:    e5ea        ..      B        0x80052a4 ; 0x80052a4
        0x080056ce:    2401        .$      MOVS     r4,#1
        0x080056d0:    18d0        ..      ADDS     r0,r2,r3
        0x080056d2:    9b28        (.      LDR      r3,[sp,#0xa0]
        0x080056d4:    4298        .B      CMP      r0,r3
        0x080056d6:    9d31        1.      LDR      r5,[sp,#0xc4]
        0x080056d8:    dd00        ..      BLE      0x80056dc ; 0x80056dc
        0x080056da:    240a        .$      MOVS     r4,#0xa
        0x080056dc:    1965        e.      ADDS     r5,r4,r5
        0x080056de:    9b0f        ..      LDR      r3,[sp,#0x3c]
        0x080056e0:    2b01        .+      CMP      r3,#1
        0x080056e2:    d118        ..      BNE      0x8005716 ; 0x8005716
        0x080056e4:    9531        1.      STR      r5,[sp,#0xc4]
        0x080056e6:    f7feff86    ....    BL       0x80045f6 ; 0x80045f6
        0x080056ea:    2401        .$      MOVS     r4,#1
        0x080056ec:    195a        Z.      ADDS     r2,r3,r5
        0x080056ee:    9d28        (.      LDR      r5,[sp,#0xa0]
        0x080056f0:    42aa        .B      CMP      r2,r5
        0x080056f2:    dd00        ..      BLE      0x80056f6 ; 0x80056f6
        0x080056f4:    240a        .$      MOVS     r4,#0xa
        0x080056f6:    1820         .      ADDS     r0,r4,r0
        0x080056f8:    9c0f        ..      LDR      r4,[sp,#0x3c]
        0x080056fa:    2c01        .,      CMP      r4,#1
        0x080056fc:    d100        ..      BNE      0x8005700 ; 0x8005700
        0x080056fe:    e4d0        ..      B        0x80050a2 ; 0x80050a2
        0x08005700:    1879        y.      ADDS     r1,r7,r1
        0x08005702:    684f        Oh      LDR      r7,[r1,#4]
        0x08005704:    9c28        (.      LDR      r4,[sp,#0xa0]
        0x08005706:    42a2        .B      CMP      r2,r4
        0x08005708:    463d        =F      MOV      r5,r7
        0x0800570a:    dc00        ..      BGT      0x800570e ; 0x800570e
        0x0800570c:    18bd        ..      ADDS     r5,r7,r2
        0x0800570e:    429f        .B      CMP      r7,r3
        0x08005710:    dc38        8.      BGT      0x8005784 ; 0x8005784
        0x08005712:    2200        ."      MOVS     r2,#0
        0x08005714:    e037        7.      B        0x8005786 ; 0x8005786
        0x08005716:    1871        q.      ADDS     r1,r6,r1
        0x08005718:    684e        Nh      LDR      r6,[r1,#4]
        0x0800571a:    9b28        (.      LDR      r3,[sp,#0xa0]
        0x0800571c:    4298        .B      CMP      r0,r3
        0x0800571e:    4634        4F      MOV      r4,r6
        0x08005720:    dc00        ..      BGT      0x8005724 ; 0x8005724
        0x08005722:    1834        4.      ADDS     r4,r6,r0
        0x08005724:    4296        .B      CMP      r6,r2
        0x08005726:    dc3e        >.      BGT      0x80057a6 ; 0x80057a6
        0x08005728:    2000        .       MOVS     r0,#0
        0x0800572a:    e03d        =.      B        0x80057a8 ; 0x80057a8
        0x0800572c:    2501        .%      MOVS     r5,#1
        0x0800572e:    1910        ..      ADDS     r0,r2,r4
        0x08005730:    9c28        (.      LDR      r4,[sp,#0xa0]
        0x08005732:    42a0        .B      CMP      r0,r4
        0x08005734:    dd00        ..      BLE      0x8005738 ; 0x8005738
        0x08005736:    250a        .%      MOVS     r5,#0xa
        0x08005738:    9c26        &.      LDR      r4,[sp,#0x98]
        0x0800573a:    192c        ,.      ADDS     r4,r5,r4
        0x0800573c:    9426        &.      STR      r4,[sp,#0x98]
        0x0800573e:    9c0f        ..      LDR      r4,[sp,#0x3c]
        0x08005740:    2c01        .,      CMP      r4,#1
        0x08005742:    d101        ..      BNE      0x8005748 ; 0x8005748
        0x08005744:    f7fefaa9    ....    BL       0x8003c9a ; 0x8003c9a
        0x08005748:    18c9        ..      ADDS     r1,r1,r3
        0x0800574a:    684d        Mh      LDR      r5,[r1,#4]
        0x0800574c:    9b28        (.      LDR      r3,[sp,#0xa0]
        0x0800574e:    4298        .B      CMP      r0,r3
        0x08005750:    9533        3.      STR      r5,[sp,#0xcc]
        0x08005752:    dc01        ..      BGT      0x8005758 ; 0x8005758
        0x08005754:    1828        (.      ADDS     r0,r5,r0
        0x08005756:    9033        3.      STR      r0,[sp,#0xcc]
        0x08005758:    4295        .B      CMP      r5,r2
        0x0800575a:    dc38        8.      BGT      0x80057ce ; 0x80057ce
        0x0800575c:    2000        .       MOVS     r0,#0
        0x0800575e:    e037        7.      B        0x80057d0 ; 0x80057d0
        0x08005760:    2101        .!      MOVS     r1,#1
        0x08005762:    9b28        (.      LDR      r3,[sp,#0xa0]
        0x08005764:    429d        .B      CMP      r5,r3
        0x08005766:    dd00        ..      BLE      0x800576a ; 0x800576a
        0x08005768:    210a        .!      MOVS     r1,#0xa
        0x0800576a:    1808        ..      ADDS     r0,r1,r0
        0x0800576c:    992b        +.      LDR      r1,[sp,#0xac]
        0x0800576e:    2902        .)      CMP      r1,#2
        0x08005770:    d101        ..      BNE      0x8005776 ; 0x8005776
        0x08005772:    f7fdfda4    ....    BL       0x80032be ; 0x80032be
        0x08005776:    9928        (.      LDR      r1,[sp,#0xa0]
        0x08005778:    428d        .B      CMP      r5,r1
        0x0800577a:    dd00        ..      BLE      0x800577e ; 0x800577e
        0x0800577c:    2500        .%      MOVS     r5,#0
        0x0800577e:    3208        .2      ADDS     r2,r2,#8
        0x08005780:    f7fdfcfd    ....    BL       0x800317e ; matrix_test + 1618
        0x08005784:    2201        ."      MOVS     r2,#1
        0x08005786:    9c2c        ,.      LDR      r4,[sp,#0xb0]
        0x08005788:    9b28        (.      LDR      r3,[sp,#0xa0]
        0x0800578a:    429d        .B      CMP      r5,r3
        0x0800578c:    dd00        ..      BLE      0x8005790 ; 0x8005790
        0x0800578e:    220a        ."      MOVS     r2,#0xa
        0x08005790:    1810        ..      ADDS     r0,r2,r0
        0x08005792:    9a0f        ..      LDR      r2,[sp,#0x3c]
        0x08005794:    2a02        .*      CMP      r2,#2
        0x08005796:    d100        ..      BNE      0x800579a ; 0x800579a
        0x08005798:    e484        ..      B        0x80050a4 ; 0x80050a4
        0x0800579a:    9a28        (.      LDR      r2,[sp,#0xa0]
        0x0800579c:    4295        .B      CMP      r5,r2
        0x0800579e:    dd00        ..      BLE      0x80057a2 ; 0x80057a2
        0x080057a0:    2500        .%      MOVS     r5,#0
        0x080057a2:    3108        .1      ADDS     r1,r1,#8
        0x080057a4:    e42c        ,.      B        0x8005000 ; 0x8005000
        0x080057a6:    2001        .       MOVS     r0,#1
        0x080057a8:    9a28        (.      LDR      r2,[sp,#0xa0]
        0x080057aa:    4294        .B      CMP      r4,r2
        0x080057ac:    4622        "F      MOV      r2,r4
        0x080057ae:    dd00        ..      BLE      0x80057b2 ; 0x80057b2
        0x080057b0:    200a        .       MOVS     r0,#0xa
        0x080057b2:    1945        E.      ADDS     r5,r0,r5
        0x080057b4:    980f        ..      LDR      r0,[sp,#0x3c]
        0x080057b6:    2802        .(      CMP      r0,#2
        0x080057b8:    9531        1.      STR      r5,[sp,#0xc4]
        0x080057ba:    d101        ..      BNE      0x80057c0 ; 0x80057c0
        0x080057bc:    f7feff1b    ....    BL       0x80045f6 ; 0x80045f6
        0x080057c0:    9828        (.      LDR      r0,[sp,#0xa0]
        0x080057c2:    4282        .B      CMP      r2,r0
        0x080057c4:    dd00        ..      BLE      0x80057c8 ; 0x80057c8
        0x080057c6:    2200        ."      MOVS     r2,#0
        0x080057c8:    3108        .1      ADDS     r1,r1,#8
        0x080057ca:    f7fefee2    ....    BL       0x8004592 ; 0x8004592
        0x080057ce:    2001        .       MOVS     r0,#1
        0x080057d0:    9a28        (.      LDR      r2,[sp,#0xa0]
        0x080057d2:    9b33        3.      LDR      r3,[sp,#0xcc]
        0x080057d4:    4293        .B      CMP      r3,r2
        0x080057d6:    dd00        ..      BLE      0x80057da ; 0x80057da
        0x080057d8:    200a        .       MOVS     r0,#0xa
        0x080057da:    9a26        &.      LDR      r2,[sp,#0x98]
        0x080057dc:    1882        ..      ADDS     r2,r0,r2
        0x080057de:    980f        ..      LDR      r0,[sp,#0x3c]
        0x080057e0:    2802        .(      CMP      r0,#2
        0x080057e2:    d103        ..      BNE      0x80057ec ; 0x80057ec
        0x080057e4:    9226        &.      STR      r2,[sp,#0x98]
        0x080057e6:    991c        ..      LDR      r1,[sp,#0x70]
        0x080057e8:    f7fefa63    ..c.    BL       0x8003cb2 ; 0x8003cb2
        0x080057ec:    9828        (.      LDR      r0,[sp,#0xa0]
        0x080057ee:    9b33        3.      LDR      r3,[sp,#0xcc]
        0x080057f0:    4283        .B      CMP      r3,r0
        0x080057f2:    dd01        ..      BLE      0x80057f8 ; 0x80057f8
        0x080057f4:    2000        .       MOVS     r0,#0
        0x080057f6:    9033        3.      STR      r0,[sp,#0xcc]
        0x080057f8:    3108        .1      ADDS     r1,r1,#8
        0x080057fa:    f7fef994    ....    BL       0x8003b26 ; 0x8003b26
        0x080057fe:    0000        ..      MOVS     r0,r0
    $d.realdata
        0x08005800:    08005840    @X..    DCD    134240320
        0x08005804:    08005840    @X..    DCD    134240320
        0x08005808:    08005840    @X..    DCD    134240320
        0x0800580c:    08005830    0X..    DCD    134240304
        0x08005810:    08005830    0X..    DCD    134240304
        0x08005814:    08005864    dX..    DCD    134240356
        0x08005818:    08005864    dX..    DCD    134240356
        0x0800581c:    08005820     X..    DCD    134240288
    errpat
        0x08005820:    08005ca6    .\..    DCD    134241446
        0x08005824:    08005cdd    .\..    DCD    134241501
        0x08005828:    08005d13    .]..    DCD    134241555
        0x0800582c:    08005cd4    .\..    DCD    134241492
    floatpat
        0x08005830:    08005c4a    J\..    DCD    134241354
        0x08005834:    08005c5c    \\..    DCD    134241372
        0x08005838:    08005c65    e\..    DCD    134241381
        0x0800583c:    08005c53    S\..    DCD    134241363
    intpat
        0x08005840:    08005c80    .\..    DCD    134241408
        0x08005844:    08005c9c    .\..    DCD    134241436
        0x08005848:    08005ca1    .\..    DCD    134241441
        0x0800584c:    08005c85    .\..    DCD    134241413
    list_known_crc
        0x08005850:    3340d4b0    ..@3    DCD    859886768
        0x08005854:    e7146a79    yj..    DCD    3876874873
        0x08005858:    e3c1        ..      DCW    58305
    matrix_known_crc
        0x0800585a:    be52        R.      DCW    48722
        0x0800585c:    56081199    ...V    DCD    1443369369
        0x08005860:    07471fd7    ..G.    DCD    122101719
    scipat
        0x08005864:    08005c93    .\..    DCD    134241427
        0x08005868:    08005c6e    n\..    DCD    134241390
        0x0800586c:    08005c8a    .\..    DCD    134241418
        0x08005870:    08005c77    w\..    DCD    134241399
    state_known_crc
        0x08005874:    39bf5e47    G^.9    DCD    968842823
        0x08005878:    8e3ae5a4    ..:.    DCD    2386224548
        0x0800587c:    2a2a8d84    ..**    DCD    707431812
        0x08005880:    726f4320     Cor    DCD    1919894304
        0x08005884:    72614d65    eMar    DCD    1918979429
        0x08005888:    6554206b    k Te    DCD    1700012139
        0x0800588c:    53207473    st S    DCD    1394635891
        0x08005890:    0d706f74    top.    DCD    225472372
        0x08005894:    5245000a    ..ER    DCD    1380253706
        0x08005898:    21524f52    ROR!    DCD    559042386
        0x0800589c:    73754d20     Mus    DCD    1937067296
        0x080058a0:    78652074    t ex    DCD    2019893364
        0x080058a4:    74756365    ecut    DCD    1953850213
        0x080058a8:    6f662065    e fo    DCD    1868963941
        0x080058ac:    74612072    r at    DCD    1952522354
        0x080058b0:    61656c20     lea    DCD    1634036768
        0x080058b4:    31207473    st 1    DCD    824210547
        0x080058b8:    65732030    0 se    DCD    1702043696
        0x080058bc:    66207363    cs f    DCD    1713402723
        0x080058c0:    6120726f    or a    DCD    1629516399
        0x080058c4:    6c617620     val    DCD    1818326560
        0x080058c8:    72206469    id r    DCD    1914725481
        0x080058cc:    6c757365    esul    DCD    1819636581
        0x080058d0:    000a2174    t!..    DCD    663924
        0x080058d4:    70204b32    2K p    DCD    1881164594
        0x080058d8:    6f667265    erfo    DCD    1868984933
        0x080058dc:    6e616d72    rman    DCD    1851878770
        0x080058e0:    72206563    ce r    DCD    1914725731
        0x080058e4:    70206e75    un p    DCD    1881173621
        0x080058e8:    6d617261    aram    DCD    1835102817
        0x080058ec:    72657465    eter    DCD    1919251557
        0x080058f0:    6f662073    s fo    DCD    1868963955
        0x080058f4:    6f632072    r co    DCD    1868767346
        0x080058f8:    616d6572    rema    DCD    1634559346
        0x080058fc:    0a2e6b72    rk..    DCD    170814322
        0x08005900:    206b3600    .6k     DCD    543897088
        0x08005904:    66726570    perf    DCD    1718773104
        0x08005908:    616d726f    orma    DCD    1634562671
        0x0800590c:    2065636e    nce     DCD    543515502
        0x08005910:    206e7572    run     DCD    544109938
        0x08005914:    61726170    para    DCD    1634886000
        0x08005918:    6574656d    mete    DCD    1702126957
        0x0800591c:    66207372    rs f    DCD    1713402738
        0x08005920:    6320726f    or c    DCD    1663070831
        0x08005924:    6d65726f    orem    DCD    1835364975
        0x08005928:    2e6b7261    ark.    DCD    778793569
        0x0800592c:    4b32000a    ..2K    DCD    1261568010
        0x08005930:    6c617620     val    DCD    1818326560
        0x08005934:    74616469    idat    DCD    1952539753
        0x08005938:    206e6f69    ion     DCD    544108393
        0x0800593c:    206e7572    run     DCD    544109938
        0x08005940:    61726170    para    DCD    1634886000
        0x08005944:    6574656d    mete    DCD    1702126957
        0x08005948:    66207372    rs f    DCD    1713402738
        0x0800594c:    6320726f    or c    DCD    1663070831
        0x08005950:    6d65726f    orem    DCD    1835364975
        0x08005954:    2e6b7261    ark.    DCD    778793569
        0x08005958:    6b36000a    ..6k    DCD    1798701066
        0x0800595c:    6c617620     val    DCD    1818326560
        0x08005960:    74616469    idat    DCD    1952539753
        0x08005964:    206e6f69    ion     DCD    544108393
        0x08005968:    206e7572    run     DCD    544109938
        0x0800596c:    61726170    para    DCD    1634886000
        0x08005970:    6574656d    mete    DCD    1702126957
        0x08005974:    66207372    rs f    DCD    1713402738
        0x08005978:    6320726f    or c    DCD    1663070831
        0x0800597c:    6d65726f    orem    DCD    1835364975
        0x08005980:    2e6b7261    ark.    DCD    778793569
        0x08005984:    7250000a    ..Pr    DCD    1917845514
        0x08005988:    6c69666f    ofil    DCD    1818846831
        0x0800598c:    65672065    e ge    DCD    1701257317
        0x08005990:    6172656e    nera    DCD    1634887022
        0x08005994:    6e6f6974    tion    DCD    1852795252
        0x08005998:    6e757220     run    DCD    1853190688
        0x0800599c:    72617020     par    DCD    1918988320
        0x080059a0:    74656d61    amet    DCD    1952804193
        0x080059a4:    20737265    ers     DCD    544436837
        0x080059a8:    20726f66    for     DCD    544370534
        0x080059ac:    65726f63    core    DCD    1701998435
        0x080059b0:    6b72616d    mark    DCD    1802658157
        0x080059b4:    43000a2e    ...C    DCD    1124076078
        0x080059b8:    6f6e6e61    anno    DCD    1869508193
        0x080059bc:    61762074    t va    DCD    1635131508
        0x080059c0:    6164696c    lida    DCD    1633970540
        0x080059c4:    6f206574    te o    DCD    1864394100
        0x080059c8:    61726570    pera    DCD    1634887024
        0x080059cc:    6e6f6974    tion    DCD    1852795252
        0x080059d0:    726f6620     for    DCD    1919903264
        0x080059d4:    65687420     the    DCD    1701344288
        0x080059d8:    73206573    se s    DCD    1931502963
        0x080059dc:    20646565    eed     DCD    543450469
        0x080059e0:    756c6176    valu    DCD    1970037110
        0x080059e4:    202c7365    es,     DCD    539784037
        0x080059e8:    61656c70    plea    DCD    1634036848
        0x080059ec:    63206573    se c    DCD    1663067507
        0x080059f0:    61706d6f    ompa    DCD    1634757999
        0x080059f4:    77206572    re w    DCD    1998611826
        0x080059f8:    20687469    ith     DCD    543716457
        0x080059fc:    75736572    resu    DCD    1970496882
        0x08005a00:    2073746c    lts     DCD    544437356
        0x08005a04:    61206e6f    on a    DCD    1629515375
        0x08005a08:    6f6e6b20     kno    DCD    1869507360
        0x08005a0c:    70206e77    wn p    DCD    1881173623
        0x08005a10:    6674616c    latf    DCD    1718903148
        0x08005a14:    2e6d726f    orm.    DCD    778924655
        0x08005a18:    6f43000a    ..Co    DCD    1866661898
        0x08005a1c:    63657272    rrec    DCD    1667592818
        0x08005a20:    706f2074    t op    DCD    1886330996
        0x08005a24:    74617265    erat    DCD    1952543333
        0x08005a28:    206e6f69    ion     DCD    544108393
        0x08005a2c:    696c6176    vali    DCD    1768710518
        0x08005a30:    65746164    date    DCD    1702125924
        0x08005a34:    53202e64    d. S    DCD    1394617956
        0x08005a38:    52206565    ee R    DCD    1377854821
        0x08005a3c:    4d444145    EADM    DCD    1296318789
        0x08005a40:    646d2e45    E.md    DCD    1684876869
        0x08005a44:    726f6620     for    DCD    1919903264
        0x08005a48:    6e757220     run    DCD    1853190688
        0x08005a4c:    646e6120     and    DCD    1684955424
        0x08005a50:    70657220     rep    DCD    1885696544
        0x08005a54:    6974726f    orti    DCD    1769239151
        0x08005a58:    7220676e    ng r    DCD    1914726254
        0x08005a5c:    73656c75    ules    DCD    1936026741
        0x08005a60:    49000a2e    ...I    DCD    1224739374
        0x08005a64:    61726574    tera    DCD    1634887028
        0x08005a68:    6e6f6974    tion    DCD    1852795252
        0x08005a6c:    65532f73    s/Se    DCD    1699950451
        0x08005a70:    20202063    c       DCD    538976355
        0x08005a74:    6425203a    : %d    DCD    1680154682
        0x08005a78:    6f54000a    ..To    DCD    1867776010
        0x08005a7c:    206c6174    tal     DCD    543973748
        0x08005a80:    656d6974    time    DCD    1701669236
        0x08005a84:    65732820     (se    DCD    1702045728
        0x08005a88:    3a297363    cs):    DCD    975795043
        0x08005a8c:    0a642520     %d.    DCD    174335264
        0x08005a90:    72724500    .Err    DCD    1920091392
        0x08005a94:    2073726f    ors     DCD    544436847
        0x08005a98:    65746564    dete    DCD    1702126948
        0x08005a9c:    64657463    cted    DCD    1684370531
        0x08005aa0:    6f43000a    ..Co    DCD    1866661898
        0x08005aa4:    6c69706d    mpil    DCD    1818849389
        0x08005aa8:    66207265    er f    DCD    1713402469
        0x08005aac:    7367616c    lags    DCD    1936154988
        0x08005ab0:    3a202020       :    DCD    975183904
        0x08005ab4:    0a732520     %s.    DCD    175318304
        0x08005ab8:    6d654d00    .Mem    DCD    1835355392
        0x08005abc:    2079726f    ory     DCD    544830063
        0x08005ac0:    61636f6c    loca    DCD    1633906540
        0x08005ac4:    6e6f6974    tion    DCD    1852795252
        0x08005ac8:    203a2020      :     DCD    540680224
        0x08005acc:    000a7325    %s..    DCD    684837
        0x08005ad0:    706d6f43    Comp    DCD    1886220099
        0x08005ad4:    72656c69    iler    DCD    1919249513
        0x08005ad8:    72657620     ver    DCD    1919252000
        0x08005adc:    6e6f6973    sion    DCD    1852795251
        0x08005ae0:    25203a20     : %    DCD    622869024
        0x08005ae4:    49000a73    s..I    DCD    1224739443
        0x08005ae8:    61726574    tera    DCD    1634887028
        0x08005aec:    6e6f6974    tion    DCD    1852795252
        0x08005af0:    20202073    s       DCD    538976371
        0x08005af4:    20202020            DCD    538976288
        0x08005af8:    6c25203a    : %l    DCD    1814372410
        0x08005afc:    54000a75    u..T    DCD    1409288821
        0x08005b00:    6c61746f    otal    DCD    1818326127
        0x08005b04:    63697420     tic    DCD    1667855392
        0x08005b08:    2020736b    ks      DCD    538997611
        0x08005b0c:    20202020            DCD    538976288
        0x08005b10:    6c25203a    : %l    DCD    1814372410
        0x08005b14:    43000a75    u..C    DCD    1124076149
        0x08005b18:    4d65726f    oreM    DCD    1298494063
        0x08005b1c:    206b7261    ark     DCD    543912545
        0x08005b20:    657a6953    Size    DCD    1702521171
        0x08005b24:    20202020            DCD    538976288
        0x08005b28:    6c25203a    : %l    DCD    1814372410
        0x08005b2c:    73000a75    u..s    DCD    1929382517
        0x08005b30:    63646565    eedc    DCD    1667523941
        0x08005b34:    20206372    rc      DCD    538993522
        0x08005b38:    20202020            DCD    538976288
        0x08005b3c:    20202020            DCD    538976288
        0x08005b40:    7830203a    : 0x    DCD    2016419898
        0x08005b44:    78343025    %04x    DCD    2016686117
        0x08005b48:    255b000a    ..[%    DCD    626720778
        0x08005b4c:    72635d64    d]cr    DCD    1919114596
        0x08005b50:    73696c63    clis    DCD    1936288867
        0x08005b54:    20202074    t       DCD    538976372
        0x08005b58:    20202020            DCD    538976288
        0x08005b5c:    7830203a    : 0x    DCD    2016419898
        0x08005b60:    78343025    %04x    DCD    2016686117
        0x08005b64:    255b000a    ..[%    DCD    626720778
        0x08005b68:    72635d64    d]cr    DCD    1919114596
        0x08005b6c:    61747363    csta    DCD    1635021667
        0x08005b70:    20206574    te      DCD    538994036
        0x08005b74:    20202020            DCD    538976288
        0x08005b78:    7830203a    : 0x    DCD    2016419898
        0x08005b7c:    78343025    %04x    DCD    2016686117
        0x08005b80:    255b000a    ..[%    DCD    626720778
        0x08005b84:    72635d64    d]cr    DCD    1919114596
        0x08005b88:    6e696663    cfin    DCD    1852401251
        0x08005b8c:    20206c61    al      DCD    538995809
        0x08005b90:    20202020            DCD    538976288
        0x08005b94:    7830203a    : 0x    DCD    2016419898
        0x08005b98:    78343025    %04x    DCD    2016686117
        0x08005b9c:    255b000a    ..[%    DCD    626720778
        0x08005ba0:    72635d64    d]cr    DCD    1919114596
        0x08005ba4:    74616d63    cmat    DCD    1952542051
        0x08005ba8:    20786972    rix     DCD    544762226
        0x08005bac:    20202020            DCD    538976288
        0x08005bb0:    7830203a    : 0x    DCD    2016419898
        0x08005bb4:    78343025    %04x    DCD    2016686117
        0x08005bb8:    255b000a    ..[%    DCD    626720778
        0x08005bbc:    52455d75    u]ER    DCD    1380277621
        0x08005bc0:    21524f52    ROR!    DCD    559042386
        0x08005bc4:    61747320     sta    DCD    1635021600
        0x08005bc8:    63206574    te c    DCD    1663067508
        0x08005bcc:    30206372    rc 0    DCD    807428978
        0x08005bd0:    34302578    x%04    DCD    875570552
        0x08005bd4:    202d2078    x -     DCD    539828344
        0x08005bd8:    756f6873    shou    DCD    1970235507
        0x08005bdc:    6220646c    ld b    DCD    1646290028
        0x08005be0:    78302065    e 0x    DCD    2016419941
        0x08005be4:    78343025    %04x    DCD    2016686117
        0x08005be8:    255b000a    ..[%    DCD    626720778
        0x08005bec:    52455d75    u]ER    DCD    1380277621
        0x08005bf0:    21524f52    ROR!    DCD    559042386
        0x08005bf4:    73696c20     lis    DCD    1936288800
        0x08005bf8:    72632074    t cr    DCD    1919098996
        0x08005bfc:    78302063    c 0x    DCD    2016419939
        0x08005c00:    78343025    %04x    DCD    2016686117
        0x08005c04:    73202d20     - s    DCD    1931488544
        0x08005c08:    6c756f68    houl    DCD    1819635560
        0x08005c0c:    65622064    d be    DCD    1700929636
        0x08005c10:    25783020     0x%    DCD    628633632
        0x08005c14:    0a783430    04x.    DCD    175649840
        0x08005c18:    75255b00    .[%u    DCD    1965382400
        0x08005c1c:    5252455d    ]ERR    DCD    1381123421
        0x08005c20:    2021524f    OR!     DCD    539054671
        0x08005c24:    7274616d    matr    DCD    1920229741
        0x08005c28:    63207869    ix c    DCD    1663072361
        0x08005c2c:    30206372    rc 0    DCD    807428978
        0x08005c30:    34302578    x%04    DCD    875570552
        0x08005c34:    202d2078    x -     DCD    539828344
        0x08005c38:    756f6873    shou    DCD    1970235507
        0x08005c3c:    6220646c    ld b    DCD    1646290028
        0x08005c40:    78302065    e 0x    DCD    2016419941
        0x08005c44:    78343025    %04x    DCD    2016686117
        0x08005c48:    3533000a    ..35    DCD    892534794
        0x08005c4c:    3434352e    .544    DCD    875836718
        0x08005c50:    2b003030    00.+    DCD    721432624
        0x08005c54:    34362e30    0.64    DCD    875966000
        0x08005c58:    00303034    400.    DCD    3158068
        0x08005c5c:    3332312e    .123    DCD    858927406
        0x08005c60:    30303534    4500    DCD    808465716
        0x08005c64:    31312d00    .-11    DCD    825306368
        0x08005c68:    30372e30    0.70    DCD    808922672
        0x08005c6c:    2e2d0030    0.-.    DCD    774701104
        0x08005c70:    65333231    123e    DCD    1697854001
        0x08005c74:    2b00322d    -2.+    DCD    721433133
        0x08005c78:    65362e30    0.6e    DCD    1698049584
        0x08005c7c:    0032312d    -12.    DCD    3289389
        0x08005c80:    32313035    5012    DCD    842084405
        0x08005c84:    32312b00    .+12    DCD    842083072
        0x08005c88:    382d0032    2.-8    DCD    942473266
        0x08005c8c:    382b6537    7e+8    DCD    942368055
        0x08005c90:    35003233    32.5    DCD    889205299
        0x08005c94:    3030352e    .500    DCD    808465710
        0x08005c98:    00332b65    e+3.    DCD    3353445
        0x08005c9c:    34333231    1234    DCD    875770417
        0x08005ca0:    37382d00    .-87    DCD    926428416
        0x08005ca4:    30540034    4.T0    DCD    810811444
        0x08005ca8:    2d65332e    .3e-    DCD    761606958
        0x08005cac:    30004631    1F.0    DCD    805324337
        0x08005cb0:    34333231    1234    DCD    875770417
        0x08005cb4:    38373635    5678    DCD    943142453
        0x08005cb8:    43424139    9ABC    DCD    1128415545
        0x08005cbc:    47464544    DEFG    DCD    1195787588
        0x08005cc0:    4b4a4948    HIJK    DCD    1263159624
        0x08005cc4:    4f4e4d4c    LMNO    DCD    1330531660
        0x08005cc8:    53525150    PQRS    DCD    1397903696
        0x08005ccc:    57565554    TUVW    DCD    1465275732
        0x08005cd0:    005a5958    XYZ.    DCD    5921112
        0x08005cd4:    302e3433    34.0    DCD    808334387
        0x08005cd8:    5e542d65    e-T^    DCD    1582574949
        0x08005cdc:    2e542d00    .-T.    DCD    777268480
        0x08005ce0:    542b2b54    T++T    DCD    1412115284
        0x08005ce4:    4f2d0071    q.-O    DCD    1328349297
        0x08005ce8:    2d207368    hs -    DCD    757101416
        0x08005cec:    735f6f6e    no_s    DCD    1935634286
        0x08005cf0:    5f657a69    ize_    DCD    1600485993
        0x08005cf4:    736e6f63    cons    DCD    1936617315
        0x08005cf8:    69617274    trai    DCD    1767993972
        0x08005cfc:    0073746e    nts.    DCD    7566446
        0x08005d00:    43434347    GCCC    DCD    1128481607
        0x08005d04:    676e616c    lang    DCD    1735287148
        0x08005d08:    2e303220     20.    DCD    774910496
        0x08005d0c:    67302e30    0.0g    DCD    1731210800
        0x08005d10:    31007469    it.1    DCD    822113385
        0x08005d14:    342e3354    T3.4    DCD    875443028
        0x08005d18:    007a3465    e4z.    DCD    8008805
        0x08005d1c:    33323130    0123    DCD    858927408
        0x08005d20:    37363534    4567    DCD    926299444
        0x08005d24:    62613938    89ab    DCD    1650538808
        0x08005d28:    66656463    cdef    DCD    1717920867
        0x08005d2c:    6a696867    ghij    DCD    1785292903
        0x08005d30:    6e6d6c6b    klmn    DCD    1852664939
        0x08005d34:    7271706f    opqr    DCD    1920036975
        0x08005d38:    76757473    stuv    DCD    1987409011
        0x08005d3c:    7a797877    wxyz    DCD    2054781047
        0x08005d40:    00000000    ....    DCD    0
    Region$$Table$$Base
        0x08005d44:    08005d68    h]..    DCD    134241640
        0x08005d48:    20000000    ...     DCD    536870912
        0x08005d4c:    00000008    ....    DCD    8
        0x08005d50:    0800011c    ....    DCD    134218012
        0x08005d54:    08005d70    p]..    DCD    134241648
        0x08005d58:    20000008    ...     DCD    536870920
        0x08005d5c:    00001270    p...    DCD    4720
        0x08005d60:    0800013c    <...    DCD    134218044
    Region$$Table$$Limit

** Section #2 'RW_IRAM1' (SHT_PROGBITS) [SHF_ALLOC + SHF_WRITE]
    Size   : 8 bytes (alignment 8)
    Address: 0x20000000


** Section #3 'RW_IRAM1' (SHT_NOBITS) [SHF_ALLOC + SHF_WRITE]
    Size   : 4720 bytes (alignment 8)
    Address: 0x20000008


** Section #4 '.debug_abbrev' (SHT_PROGBITS)
    Size   : 1563 bytes


** Section #5 '.debug_frame' (SHT_PROGBITS)
    Size   : 1260 bytes


** Section #6 '.debug_info' (SHT_PROGBITS)
    Size   : 14293 bytes


** Section #7 '.debug_line' (SHT_PROGBITS)
    Size   : 21813 bytes


** Section #8 '.debug_loc' (SHT_PROGBITS)
    Size   : 45510 bytes


** Section #9 '.debug_ranges' (SHT_PROGBITS)
    Size   : 2128 bytes


** Section #10 '.debug_str' (SHT_PROGBITS)
    Size   : 3747 bytes


** Section #11 '.symtab' (SHT_SYMTAB)
    Size   : 6272 bytes (alignment 4)
    String table #12 '.strtab'
    Last local symbol no. 273


** Section #12 '.strtab' (SHT_STRTAB)
    Size   : 5616 bytes


** Section #13 '.note' (SHT_NOTE)
    Size   : 28 bytes (alignment 4)


** Section #14 '.comment' (SHT_PROGBITS)
    Size   : 1776 bytes


** Section #15 '.shstrtab' (SHT_STRTAB)
    Size   : 148 bytes


address     size       variable name                            type
0x0800587e  0x18                                                array[24] of char

address     size       variable name                            type
0x0800230c  0x19                                                array[25] of char

address     size       variable name                            type
0x080022cc  0x40       AHBPrescTable                            array[16] of const uint32_t

address     size       variable name                            type
0x08005850  0xa        list_known_crc                           array[5] of ee_u16

address     size       variable name                            type
0x0800585a  0xa        matrix_known_crc                         array[5] of ee_u16

address     size       variable name                            type
0x08005874  0xa        state_known_crc                          array[5] of ee_u16

address     size       variable name                            type
0x080059b7  0x63                                                array[99] of char

address     size       variable name                            type
0x08005a91  0x11                                                array[17] of char

address     size       variable name                            type
0x08005a1a  0x49                                                array[73] of char

address     size       variable name                            type
0x08005b82  0x1c                                                array[28] of char

address     size       variable name                            type
0x08005b66  0x1c                                                array[28] of char

address     size       variable name                            type
0x08005b9e  0x1c                                                array[28] of char

address     size       variable name                            type
0x08005b4a  0x1c                                                array[28] of char

address     size       variable name                            type
0x08005b2f  0x1b                                                array[27] of char

address     size       variable name                            type
0x08002afc  0x6                                                 array[6] of char

address     size       variable name                            type
0x08005ab9  0x17                                                array[23] of char

address     size       variable name                            type
0x08005ce6  0x1a                                                array[26] of char

address     size       variable name                            type
0x08005aa2  0x17                                                array[23] of char

address     size       variable name                            type
0x08005d00  0x13                                                array[19] of char

address     size       variable name                            type
0x08005ad0  0x17                                                array[23] of char

address     size       variable name                            type
0x08005ae7  0x18                                                array[24] of char

address     size       variable name                            type
0x08005896  0x3e                                                array[62] of char

address     size       variable name                            type
0x08005a63  0x17                                                array[23] of char

address     size       variable name                            type
0x08005a7a  0x17                                                array[23] of char

address     size       variable name                            type
0x08005aff  0x18                                                array[24] of char

address     size       variable name                            type
0x08005b17  0x18                                                array[24] of char

address     size       variable name                            type
0x08005bba  0x30                                                array[48] of char

address     size       variable name                            type
0x08005c19  0x31                                                array[49] of char

address     size       variable name                            type
0x08005bea  0x2f                                                array[47] of char

address     size       variable name                            type
0x0800592e  0x2c                                                array[44] of char

address     size       variable name                            type
0x080058d4  0x2d                                                array[45] of char

address     size       variable name                            type
0x08005986  0x31                                                array[49] of char

address     size       variable name                            type
0x0800595a  0x2c                                                array[44] of char

address     size       variable name                            type
0x08005901  0x2d                                                array[45] of char

address     size       variable name                            type
0x20000068  0x4        Tick                                     volatile uint32_t

address     size       variable name                            type
0x2000006c  0x4        seed1_volatile                           volatile ee_s32

address     size       variable name                            type
0x20000070  0x4        seed2_volatile                           volatile ee_s32

address     size       variable name                            type
0x20000000  0x4        seed3_volatile                           volatile ee_s32

address     size       variable name                            type
0x20000004  0x4        seed4_volatile                           volatile ee_s32

address     size       variable name                            type
0x20000074  0x4        seed5_volatile                           volatile ee_s32

address     size       variable name                            type
0x08005820  0x10       errpat                                   array[4] of pointer to ee_u8

address     size       variable name                            type
0x08005830  0x10       floatpat                                 array[4] of pointer to ee_u8

address     size       variable name                            type
0x08005840  0x10       intpat                                   array[4] of pointer to ee_u8

address     size       variable name                            type
0x08005864  0x10       scipat                                   array[4] of pointer to ee_u8

address     size       variable name                            type
0x08005cd4  0x9                                                 array[9] of char

address     size       variable name                            type
0x08005d13  0x9                                                 array[9] of char

address     size       variable name                            type
0x08005cdd  0x9                                                 array[9] of char

address     size       variable name                            type
0x08005ca6  0x9                                                 array[9] of char

address     size       variable name                            type
0x08005c77  0x9                                                 array[9] of char

address     size       variable name                            type
0x08005c8a  0x9                                                 array[9] of char

address     size       variable name                            type
0x08005c6e  0x9                                                 array[9] of char

address     size       variable name                            type
0x08005c93  0x9                                                 array[9] of char

address     size       variable name                            type
0x08005c53  0x9                                                 array[9] of char

address     size       variable name                            type
0x08005c65  0x9                                                 array[9] of char

address     size       variable name                            type
0x08005c5c  0x9                                                 array[9] of char

address     size       variable name                            type
0x08005c4a  0x9                                                 array[9] of char

address     size       variable name                            type
0x08005c85  0x5                                                 array[5] of char

address     size       variable name                            type
0x08005ca1  0x5                                                 array[5] of char

address     size       variable name                            type
0x08005c9c  0x5                                                 array[5] of char

address     size       variable name                            type
0x08005c80  0x5                                                 array[5] of char

address     size       variable name                            type
0x08005caf  0x25                                                array[37] of char

address     size       variable name                            type
0x08005d1c  0x25                                                array[37] of char

address     size       variable name                            type
0x080018bc  0x7                                                 array[7] of char


========================================================================

** Object/Image Component Sizes

      Code (inc. data)   RO Data    RW Data    ZI Data      Debug   Object Name

     22336        686       1576          8       4720      90314   .\Objects\c011.axf
         0          0          4          0          0          0   (incl. padding)
     22336        686       1576          8          0          0   ROM Totals for .\Objects\c011.axf
